
M9549.elf:     file format elf32-littlearm

Sections:
Idx Name          Size      VMA       LMA       File off  Algn
  0 .isr_vector   00000150  08002000  08002000  00001000  2**0
                  CONTENTS, ALLOC, LOAD, READONLY, DATA
  1 .magic_const  00000014  08002150  08002150  00001150  2**2
                  CONTENTS, ALLOC, LOAD, READONLY, DATA
  2 .text         0000a0ec  08002164  08002164  00001164  2**2
                  CONTENTS, ALLOC, LOAD, READONLY, CODE
  3 .rodata       00000728  0800c250  0800c250  0000b250  2**3
                  CONTENTS, ALLOC, LOAD, READONLY, DATA
  4 .ARM.extab    00000000  0800c978  0800c978  0000c090  2**0
                  CONTENTS
  5 .ARM          00000008  0800c978  0800c978  0000b978  2**2
                  CONTENTS, ALLOC, LOAD, READONLY, DATA
  6 .preinit_array 00000000  0800c980  0800c980  0000c090  2**0
                  CONTENTS, ALLOC, LOAD, DATA
  7 .init_array   00000010  0800c980  0800c980  0000b980  2**2
                  CONTENTS, ALLOC, LOAD, READONLY, DATA
  8 .fini_array   00000004  0800c990  0800c990  0000b990  2**2
                  CONTENTS, ALLOC, LOAD, READONLY, DATA
  9 .data         00000090  20000000  0800c994  0000c000  2**2
                  CONTENTS, ALLOC, LOAD, DATA
 10 .bss          0000b560  20000090  0800ca24  0000c090  2**3
                  ALLOC
 11 ._user_heap_stack 00000600  2000b5f0  0800ca24  0000c5f0  2**0
                  ALLOC
 12 .ARM.attributes 00000029  00000000  00000000  0000c090  2**0
                  CONTENTS, READONLY
 13 .debug_line   00021eb3  00000000  00000000  0000c0b9  2**0
                  CONTENTS, READONLY, DEBUGGING, OCTETS
 14 .debug_line_str 00000066  00000000  00000000  0002df6c  2**0
                  CONTENTS, READONLY, DEBUGGING, OCTETS
 15 .debug_info   00047575  00000000  00000000  0002dfd2  2**0
                  CONTENTS, READONLY, DEBUGGING, OCTETS
 16 .debug_abbrev 0000ad76  00000000  00000000  00075547  2**0
                  CONTENTS, READONLY, DEBUGGING, OCTETS
 17 .debug_aranges 00001790  00000000  00000000  000802c0  2**3
                  CONTENTS, READONLY, DEBUGGING, OCTETS
 18 .debug_str    000582c3  00000000  00000000  00081a50  2**0
                  CONTENTS, READONLY, DEBUGGING, OCTETS
 19 .debug_rnglists 000017a1  00000000  00000000  000d9d13  2**0
                  CONTENTS, READONLY, DEBUGGING, OCTETS
 20 .debug_loclists 00006ec6  00000000  00000000  000db4b4  2**0
                  CONTENTS, READONLY, DEBUGGING, OCTETS
 21 .debug_macro  000137a0  00000000  00000000  000e237a  2**0
                  CONTENTS, READONLY, DEBUGGING, OCTETS
 22 .comment      00000043  00000000  00000000  000f5b1a  2**0
                  CONTENTS, READONLY
 23 .debug_frame  000054e0  00000000  00000000  000f5b60  2**2
                  CONTENTS, READONLY, DEBUGGING, OCTETS

Disassembly of section .text:

08002164 <__do_global_dtors_aux>:
 8002164:	b510      	push	{r4, lr}
 8002166:	4c05      	ldr	r4, [pc, #20]	@ (800217c <__do_global_dtors_aux+0x18>)
 8002168:	7823      	ldrb	r3, [r4, #0]
 800216a:	b933      	cbnz	r3, 800217a <__do_global_dtors_aux+0x16>
 800216c:	4b04      	ldr	r3, [pc, #16]	@ (8002180 <__do_global_dtors_aux+0x1c>)
 800216e:	b113      	cbz	r3, 8002176 <__do_global_dtors_aux+0x12>
 8002170:	4804      	ldr	r0, [pc, #16]	@ (8002184 <__do_global_dtors_aux+0x20>)
 8002172:	f3af 8000 	nop.w
 8002176:	2301      	movs	r3, #1
 8002178:	7023      	strb	r3, [r4, #0]
 800217a:	bd10      	pop	{r4, pc}
 800217c:	20000090 	.word	0x20000090
 8002180:	00000000 	.word	0x00000000
 8002184:	0800c238 	.word	0x0800c238

08002188 <frame_dummy>:
 8002188:	b508      	push	{r3, lr}
 800218a:	4b03      	ldr	r3, [pc, #12]	@ (8002198 <frame_dummy+0x10>)
 800218c:	b11b      	cbz	r3, 8002196 <frame_dummy+0xe>
 800218e:	4903      	ldr	r1, [pc, #12]	@ (800219c <frame_dummy+0x14>)
 8002190:	4803      	ldr	r0, [pc, #12]	@ (80021a0 <frame_dummy+0x18>)
 8002192:	f3af 8000 	nop.w
 8002196:	bd08      	pop	{r3, pc}
 8002198:	00000000 	.word	0x00000000
 800219c:	20000094 	.word	0x20000094
 80021a0:	0800c238 	.word	0x0800c238

080021a4 <strcmp>:
 80021a4:	f810 2b01 	ldrb.w	r2, [r0], #1
 80021a8:	f811 3b01 	ldrb.w	r3, [r1], #1
 80021ac:	2a01      	cmp	r2, #1
 80021ae:	bf28      	it	cs
 80021b0:	429a      	cmpcs	r2, r3
 80021b2:	d0f7      	beq.n	80021a4 <strcmp>
 80021b4:	1ad0      	subs	r0, r2, r3
 80021b6:	4770      	bx	lr

080021b8 <strlen>:
 80021b8:	4603      	mov	r3, r0
 80021ba:	f813 2b01 	ldrb.w	r2, [r3], #1
 80021be:	2a00      	cmp	r2, #0
 80021c0:	d1fb      	bne.n	80021ba <strlen+0x2>
 80021c2:	1a18      	subs	r0, r3, r0
 80021c4:	3801      	subs	r0, #1
 80021c6:	4770      	bx	lr

080021c8 <__aeabi_drsub>:
 80021c8:	f081 4100 	eor.w	r1, r1, #2147483648	@ 0x80000000
 80021cc:	e002      	b.n	80021d4 <__adddf3>
 80021ce:	bf00      	nop

080021d0 <__aeabi_dsub>:
 80021d0:	f083 4300 	eor.w	r3, r3, #2147483648	@ 0x80000000

080021d4 <__adddf3>:
 80021d4:	b530      	push	{r4, r5, lr}
 80021d6:	ea4f 0441 	mov.w	r4, r1, lsl #1
 80021da:	ea4f 0543 	mov.w	r5, r3, lsl #1
 80021de:	ea94 0f05 	teq	r4, r5
 80021e2:	bf08      	it	eq
 80021e4:	ea90 0f02 	teqeq	r0, r2
 80021e8:	bf1f      	itttt	ne
 80021ea:	ea54 0c00 	orrsne.w	ip, r4, r0
 80021ee:	ea55 0c02 	orrsne.w	ip, r5, r2
 80021f2:	ea7f 5c64 	mvnsne.w	ip, r4, asr #21
 80021f6:	ea7f 5c65 	mvnsne.w	ip, r5, asr #21
 80021fa:	f000 80e2 	beq.w	80023c2 <__adddf3+0x1ee>
 80021fe:	ea4f 5454 	mov.w	r4, r4, lsr #21
 8002202:	ebd4 5555 	rsbs	r5, r4, r5, lsr #21
 8002206:	bfb8      	it	lt
 8002208:	426d      	neglt	r5, r5
 800220a:	dd0c      	ble.n	8002226 <__adddf3+0x52>
 800220c:	442c      	add	r4, r5
 800220e:	ea80 0202 	eor.w	r2, r0, r2
 8002212:	ea81 0303 	eor.w	r3, r1, r3
 8002216:	ea82 0000 	eor.w	r0, r2, r0
 800221a:	ea83 0101 	eor.w	r1, r3, r1
 800221e:	ea80 0202 	eor.w	r2, r0, r2
 8002222:	ea81 0303 	eor.w	r3, r1, r3
 8002226:	2d36      	cmp	r5, #54	@ 0x36
 8002228:	bf88      	it	hi
 800222a:	bd30      	pophi	{r4, r5, pc}
 800222c:	f011 4f00 	tst.w	r1, #2147483648	@ 0x80000000
 8002230:	ea4f 3101 	mov.w	r1, r1, lsl #12
 8002234:	f44f 1c80 	mov.w	ip, #1048576	@ 0x100000
 8002238:	ea4c 3111 	orr.w	r1, ip, r1, lsr #12
 800223c:	d002      	beq.n	8002244 <__adddf3+0x70>
 800223e:	4240      	negs	r0, r0
 8002240:	eb61 0141 	sbc.w	r1, r1, r1, lsl #1
 8002244:	f013 4f00 	tst.w	r3, #2147483648	@ 0x80000000
 8002248:	ea4f 3303 	mov.w	r3, r3, lsl #12
 800224c:	ea4c 3313 	orr.w	r3, ip, r3, lsr #12
 8002250:	d002      	beq.n	8002258 <__adddf3+0x84>
 8002252:	4252      	negs	r2, r2
 8002254:	eb63 0343 	sbc.w	r3, r3, r3, lsl #1
 8002258:	ea94 0f05 	teq	r4, r5
 800225c:	f000 80a7 	beq.w	80023ae <__adddf3+0x1da>
 8002260:	f1a4 0401 	sub.w	r4, r4, #1
 8002264:	f1d5 0e20 	rsbs	lr, r5, #32
 8002268:	db0d      	blt.n	8002286 <__adddf3+0xb2>
 800226a:	fa02 fc0e 	lsl.w	ip, r2, lr
 800226e:	fa22 f205 	lsr.w	r2, r2, r5
 8002272:	1880      	adds	r0, r0, r2
 8002274:	f141 0100 	adc.w	r1, r1, #0
 8002278:	fa03 f20e 	lsl.w	r2, r3, lr
 800227c:	1880      	adds	r0, r0, r2
 800227e:	fa43 f305 	asr.w	r3, r3, r5
 8002282:	4159      	adcs	r1, r3
 8002284:	e00e      	b.n	80022a4 <__adddf3+0xd0>
 8002286:	f1a5 0520 	sub.w	r5, r5, #32
 800228a:	f10e 0e20 	add.w	lr, lr, #32
 800228e:	2a01      	cmp	r2, #1
 8002290:	fa03 fc0e 	lsl.w	ip, r3, lr
 8002294:	bf28      	it	cs
 8002296:	f04c 0c02 	orrcs.w	ip, ip, #2
 800229a:	fa43 f305 	asr.w	r3, r3, r5
 800229e:	18c0      	adds	r0, r0, r3
 80022a0:	eb51 71e3 	adcs.w	r1, r1, r3, asr #31
 80022a4:	f001 4500 	and.w	r5, r1, #2147483648	@ 0x80000000
 80022a8:	d507      	bpl.n	80022ba <__adddf3+0xe6>
 80022aa:	f04f 0e00 	mov.w	lr, #0
 80022ae:	f1dc 0c00 	rsbs	ip, ip, #0
 80022b2:	eb7e 0000 	sbcs.w	r0, lr, r0
 80022b6:	eb6e 0101 	sbc.w	r1, lr, r1
 80022ba:	f5b1 1f80 	cmp.w	r1, #1048576	@ 0x100000
 80022be:	d31b      	bcc.n	80022f8 <__adddf3+0x124>
 80022c0:	f5b1 1f00 	cmp.w	r1, #2097152	@ 0x200000
 80022c4:	d30c      	bcc.n	80022e0 <__adddf3+0x10c>
 80022c6:	0849      	lsrs	r1, r1, #1
 80022c8:	ea5f 0030 	movs.w	r0, r0, rrx
 80022cc:	ea4f 0c3c 	mov.w	ip, ip, rrx
 80022d0:	f104 0401 	add.w	r4, r4, #1
 80022d4:	ea4f 5244 	mov.w	r2, r4, lsl #21
 80022d8:	f512 0f80 	cmn.w	r2, #4194304	@ 0x400000
 80022dc:	f080 809a 	bcs.w	8002414 <__adddf3+0x240>
 80022e0:	f1bc 4f00 	cmp.w	ip, #2147483648	@ 0x80000000
 80022e4:	bf08      	it	eq
 80022e6:	ea5f 0c50 	movseq.w	ip, r0, lsr #1
 80022ea:	f150 0000 	adcs.w	r0, r0, #0
 80022ee:	eb41 5104 	adc.w	r1, r1, r4, lsl #20
 80022f2:	ea41 0105 	orr.w	r1, r1, r5
 80022f6:	bd30      	pop	{r4, r5, pc}
 80022f8:	ea5f 0c4c 	movs.w	ip, ip, lsl #1
 80022fc:	4140      	adcs	r0, r0
 80022fe:	eb41 0101 	adc.w	r1, r1, r1
 8002302:	3c01      	subs	r4, #1
 8002304:	bf28      	it	cs
 8002306:	f5b1 1f80 	cmpcs.w	r1, #1048576	@ 0x100000
 800230a:	d2e9      	bcs.n	80022e0 <__adddf3+0x10c>
 800230c:	f091 0f00 	teq	r1, #0
 8002310:	bf04      	itt	eq
 8002312:	4601      	moveq	r1, r0
 8002314:	2000      	moveq	r0, #0
 8002316:	fab1 f381 	clz	r3, r1
 800231a:	bf08      	it	eq
 800231c:	3320      	addeq	r3, #32
 800231e:	f1a3 030b 	sub.w	r3, r3, #11
 8002322:	f1b3 0220 	subs.w	r2, r3, #32
 8002326:	da0c      	bge.n	8002342 <__adddf3+0x16e>
 8002328:	320c      	adds	r2, #12
 800232a:	dd08      	ble.n	800233e <__adddf3+0x16a>
 800232c:	f102 0c14 	add.w	ip, r2, #20
 8002330:	f1c2 020c 	rsb	r2, r2, #12
 8002334:	fa01 f00c 	lsl.w	r0, r1, ip
 8002338:	fa21 f102 	lsr.w	r1, r1, r2
 800233c:	e00c      	b.n	8002358 <__adddf3+0x184>
 800233e:	f102 0214 	add.w	r2, r2, #20
 8002342:	bfd8      	it	le
 8002344:	f1c2 0c20 	rsble	ip, r2, #32
 8002348:	fa01 f102 	lsl.w	r1, r1, r2
 800234c:	fa20 fc0c 	lsr.w	ip, r0, ip
 8002350:	bfdc      	itt	le
 8002352:	ea41 010c 	orrle.w	r1, r1, ip
 8002356:	4090      	lslle	r0, r2
 8002358:	1ae4      	subs	r4, r4, r3
 800235a:	bfa2      	ittt	ge
 800235c:	eb01 5104 	addge.w	r1, r1, r4, lsl #20
 8002360:	4329      	orrge	r1, r5
 8002362:	bd30      	popge	{r4, r5, pc}
 8002364:	ea6f 0404 	mvn.w	r4, r4
 8002368:	3c1f      	subs	r4, #31
 800236a:	da1c      	bge.n	80023a6 <__adddf3+0x1d2>
 800236c:	340c      	adds	r4, #12
 800236e:	dc0e      	bgt.n	800238e <__adddf3+0x1ba>
 8002370:	f104 0414 	add.w	r4, r4, #20
 8002374:	f1c4 0220 	rsb	r2, r4, #32
 8002378:	fa20 f004 	lsr.w	r0, r0, r4
 800237c:	fa01 f302 	lsl.w	r3, r1, r2
 8002380:	ea40 0003 	orr.w	r0, r0, r3
 8002384:	fa21 f304 	lsr.w	r3, r1, r4
 8002388:	ea45 0103 	orr.w	r1, r5, r3
 800238c:	bd30      	pop	{r4, r5, pc}
 800238e:	f1c4 040c 	rsb	r4, r4, #12
 8002392:	f1c4 0220 	rsb	r2, r4, #32
 8002396:	fa20 f002 	lsr.w	r0, r0, r2
 800239a:	fa01 f304 	lsl.w	r3, r1, r4
 800239e:	ea40 0003 	orr.w	r0, r0, r3
 80023a2:	4629      	mov	r1, r5
 80023a4:	bd30      	pop	{r4, r5, pc}
 80023a6:	fa21 f004 	lsr.w	r0, r1, r4
 80023aa:	4629      	mov	r1, r5
 80023ac:	bd30      	pop	{r4, r5, pc}
 80023ae:	f094 0f00 	teq	r4, #0
 80023b2:	f483 1380 	eor.w	r3, r3, #1048576	@ 0x100000
 80023b6:	bf06      	itte	eq
 80023b8:	f481 1180 	eoreq.w	r1, r1, #1048576	@ 0x100000
 80023bc:	3401      	addeq	r4, #1
 80023be:	3d01      	subne	r5, #1
 80023c0:	e74e      	b.n	8002260 <__adddf3+0x8c>
 80023c2:	ea7f 5c64 	mvns.w	ip, r4, asr #21
 80023c6:	bf18      	it	ne
 80023c8:	ea7f 5c65 	mvnsne.w	ip, r5, asr #21
 80023cc:	d029      	beq.n	8002422 <__adddf3+0x24e>
 80023ce:	ea94 0f05 	teq	r4, r5
 80023d2:	bf08      	it	eq
 80023d4:	ea90 0f02 	teqeq	r0, r2
 80023d8:	d005      	beq.n	80023e6 <__adddf3+0x212>
 80023da:	ea54 0c00 	orrs.w	ip, r4, r0
 80023de:	bf04      	itt	eq
 80023e0:	4619      	moveq	r1, r3
 80023e2:	4610      	moveq	r0, r2
 80023e4:	bd30      	pop	{r4, r5, pc}
 80023e6:	ea91 0f03 	teq	r1, r3
 80023ea:	bf1e      	ittt	ne
 80023ec:	2100      	movne	r1, #0
 80023ee:	2000      	movne	r0, #0
 80023f0:	bd30      	popne	{r4, r5, pc}
 80023f2:	ea5f 5c54 	movs.w	ip, r4, lsr #21
 80023f6:	d105      	bne.n	8002404 <__adddf3+0x230>
 80023f8:	0040      	lsls	r0, r0, #1
 80023fa:	4149      	adcs	r1, r1
 80023fc:	bf28      	it	cs
 80023fe:	f041 4100 	orrcs.w	r1, r1, #2147483648	@ 0x80000000
 8002402:	bd30      	pop	{r4, r5, pc}
 8002404:	f514 0480 	adds.w	r4, r4, #4194304	@ 0x400000
 8002408:	bf3c      	itt	cc
 800240a:	f501 1180 	addcc.w	r1, r1, #1048576	@ 0x100000
 800240e:	bd30      	popcc	{r4, r5, pc}
 8002410:	f001 4500 	and.w	r5, r1, #2147483648	@ 0x80000000
 8002414:	f045 41fe 	orr.w	r1, r5, #2130706432	@ 0x7f000000
 8002418:	f441 0170 	orr.w	r1, r1, #15728640	@ 0xf00000
 800241c:	f04f 0000 	mov.w	r0, #0
 8002420:	bd30      	pop	{r4, r5, pc}
 8002422:	ea7f 5c64 	mvns.w	ip, r4, asr #21
 8002426:	bf1a      	itte	ne
 8002428:	4619      	movne	r1, r3
 800242a:	4610      	movne	r0, r2
 800242c:	ea7f 5c65 	mvnseq.w	ip, r5, asr #21
 8002430:	bf1c      	itt	ne
 8002432:	460b      	movne	r3, r1
 8002434:	4602      	movne	r2, r0
 8002436:	ea50 3401 	orrs.w	r4, r0, r1, lsl #12
 800243a:	bf06      	itte	eq
 800243c:	ea52 3503 	orrseq.w	r5, r2, r3, lsl #12
 8002440:	ea91 0f03 	teqeq	r1, r3
 8002444:	f441 2100 	orrne.w	r1, r1, #524288	@ 0x80000
 8002448:	bd30      	pop	{r4, r5, pc}
 800244a:	bf00      	nop

0800244c <__aeabi_ui2d>:
 800244c:	f090 0f00 	teq	r0, #0
 8002450:	bf04      	itt	eq
 8002452:	2100      	moveq	r1, #0
 8002454:	4770      	bxeq	lr
 8002456:	b530      	push	{r4, r5, lr}
 8002458:	f44f 6480 	mov.w	r4, #1024	@ 0x400
 800245c:	f104 0432 	add.w	r4, r4, #50	@ 0x32
 8002460:	f04f 0500 	mov.w	r5, #0
 8002464:	f04f 0100 	mov.w	r1, #0
 8002468:	e750      	b.n	800230c <__adddf3+0x138>
 800246a:	bf00      	nop

0800246c <__aeabi_i2d>:
 800246c:	f090 0f00 	teq	r0, #0
 8002470:	bf04      	itt	eq
 8002472:	2100      	moveq	r1, #0
 8002474:	4770      	bxeq	lr
 8002476:	b530      	push	{r4, r5, lr}
 8002478:	f44f 6480 	mov.w	r4, #1024	@ 0x400
 800247c:	f104 0432 	add.w	r4, r4, #50	@ 0x32
 8002480:	f010 4500 	ands.w	r5, r0, #2147483648	@ 0x80000000
 8002484:	bf48      	it	mi
 8002486:	4240      	negmi	r0, r0
 8002488:	f04f 0100 	mov.w	r1, #0
 800248c:	e73e      	b.n	800230c <__adddf3+0x138>
 800248e:	bf00      	nop

08002490 <__aeabi_f2d>:
 8002490:	0042      	lsls	r2, r0, #1
 8002492:	ea4f 01e2 	mov.w	r1, r2, asr #3
 8002496:	ea4f 0131 	mov.w	r1, r1, rrx
 800249a:	ea4f 7002 	mov.w	r0, r2, lsl #28
 800249e:	bf1f      	itttt	ne
 80024a0:	f012 437f 	andsne.w	r3, r2, #4278190080	@ 0xff000000
 80024a4:	f093 4f7f 	teqne	r3, #4278190080	@ 0xff000000
 80024a8:	f081 5160 	eorne.w	r1, r1, #939524096	@ 0x38000000
 80024ac:	4770      	bxne	lr
 80024ae:	f032 427f 	bics.w	r2, r2, #4278190080	@ 0xff000000
 80024b2:	bf08      	it	eq
 80024b4:	4770      	bxeq	lr
 80024b6:	f093 4f7f 	teq	r3, #4278190080	@ 0xff000000
 80024ba:	bf04      	itt	eq
 80024bc:	f441 2100 	orreq.w	r1, r1, #524288	@ 0x80000
 80024c0:	4770      	bxeq	lr
 80024c2:	b530      	push	{r4, r5, lr}
 80024c4:	f44f 7460 	mov.w	r4, #896	@ 0x380
 80024c8:	f001 4500 	and.w	r5, r1, #2147483648	@ 0x80000000
 80024cc:	f021 4100 	bic.w	r1, r1, #2147483648	@ 0x80000000
 80024d0:	e71c      	b.n	800230c <__adddf3+0x138>
 80024d2:	bf00      	nop

080024d4 <__aeabi_ul2d>:
 80024d4:	ea50 0201 	orrs.w	r2, r0, r1
 80024d8:	bf08      	it	eq
 80024da:	4770      	bxeq	lr
 80024dc:	b530      	push	{r4, r5, lr}
 80024de:	f04f 0500 	mov.w	r5, #0
 80024e2:	e00a      	b.n	80024fa <__aeabi_l2d+0x16>

080024e4 <__aeabi_l2d>:
 80024e4:	ea50 0201 	orrs.w	r2, r0, r1
 80024e8:	bf08      	it	eq
 80024ea:	4770      	bxeq	lr
 80024ec:	b530      	push	{r4, r5, lr}
 80024ee:	f011 4500 	ands.w	r5, r1, #2147483648	@ 0x80000000
 80024f2:	d502      	bpl.n	80024fa <__aeabi_l2d+0x16>
 80024f4:	4240      	negs	r0, r0
 80024f6:	eb61 0141 	sbc.w	r1, r1, r1, lsl #1
 80024fa:	f44f 6480 	mov.w	r4, #1024	@ 0x400
 80024fe:	f104 0432 	add.w	r4, r4, #50	@ 0x32
 8002502:	ea5f 5c91 	movs.w	ip, r1, lsr #22
 8002506:	f43f aed8 	beq.w	80022ba <__adddf3+0xe6>
 800250a:	f04f 0203 	mov.w	r2, #3
 800250e:	ea5f 0cdc 	movs.w	ip, ip, lsr #3
 8002512:	bf18      	it	ne
 8002514:	3203      	addne	r2, #3
 8002516:	ea5f 0cdc 	movs.w	ip, ip, lsr #3
 800251a:	bf18      	it	ne
 800251c:	3203      	addne	r2, #3
 800251e:	eb02 02dc 	add.w	r2, r2, ip, lsr #3
 8002522:	f1c2 0320 	rsb	r3, r2, #32
 8002526:	fa00 fc03 	lsl.w	ip, r0, r3
 800252a:	fa20 f002 	lsr.w	r0, r0, r2
 800252e:	fa01 fe03 	lsl.w	lr, r1, r3
 8002532:	ea40 000e 	orr.w	r0, r0, lr
 8002536:	fa21 f102 	lsr.w	r1, r1, r2
 800253a:	4414      	add	r4, r2
 800253c:	e6bd      	b.n	80022ba <__adddf3+0xe6>
 800253e:	bf00      	nop

08002540 <__aeabi_dmul>:
 8002540:	b570      	push	{r4, r5, r6, lr}
 8002542:	f04f 0cff 	mov.w	ip, #255	@ 0xff
 8002546:	f44c 6ce0 	orr.w	ip, ip, #1792	@ 0x700
 800254a:	ea1c 5411 	ands.w	r4, ip, r1, lsr #20
 800254e:	bf1d      	ittte	ne
 8002550:	ea1c 5513 	andsne.w	r5, ip, r3, lsr #20
 8002554:	ea94 0f0c 	teqne	r4, ip
 8002558:	ea95 0f0c 	teqne	r5, ip
 800255c:	f000 f8de 	bleq	800271c <__aeabi_dmul+0x1dc>
 8002560:	442c      	add	r4, r5
 8002562:	ea81 0603 	eor.w	r6, r1, r3
 8002566:	ea21 514c 	bic.w	r1, r1, ip, lsl #21
 800256a:	ea23 534c 	bic.w	r3, r3, ip, lsl #21
 800256e:	ea50 3501 	orrs.w	r5, r0, r1, lsl #12
 8002572:	bf18      	it	ne
 8002574:	ea52 3503 	orrsne.w	r5, r2, r3, lsl #12
 8002578:	f441 1180 	orr.w	r1, r1, #1048576	@ 0x100000
 800257c:	f443 1380 	orr.w	r3, r3, #1048576	@ 0x100000
 8002580:	d038      	beq.n	80025f4 <__aeabi_dmul+0xb4>
 8002582:	fba0 ce02 	umull	ip, lr, r0, r2
 8002586:	f04f 0500 	mov.w	r5, #0
 800258a:	fbe1 e502 	umlal	lr, r5, r1, r2
 800258e:	f006 4200 	and.w	r2, r6, #2147483648	@ 0x80000000
 8002592:	fbe0 e503 	umlal	lr, r5, r0, r3
 8002596:	f04f 0600 	mov.w	r6, #0
 800259a:	fbe1 5603 	umlal	r5, r6, r1, r3
 800259e:	f09c 0f00 	teq	ip, #0
 80025a2:	bf18      	it	ne
 80025a4:	f04e 0e01 	orrne.w	lr, lr, #1
 80025a8:	f1a4 04ff 	sub.w	r4, r4, #255	@ 0xff
 80025ac:	f5b6 7f00 	cmp.w	r6, #512	@ 0x200
 80025b0:	f564 7440 	sbc.w	r4, r4, #768	@ 0x300
 80025b4:	d204      	bcs.n	80025c0 <__aeabi_dmul+0x80>
 80025b6:	ea5f 0e4e 	movs.w	lr, lr, lsl #1
 80025ba:	416d      	adcs	r5, r5
 80025bc:	eb46 0606 	adc.w	r6, r6, r6
 80025c0:	ea42 21c6 	orr.w	r1, r2, r6, lsl #11
 80025c4:	ea41 5155 	orr.w	r1, r1, r5, lsr #21
 80025c8:	ea4f 20c5 	mov.w	r0, r5, lsl #11
 80025cc:	ea40 505e 	orr.w	r0, r0, lr, lsr #21
 80025d0:	ea4f 2ece 	mov.w	lr, lr, lsl #11
 80025d4:	f1b4 0cfd 	subs.w	ip, r4, #253	@ 0xfd
 80025d8:	bf88      	it	hi
 80025da:	f5bc 6fe0 	cmphi.w	ip, #1792	@ 0x700
 80025de:	d81e      	bhi.n	800261e <__aeabi_dmul+0xde>
 80025e0:	f1be 4f00 	cmp.w	lr, #2147483648	@ 0x80000000
 80025e4:	bf08      	it	eq
 80025e6:	ea5f 0e50 	movseq.w	lr, r0, lsr #1
 80025ea:	f150 0000 	adcs.w	r0, r0, #0
 80025ee:	eb41 5104 	adc.w	r1, r1, r4, lsl #20
 80025f2:	bd70      	pop	{r4, r5, r6, pc}
 80025f4:	f006 4600 	and.w	r6, r6, #2147483648	@ 0x80000000
 80025f8:	ea46 0101 	orr.w	r1, r6, r1
 80025fc:	ea40 0002 	orr.w	r0, r0, r2
 8002600:	ea81 0103 	eor.w	r1, r1, r3
 8002604:	ebb4 045c 	subs.w	r4, r4, ip, lsr #1
 8002608:	bfc2      	ittt	gt
 800260a:	ebd4 050c 	rsbsgt	r5, r4, ip
 800260e:	ea41 5104 	orrgt.w	r1, r1, r4, lsl #20
 8002612:	bd70      	popgt	{r4, r5, r6, pc}
 8002614:	f441 1180 	orr.w	r1, r1, #1048576	@ 0x100000
 8002618:	f04f 0e00 	mov.w	lr, #0
 800261c:	3c01      	subs	r4, #1
 800261e:	f300 80ab 	bgt.w	8002778 <__aeabi_dmul+0x238>
 8002622:	f114 0f36 	cmn.w	r4, #54	@ 0x36
 8002626:	bfde      	ittt	le
 8002628:	2000      	movle	r0, #0
 800262a:	f001 4100 	andle.w	r1, r1, #2147483648	@ 0x80000000
 800262e:	bd70      	pople	{r4, r5, r6, pc}
 8002630:	f1c4 0400 	rsb	r4, r4, #0
 8002634:	3c20      	subs	r4, #32
 8002636:	da35      	bge.n	80026a4 <__aeabi_dmul+0x164>
 8002638:	340c      	adds	r4, #12
 800263a:	dc1b      	bgt.n	8002674 <__aeabi_dmul+0x134>
 800263c:	f104 0414 	add.w	r4, r4, #20
 8002640:	f1c4 0520 	rsb	r5, r4, #32
 8002644:	fa00 f305 	lsl.w	r3, r0, r5
 8002648:	fa20 f004 	lsr.w	r0, r0, r4
 800264c:	fa01 f205 	lsl.w	r2, r1, r5
 8002650:	ea40 0002 	orr.w	r0, r0, r2
 8002654:	f001 4200 	and.w	r2, r1, #2147483648	@ 0x80000000
 8002658:	f021 4100 	bic.w	r1, r1, #2147483648	@ 0x80000000
 800265c:	eb10 70d3 	adds.w	r0, r0, r3, lsr #31
 8002660:	fa21 f604 	lsr.w	r6, r1, r4
 8002664:	eb42 0106 	adc.w	r1, r2, r6
 8002668:	ea5e 0e43 	orrs.w	lr, lr, r3, lsl #1
 800266c:	bf08      	it	eq
 800266e:	ea20 70d3 	biceq.w	r0, r0, r3, lsr #31
 8002672:	bd70      	pop	{r4, r5, r6, pc}
 8002674:	f1c4 040c 	rsb	r4, r4, #12
 8002678:	f1c4 0520 	rsb	r5, r4, #32
 800267c:	fa00 f304 	lsl.w	r3, r0, r4
 8002680:	fa20 f005 	lsr.w	r0, r0, r5
 8002684:	fa01 f204 	lsl.w	r2, r1, r4
 8002688:	ea40 0002 	orr.w	r0, r0, r2
 800268c:	f001 4100 	and.w	r1, r1, #2147483648	@ 0x80000000
 8002690:	eb10 70d3 	adds.w	r0, r0, r3, lsr #31
 8002694:	f141 0100 	adc.w	r1, r1, #0
 8002698:	ea5e 0e43 	orrs.w	lr, lr, r3, lsl #1
 800269c:	bf08      	it	eq
 800269e:	ea20 70d3 	biceq.w	r0, r0, r3, lsr #31
 80026a2:	bd70      	pop	{r4, r5, r6, pc}
 80026a4:	f1c4 0520 	rsb	r5, r4, #32
 80026a8:	fa00 f205 	lsl.w	r2, r0, r5
 80026ac:	ea4e 0e02 	orr.w	lr, lr, r2
 80026b0:	fa20 f304 	lsr.w	r3, r0, r4
 80026b4:	fa01 f205 	lsl.w	r2, r1, r5
 80026b8:	ea43 0302 	orr.w	r3, r3, r2
 80026bc:	fa21 f004 	lsr.w	r0, r1, r4
 80026c0:	f001 4100 	and.w	r1, r1, #2147483648	@ 0x80000000
 80026c4:	fa21 f204 	lsr.w	r2, r1, r4
 80026c8:	ea20 0002 	bic.w	r0, r0, r2
 80026cc:	eb00 70d3 	add.w	r0, r0, r3, lsr #31
 80026d0:	ea5e 0e43 	orrs.w	lr, lr, r3, lsl #1
 80026d4:	bf08      	it	eq
 80026d6:	ea20 70d3 	biceq.w	r0, r0, r3, lsr #31
 80026da:	bd70      	pop	{r4, r5, r6, pc}
 80026dc:	f094 0f00 	teq	r4, #0
 80026e0:	d10f      	bne.n	8002702 <__aeabi_dmul+0x1c2>
 80026e2:	f001 4600 	and.w	r6, r1, #2147483648	@ 0x80000000
 80026e6:	0040      	lsls	r0, r0, #1
 80026e8:	eb41 0101 	adc.w	r1, r1, r1
 80026ec:	f411 1f80 	tst.w	r1, #1048576	@ 0x100000
 80026f0:	bf08      	it	eq
 80026f2:	3c01      	subeq	r4, #1
 80026f4:	d0f7      	beq.n	80026e6 <__aeabi_dmul+0x1a6>
 80026f6:	ea41 0106 	orr.w	r1, r1, r6
 80026fa:	f095 0f00 	teq	r5, #0
 80026fe:	bf18      	it	ne
 8002700:	4770      	bxne	lr
 8002702:	f003 4600 	and.w	r6, r3, #2147483648	@ 0x80000000
 8002706:	0052      	lsls	r2, r2, #1
 8002708:	eb43 0303 	adc.w	r3, r3, r3
 800270c:	f413 1f80 	tst.w	r3, #1048576	@ 0x100000
 8002710:	bf08      	it	eq
 8002712:	3d01      	subeq	r5, #1
 8002714:	d0f7      	beq.n	8002706 <__aeabi_dmul+0x1c6>
 8002716:	ea43 0306 	orr.w	r3, r3, r6
 800271a:	4770      	bx	lr
 800271c:	ea94 0f0c 	teq	r4, ip
 8002720:	ea0c 5513 	and.w	r5, ip, r3, lsr #20
 8002724:	bf18      	it	ne
 8002726:	ea95 0f0c 	teqne	r5, ip
 800272a:	d00c      	beq.n	8002746 <__aeabi_dmul+0x206>
 800272c:	ea50 0641 	orrs.w	r6, r0, r1, lsl #1
 8002730:	bf18      	it	ne
 8002732:	ea52 0643 	orrsne.w	r6, r2, r3, lsl #1
 8002736:	d1d1      	bne.n	80026dc <__aeabi_dmul+0x19c>
 8002738:	ea81 0103 	eor.w	r1, r1, r3
 800273c:	f001 4100 	and.w	r1, r1, #2147483648	@ 0x80000000
 8002740:	f04f 0000 	mov.w	r0, #0
 8002744:	bd70      	pop	{r4, r5, r6, pc}
 8002746:	ea50 0641 	orrs.w	r6, r0, r1, lsl #1
 800274a:	bf06      	itte	eq
 800274c:	4610      	moveq	r0, r2
 800274e:	4619      	moveq	r1, r3
 8002750:	ea52 0643 	orrsne.w	r6, r2, r3, lsl #1
 8002754:	d019      	beq.n	800278a <__aeabi_dmul+0x24a>
 8002756:	ea94 0f0c 	teq	r4, ip
 800275a:	d102      	bne.n	8002762 <__aeabi_dmul+0x222>
 800275c:	ea50 3601 	orrs.w	r6, r0, r1, lsl #12
 8002760:	d113      	bne.n	800278a <__aeabi_dmul+0x24a>
 8002762:	ea95 0f0c 	teq	r5, ip
 8002766:	d105      	bne.n	8002774 <__aeabi_dmul+0x234>
 8002768:	ea52 3603 	orrs.w	r6, r2, r3, lsl #12
 800276c:	bf1c      	itt	ne
 800276e:	4610      	movne	r0, r2
 8002770:	4619      	movne	r1, r3
 8002772:	d10a      	bne.n	800278a <__aeabi_dmul+0x24a>
 8002774:	ea81 0103 	eor.w	r1, r1, r3
 8002778:	f001 4100 	and.w	r1, r1, #2147483648	@ 0x80000000
 800277c:	f041 41fe 	orr.w	r1, r1, #2130706432	@ 0x7f000000
 8002780:	f441 0170 	orr.w	r1, r1, #15728640	@ 0xf00000
 8002784:	f04f 0000 	mov.w	r0, #0
 8002788:	bd70      	pop	{r4, r5, r6, pc}
 800278a:	f041 41fe 	orr.w	r1, r1, #2130706432	@ 0x7f000000
 800278e:	f441 0178 	orr.w	r1, r1, #16252928	@ 0xf80000
 8002792:	bd70      	pop	{r4, r5, r6, pc}

08002794 <__aeabi_ddiv>:
 8002794:	b570      	push	{r4, r5, r6, lr}
 8002796:	f04f 0cff 	mov.w	ip, #255	@ 0xff
 800279a:	f44c 6ce0 	orr.w	ip, ip, #1792	@ 0x700
 800279e:	ea1c 5411 	ands.w	r4, ip, r1, lsr #20
 80027a2:	bf1d      	ittte	ne
 80027a4:	ea1c 5513 	andsne.w	r5, ip, r3, lsr #20
 80027a8:	ea94 0f0c 	teqne	r4, ip
 80027ac:	ea95 0f0c 	teqne	r5, ip
 80027b0:	f000 f8a7 	bleq	8002902 <__aeabi_ddiv+0x16e>
 80027b4:	eba4 0405 	sub.w	r4, r4, r5
 80027b8:	ea81 0e03 	eor.w	lr, r1, r3
 80027bc:	ea52 3503 	orrs.w	r5, r2, r3, lsl #12
 80027c0:	ea4f 3101 	mov.w	r1, r1, lsl #12
 80027c4:	f000 8088 	beq.w	80028d8 <__aeabi_ddiv+0x144>
 80027c8:	ea4f 3303 	mov.w	r3, r3, lsl #12
 80027cc:	f04f 5580 	mov.w	r5, #268435456	@ 0x10000000
 80027d0:	ea45 1313 	orr.w	r3, r5, r3, lsr #4
 80027d4:	ea43 6312 	orr.w	r3, r3, r2, lsr #24
 80027d8:	ea4f 2202 	mov.w	r2, r2, lsl #8
 80027dc:	ea45 1511 	orr.w	r5, r5, r1, lsr #4
 80027e0:	ea45 6510 	orr.w	r5, r5, r0, lsr #24
 80027e4:	ea4f 2600 	mov.w	r6, r0, lsl #8
 80027e8:	f00e 4100 	and.w	r1, lr, #2147483648	@ 0x80000000
 80027ec:	429d      	cmp	r5, r3
 80027ee:	bf08      	it	eq
 80027f0:	4296      	cmpeq	r6, r2
 80027f2:	f144 04fd 	adc.w	r4, r4, #253	@ 0xfd
 80027f6:	f504 7440 	add.w	r4, r4, #768	@ 0x300
 80027fa:	d202      	bcs.n	8002802 <__aeabi_ddiv+0x6e>
 80027fc:	085b      	lsrs	r3, r3, #1
 80027fe:	ea4f 0232 	mov.w	r2, r2, rrx
 8002802:	1ab6      	subs	r6, r6, r2
 8002804:	eb65 0503 	sbc.w	r5, r5, r3
 8002808:	085b      	lsrs	r3, r3, #1
 800280a:	ea4f 0232 	mov.w	r2, r2, rrx
 800280e:	f44f 1080 	mov.w	r0, #1048576	@ 0x100000
 8002812:	f44f 2c00 	mov.w	ip, #524288	@ 0x80000
 8002816:	ebb6 0e02 	subs.w	lr, r6, r2
 800281a:	eb75 0e03 	sbcs.w	lr, r5, r3
 800281e:	bf22      	ittt	cs
 8002820:	1ab6      	subcs	r6, r6, r2
 8002822:	4675      	movcs	r5, lr
 8002824:	ea40 000c 	orrcs.w	r0, r0, ip
 8002828:	085b      	lsrs	r3, r3, #1
 800282a:	ea4f 0232 	mov.w	r2, r2, rrx
 800282e:	ebb6 0e02 	subs.w	lr, r6, r2
 8002832:	eb75 0e03 	sbcs.w	lr, r5, r3
 8002836:	bf22      	ittt	cs
 8002838:	1ab6      	subcs	r6, r6, r2
 800283a:	4675      	movcs	r5, lr
 800283c:	ea40 005c 	orrcs.w	r0, r0, ip, lsr #1
 8002840:	085b      	lsrs	r3, r3, #1
 8002842:	ea4f 0232 	mov.w	r2, r2, rrx
 8002846:	ebb6 0e02 	subs.w	lr, r6, r2
 800284a:	eb75 0e03 	sbcs.w	lr, r5, r3
 800284e:	bf22      	ittt	cs
 8002850:	1ab6      	subcs	r6, r6, r2
 8002852:	4675      	movcs	r5, lr
 8002854:	ea40 009c 	orrcs.w	r0, r0, ip, lsr #2
 8002858:	085b      	lsrs	r3, r3, #1
 800285a:	ea4f 0232 	mov.w	r2, r2, rrx
 800285e:	ebb6 0e02 	subs.w	lr, r6, r2
 8002862:	eb75 0e03 	sbcs.w	lr, r5, r3
 8002866:	bf22      	ittt	cs
 8002868:	1ab6      	subcs	r6, r6, r2
 800286a:	4675      	movcs	r5, lr
 800286c:	ea40 00dc 	orrcs.w	r0, r0, ip, lsr #3
 8002870:	ea55 0e06 	orrs.w	lr, r5, r6
 8002874:	d018      	beq.n	80028a8 <__aeabi_ddiv+0x114>
 8002876:	ea4f 1505 	mov.w	r5, r5, lsl #4
 800287a:	ea45 7516 	orr.w	r5, r5, r6, lsr #28
 800287e:	ea4f 1606 	mov.w	r6, r6, lsl #4
 8002882:	ea4f 03c3 	mov.w	r3, r3, lsl #3
 8002886:	ea43 7352 	orr.w	r3, r3, r2, lsr #29
 800288a:	ea4f 02c2 	mov.w	r2, r2, lsl #3
 800288e:	ea5f 1c1c 	movs.w	ip, ip, lsr #4
 8002892:	d1c0      	bne.n	8002816 <__aeabi_ddiv+0x82>
 8002894:	f411 1f80 	tst.w	r1, #1048576	@ 0x100000
 8002898:	d10b      	bne.n	80028b2 <__aeabi_ddiv+0x11e>
 800289a:	ea41 0100 	orr.w	r1, r1, r0
 800289e:	f04f 0000 	mov.w	r0, #0
 80028a2:	f04f 4c00 	mov.w	ip, #2147483648	@ 0x80000000
 80028a6:	e7b6      	b.n	8002816 <__aeabi_ddiv+0x82>
 80028a8:	f411 1f80 	tst.w	r1, #1048576	@ 0x100000
 80028ac:	bf04      	itt	eq
 80028ae:	4301      	orreq	r1, r0
 80028b0:	2000      	moveq	r0, #0
 80028b2:	f1b4 0cfd 	subs.w	ip, r4, #253	@ 0xfd
 80028b6:	bf88      	it	hi
 80028b8:	f5bc 6fe0 	cmphi.w	ip, #1792	@ 0x700
 80028bc:	f63f aeaf 	bhi.w	800261e <__aeabi_dmul+0xde>
 80028c0:	ebb5 0c03 	subs.w	ip, r5, r3
 80028c4:	bf04      	itt	eq
 80028c6:	ebb6 0c02 	subseq.w	ip, r6, r2
 80028ca:	ea5f 0c50 	movseq.w	ip, r0, lsr #1
 80028ce:	f150 0000 	adcs.w	r0, r0, #0
 80028d2:	eb41 5104 	adc.w	r1, r1, r4, lsl #20
 80028d6:	bd70      	pop	{r4, r5, r6, pc}
 80028d8:	f00e 4e00 	and.w	lr, lr, #2147483648	@ 0x80000000
 80028dc:	ea4e 3111 	orr.w	r1, lr, r1, lsr #12
 80028e0:	eb14 045c 	adds.w	r4, r4, ip, lsr #1
 80028e4:	bfc2      	ittt	gt
 80028e6:	ebd4 050c 	rsbsgt	r5, r4, ip
 80028ea:	ea41 5104 	orrgt.w	r1, r1, r4, lsl #20
 80028ee:	bd70      	popgt	{r4, r5, r6, pc}
 80028f0:	f441 1180 	orr.w	r1, r1, #1048576	@ 0x100000
 80028f4:	f04f 0e00 	mov.w	lr, #0
 80028f8:	3c01      	subs	r4, #1
 80028fa:	e690      	b.n	800261e <__aeabi_dmul+0xde>
 80028fc:	ea45 0e06 	orr.w	lr, r5, r6
 8002900:	e68d      	b.n	800261e <__aeabi_dmul+0xde>
 8002902:	ea0c 5513 	and.w	r5, ip, r3, lsr #20
 8002906:	ea94 0f0c 	teq	r4, ip
 800290a:	bf08      	it	eq
 800290c:	ea95 0f0c 	teqeq	r5, ip
 8002910:	f43f af3b 	beq.w	800278a <__aeabi_dmul+0x24a>
 8002914:	ea94 0f0c 	teq	r4, ip
 8002918:	d10a      	bne.n	8002930 <__aeabi_ddiv+0x19c>
 800291a:	ea50 3401 	orrs.w	r4, r0, r1, lsl #12
 800291e:	f47f af34 	bne.w	800278a <__aeabi_dmul+0x24a>
 8002922:	ea95 0f0c 	teq	r5, ip
 8002926:	f47f af25 	bne.w	8002774 <__aeabi_dmul+0x234>
 800292a:	4610      	mov	r0, r2
 800292c:	4619      	mov	r1, r3
 800292e:	e72c      	b.n	800278a <__aeabi_dmul+0x24a>
 8002930:	ea95 0f0c 	teq	r5, ip
 8002934:	d106      	bne.n	8002944 <__aeabi_ddiv+0x1b0>
 8002936:	ea52 3503 	orrs.w	r5, r2, r3, lsl #12
 800293a:	f43f aefd 	beq.w	8002738 <__aeabi_dmul+0x1f8>
 800293e:	4610      	mov	r0, r2
 8002940:	4619      	mov	r1, r3
 8002942:	e722      	b.n	800278a <__aeabi_dmul+0x24a>
 8002944:	ea50 0641 	orrs.w	r6, r0, r1, lsl #1
 8002948:	bf18      	it	ne
 800294a:	ea52 0643 	orrsne.w	r6, r2, r3, lsl #1
 800294e:	f47f aec5 	bne.w	80026dc <__aeabi_dmul+0x19c>
 8002952:	ea50 0441 	orrs.w	r4, r0, r1, lsl #1
 8002956:	f47f af0d 	bne.w	8002774 <__aeabi_dmul+0x234>
 800295a:	ea52 0543 	orrs.w	r5, r2, r3, lsl #1
 800295e:	f47f aeeb 	bne.w	8002738 <__aeabi_dmul+0x1f8>
 8002962:	e712      	b.n	800278a <__aeabi_dmul+0x24a>

08002964 <__aeabi_d2iz>:
 8002964:	ea4f 0241 	mov.w	r2, r1, lsl #1
 8002968:	f512 1200 	adds.w	r2, r2, #2097152	@ 0x200000
 800296c:	d215      	bcs.n	800299a <__aeabi_d2iz+0x36>
 800296e:	d511      	bpl.n	8002994 <__aeabi_d2iz+0x30>
 8002970:	f46f 7378 	mvn.w	r3, #992	@ 0x3e0
 8002974:	ebb3 5262 	subs.w	r2, r3, r2, asr #21
 8002978:	d912      	bls.n	80029a0 <__aeabi_d2iz+0x3c>
 800297a:	ea4f 23c1 	mov.w	r3, r1, lsl #11
 800297e:	f043 4300 	orr.w	r3, r3, #2147483648	@ 0x80000000
 8002982:	ea43 5350 	orr.w	r3, r3, r0, lsr #21
 8002986:	f011 4f00 	tst.w	r1, #2147483648	@ 0x80000000
 800298a:	fa23 f002 	lsr.w	r0, r3, r2
 800298e:	bf18      	it	ne
 8002990:	4240      	negne	r0, r0
 8002992:	4770      	bx	lr
 8002994:	f04f 0000 	mov.w	r0, #0
 8002998:	4770      	bx	lr
 800299a:	ea50 3001 	orrs.w	r0, r0, r1, lsl #12
 800299e:	d105      	bne.n	80029ac <__aeabi_d2iz+0x48>
 80029a0:	f011 4000 	ands.w	r0, r1, #2147483648	@ 0x80000000
 80029a4:	bf08      	it	eq
 80029a6:	f06f 4000 	mvneq.w	r0, #2147483648	@ 0x80000000
 80029aa:	4770      	bx	lr
 80029ac:	f04f 0000 	mov.w	r0, #0
 80029b0:	4770      	bx	lr
 80029b2:	bf00      	nop

080029b4 <Reset_Handler>:
  .weak Reset_Handler
  .type Reset_Handler, %function
Reset_Handler:

/* Copy the data segment initializers from flash to SRAM */
  ldr r0, =_sdata
 80029b4:	480c      	ldr	r0, [pc, #48]	@ (80029e8 <LoopFillZerobss+0x12>)
  ldr r1, =_edata
 80029b6:	490d      	ldr	r1, [pc, #52]	@ (80029ec <LoopFillZerobss+0x16>)
  ldr r2, =_sidata
 80029b8:	4a0d      	ldr	r2, [pc, #52]	@ (80029f0 <LoopFillZerobss+0x1a>)
  movs r3, #0
 80029ba:	2300      	movs	r3, #0
  b LoopCopyDataInit
 80029bc:	e002      	b.n	80029c4 <LoopCopyDataInit>

080029be <CopyDataInit>:

CopyDataInit:
  ldr r4, [r2, r3]
 80029be:	58d4      	ldr	r4, [r2, r3]
  str r4, [r0, r3]
 80029c0:	50c4      	str	r4, [r0, r3]
  adds r3, r3, #4
 80029c2:	3304      	adds	r3, #4

080029c4 <LoopCopyDataInit>:

LoopCopyDataInit:
  adds r4, r0, r3
 80029c4:	18c4      	adds	r4, r0, r3
  cmp r4, r1
 80029c6:	428c      	cmp	r4, r1
  bcc CopyDataInit
 80029c8:	d3f9      	bcc.n	80029be <CopyDataInit>
  
/* Zero fill the bss segment. */
  ldr r2, =_sbss
 80029ca:	4a0a      	ldr	r2, [pc, #40]	@ (80029f4 <LoopFillZerobss+0x1e>)
  ldr r4, =_ebss
 80029cc:	4c0a      	ldr	r4, [pc, #40]	@ (80029f8 <LoopFillZerobss+0x22>)
  movs r3, #0
 80029ce:	2300      	movs	r3, #0
  b LoopFillZerobss
 80029d0:	e001      	b.n	80029d6 <LoopFillZerobss>

080029d2 <FillZerobss>:

FillZerobss:
  str  r3, [r2]
 80029d2:	6013      	str	r3, [r2, #0]
  adds r2, r2, #4
 80029d4:	3204      	adds	r2, #4

080029d6 <LoopFillZerobss>:

LoopFillZerobss:
  cmp r2, r4
 80029d6:	42a2      	cmp	r2, r4
  bcc FillZerobss
 80029d8:	d3fb      	bcc.n	80029d2 <FillZerobss>

/* Call the clock system intitialization function.*/
    bl  SystemInit
 80029da:	f009 fa49 	bl	800be70 <SystemInit>
/* Call static constructors */
    bl __libc_init_array
 80029de:	f009 fbe9 	bl	800c1b4 <__libc_init_array>
/* Call the application's entry point.*/
  bl main
 80029e2:	f005 fca3 	bl	800832c <main>
  bx lr
 80029e6:	4770      	bx	lr
  ldr r0, =_sdata
 80029e8:	20000000 	.word	0x20000000
  ldr r1, =_edata
 80029ec:	20000090 	.word	0x20000090
  ldr r2, =_sidata
 80029f0:	0800c994 	.word	0x0800c994
  ldr r2, =_sbss
 80029f4:	20000090 	.word	0x20000090
  ldr r4, =_ebss
 80029f8:	2000b5f0 	.word	0x2000b5f0

080029fc <ADC1_2_IRQHandler>:
 * @retval : None
*/
    .section .text.Default_Handler,"ax",%progbits
Default_Handler:
Infinite_Loop:
  b Infinite_Loop
 80029fc:	e7fe      	b.n	80029fc <ADC1_2_IRQHandler>
	...

08002a00 <_ZN7ADC_DRV9GPIO_INITEv>:
  
  return status;
}

ErrorStatus ADC_DRV::GPIO_INIT(void)
{
 8002a00:	b500      	push	{lr}
 8002a02:	b083      	sub	sp, #12
	GPIO_InitTypeDef GPIO_InitStructure;

	//Configurate I2C pin
	GPIO_StructInit(&GPIO_InitStructure);
 8002a04:	a801      	add	r0, sp, #4
 8002a06:	f008 fcab 	bl	800b360 <GPIO_StructInit>
	GPIO_InitStructure.GPIO_Mode = GPIO_Mode_AIN;
 8002a0a:	2300      	movs	r3, #0
 8002a0c:	f88d 3007 	strb.w	r3, [sp, #7]
	GPIO_InitStructure.GPIO_Pin = ADC_VIN_Pin1 | ADC_VIN_Pin2;
 8002a10:	2311      	movs	r3, #17
 8002a12:	f8ad 3004 	strh.w	r3, [sp, #4]
	GPIO_Init(ADC_VIN_Port, &GPIO_InitStructure);
 8002a16:	a901      	add	r1, sp, #4
 8002a18:	4806      	ldr	r0, [pc, #24]	@ (8002a34 <_ZN7ADC_DRV9GPIO_INITEv+0x34>)
 8002a1a:	f008 fbe5 	bl	800b1e8 <GPIO_Init>
	GPIO_InitStructure.GPIO_Pin = ADC_TEMP_Pin;
 8002a1e:	2302      	movs	r3, #2
 8002a20:	f8ad 3004 	strh.w	r3, [sp, #4]
	GPIO_Init(ADC_TEMP_Port, &GPIO_InitStructure);
 8002a24:	a901      	add	r1, sp, #4
 8002a26:	4804      	ldr	r0, [pc, #16]	@ (8002a38 <_ZN7ADC_DRV9GPIO_INITEv+0x38>)
 8002a28:	f008 fbde 	bl	800b1e8 <GPIO_Init>
        //GPIO_InitStructure.GPIO_Pin = ADC_TVS_Pin1 |ADC_TVS_Pin2;
        //GPIO_Init(ADC_TVS_Port, &GPIO_InitStructure);

	return(SUCCESS);

}
 8002a2c:	2001      	movs	r0, #1
 8002a2e:	b003      	add	sp, #12
 8002a30:	f85d fb04 	ldr.w	pc, [sp], #4
 8002a34:	40011000 	.word	0x40011000
 8002a38:	40010c00 	.word	0x40010c00

08002a3c <_ZN7ADC_DRV4InitEv>:
{
 8002a3c:	e92d 43f0 	stmdb	sp!, {r4, r5, r6, r7, r8, r9, lr}
 8002a40:	b091      	sub	sp, #68	@ 0x44
 8002a42:	4681      	mov	r9, r0
  ErrorStatus status = GPIO_INIT();
 8002a44:	f7ff ffdc 	bl	8002a00 <_ZN7ADC_DRV9GPIO_INITEv>
 8002a48:	4607      	mov	r7, r0
  ADC_DeInit(ADC1);                                    /* Reset the I2C1           */
 8002a4a:	4c3b      	ldr	r4, [pc, #236]	@ (8002b38 <_ZN7ADC_DRV4InitEv+0xfc>)
 8002a4c:	4620      	mov	r0, r4
 8002a4e:	f007 fef3 	bl	800a838 <ADC_DeInit>
  DMA_DeInit(DMA1_Channel4);
 8002a52:	483a      	ldr	r0, [pc, #232]	@ (8002b3c <_ZN7ADC_DRV4InitEv+0x100>)
 8002a54:	f008 f8d8 	bl	800ac08 <DMA_DeInit>
  RCC_AHBPeriphClockCmd(RCC_AHBPeriph_DMA1,ENABLE);
 8002a58:	2101      	movs	r1, #1
 8002a5a:	4608      	mov	r0, r1
 8002a5c:	f009 f8c2 	bl	800bbe4 <RCC_AHBPeriphClockCmd>
  ADC_StructInit(&ADC_InitStruct);
 8002a60:	a80b      	add	r0, sp, #44	@ 0x2c
 8002a62:	f007 ff75 	bl	800a950 <ADC_StructInit>
  RCC_APB2PeriphClockCmd(RCC_APB2Periph_ADC1, ENABLE); 
 8002a66:	2101      	movs	r1, #1
 8002a68:	f44f 7000 	mov.w	r0, #512	@ 0x200
 8002a6c:	f009 f8d8 	bl	800bc20 <RCC_APB2PeriphClockCmd>
  ADC_InitStruct.ADC_Mode               = ADC_Mode_Independent;
 8002a70:	2600      	movs	r6, #0
 8002a72:	960b      	str	r6, [sp, #44]	@ 0x2c
  ADC_InitStruct.ADC_ScanConvMode       = ENABLE;
 8002a74:	2501      	movs	r5, #1
 8002a76:	f88d 5030 	strb.w	r5, [sp, #48]	@ 0x30
  ADC_InitStruct.ADC_ContinuousConvMode = ENABLE;
 8002a7a:	f88d 5031 	strb.w	r5, [sp, #49]	@ 0x31
  ADC_InitStruct.ADC_ExternalTrigConv   = ADC_ExternalTrigConv_None;
 8002a7e:	f44f 2360 	mov.w	r3, #917504	@ 0xe0000
 8002a82:	930d      	str	r3, [sp, #52]	@ 0x34
  ADC_InitStruct.ADC_DataAlign          = ADC_DataAlign_Right;
 8002a84:	960e      	str	r6, [sp, #56]	@ 0x38
  ADC_InitStruct.ADC_NbrOfChannel       = 3;
 8002a86:	f04f 0803 	mov.w	r8, #3
 8002a8a:	f88d 803c 	strb.w	r8, [sp, #60]	@ 0x3c
  ADC_Init(ADC1,&ADC_InitStruct);
 8002a8e:	a90b      	add	r1, sp, #44	@ 0x2c
 8002a90:	4620      	mov	r0, r4
 8002a92:	f007 ff0b 	bl	800a8ac <ADC_Init>
  ADC_RegularChannelConfig(ADC1, ADC_Channel_9 , 1, ADC_SampleTime_239Cycles5); /* Temperature, Pin No.36 */
 8002a96:	2307      	movs	r3, #7
 8002a98:	462a      	mov	r2, r5
 8002a9a:	2109      	movs	r1, #9
 8002a9c:	4620      	mov	r0, r4
 8002a9e:	f007 ffe9 	bl	800aa74 <ADC_RegularChannelConfig>
  ADC_RegularChannelConfig(ADC1, ADC_Channel_10, 2, ADC_SampleTime_239Cycles5); /* Vin Sense 1, Pin No. 15  */
 8002aa2:	2307      	movs	r3, #7
 8002aa4:	2202      	movs	r2, #2
 8002aa6:	210a      	movs	r1, #10
 8002aa8:	4620      	mov	r0, r4
 8002aaa:	f007 ffe3 	bl	800aa74 <ADC_RegularChannelConfig>
  ADC_RegularChannelConfig(ADC1, ADC_Channel_14 , 3, ADC_SampleTime_239Cycles5); /* Vin Sense 2, Pin No. 33 */
 8002aae:	2307      	movs	r3, #7
 8002ab0:	4642      	mov	r2, r8
 8002ab2:	210e      	movs	r1, #14
 8002ab4:	4620      	mov	r0, r4
 8002ab6:	f007 ffdd 	bl	800aa74 <ADC_RegularChannelConfig>
  ADC_Cmd(ADC1, FunctionalState::ENABLE);
 8002aba:	4629      	mov	r1, r5
 8002abc:	4620      	mov	r0, r4
 8002abe:	f007 ff62 	bl	800a986 <ADC_Cmd>
  ADC_DMACmd(ADC1,FunctionalState::ENABLE);
 8002ac2:	4629      	mov	r1, r5
 8002ac4:	4620      	mov	r0, r4
 8002ac6:	f007 ff79 	bl	800a9bc <ADC_DMACmd>
  DMA_StructInit(&DMA_InitStruct);
 8002aca:	4668      	mov	r0, sp
 8002acc:	f008 f996 	bl	800adfc <DMA_StructInit>
  DMA_InitStruct.DMA_PeripheralBaseAddr = (uint32_t)(&(ADC1->DR));
 8002ad0:	4b1b      	ldr	r3, [pc, #108]	@ (8002b40 <_ZN7ADC_DRV4InitEv+0x104>)
 8002ad2:	9300      	str	r3, [sp, #0]
  DMA_InitStruct.DMA_MemoryBaseAddr     = (uint32_t)(&(ADC_Inputs[0]));
 8002ad4:	f8cd 9004 	str.w	r9, [sp, #4]
  DMA_InitStruct.DMA_DIR                = DMA_DIR_PeripheralSRC;
 8002ad8:	9602      	str	r6, [sp, #8]
  DMA_InitStruct.DMA_BufferSize         = 3; 
 8002ada:	f8cd 800c 	str.w	r8, [sp, #12]
  DMA_InitStruct.DMA_PeripheralInc      = DMA_PeripheralInc_Disable;
 8002ade:	9604      	str	r6, [sp, #16]
  DMA_InitStruct.DMA_MemoryInc          = DMA_MemoryInc_Enable;            
 8002ae0:	2380      	movs	r3, #128	@ 0x80
 8002ae2:	9305      	str	r3, [sp, #20]
  DMA_InitStruct.DMA_PeripheralDataSize = DMA_PeripheralDataSize_HalfWord;
 8002ae4:	f44f 7380 	mov.w	r3, #256	@ 0x100
 8002ae8:	9306      	str	r3, [sp, #24]
  DMA_InitStruct.DMA_MemoryDataSize     = DMA_MemoryDataSize_HalfWord; 
 8002aea:	f44f 6380 	mov.w	r3, #1024	@ 0x400
 8002aee:	9307      	str	r3, [sp, #28]
  DMA_InitStruct.DMA_Mode               = DMA_Mode_Circular;                 
 8002af0:	2320      	movs	r3, #32
 8002af2:	9308      	str	r3, [sp, #32]
  DMA_InitStruct.DMA_Priority           = DMA_Priority_Low;           
 8002af4:	9609      	str	r6, [sp, #36]	@ 0x24
  DMA_InitStruct.DMA_M2M                = DMA_M2M_Disable;              
 8002af6:	960a      	str	r6, [sp, #40]	@ 0x28
  DMA_Init(DMA1_Channel1,&DMA_InitStruct);
 8002af8:	4e12      	ldr	r6, [pc, #72]	@ (8002b44 <_ZN7ADC_DRV4InitEv+0x108>)
 8002afa:	4669      	mov	r1, sp
 8002afc:	4630      	mov	r0, r6
 8002afe:	f008 f93f 	bl	800ad80 <DMA_Init>
  DMA_Cmd(DMA1_Channel1,FunctionalState::ENABLE);
 8002b02:	4629      	mov	r1, r5
 8002b04:	4630      	mov	r0, r6
 8002b06:	f008 f9a3 	bl	800ae50 <DMA_Cmd>
  ADC_SoftwareStartConvCmd(ADC1,FunctionalState::ENABLE);
 8002b0a:	4629      	mov	r1, r5
 8002b0c:	4620      	mov	r0, r4
 8002b0e:	f007 ff96 	bl	800aa3e <ADC_SoftwareStartConvCmd>
  ADC_StartCalibration(ADC1);  // Extremely important
 8002b12:	4620      	mov	r0, r4
 8002b14:	f007 ff6d 	bl	800a9f2 <ADC_StartCalibration>
  while(ADC_GetCalibrationStatus(ADC1)==SET){
 8002b18:	f64f 74ff 	movw	r4, #65535	@ 0xffff
 8002b1c:	4d06      	ldr	r5, [pc, #24]	@ (8002b38 <_ZN7ADC_DRV4InitEv+0xfc>)
 8002b1e:	4628      	mov	r0, r5
 8002b20:	f007 ff76 	bl	800aa10 <ADC_GetCalibrationStatus>
 8002b24:	2801      	cmp	r0, #1
 8002b26:	d102      	bne.n	8002b2e <_ZN7ADC_DRV4InitEv+0xf2>
          if (timeout==0x0000FFFF) return ERROR;
 8002b28:	3c01      	subs	r4, #1
 8002b2a:	d1f8      	bne.n	8002b1e <_ZN7ADC_DRV4InitEv+0xe2>
 8002b2c:	2700      	movs	r7, #0
}
 8002b2e:	4638      	mov	r0, r7
 8002b30:	b011      	add	sp, #68	@ 0x44
 8002b32:	e8bd 83f0 	ldmia.w	sp!, {r4, r5, r6, r7, r8, r9, pc}
 8002b36:	bf00      	nop
 8002b38:	40012400 	.word	0x40012400
 8002b3c:	40020044 	.word	0x40020044
 8002b40:	4001244c 	.word	0x4001244c
 8002b44:	40020008 	.word	0x40020008

08002b48 <_ZN7ADC_DRVC1Ev>:
ADC_DRV::ADC_DRV() : ADC_Inputs{0} {
 8002b48:	b510      	push	{r4, lr}
 8002b4a:	4604      	mov	r4, r0
 8002b4c:	2300      	movs	r3, #0
 8002b4e:	6003      	str	r3, [r0, #0]
 8002b50:	8083      	strh	r3, [r0, #4]
    Init();
 8002b52:	f7ff ff73 	bl	8002a3c <_ZN7ADC_DRV4InitEv>
}
 8002b56:	4620      	mov	r0, r4
 8002b58:	bd10      	pop	{r4, pc}
	...

08002b5c <_ZN7ADC_DRV27Get_ADC_Specific_Input_DataE15ADC_Inputs_Enum>:

int16_t ADC_DRV::Get_ADC_Specific_Input_Data(ADC_Inputs_Enum Input_Type) {
 8002b5c:	b510      	push	{r4, lr}
  int16_t inputAfterConstant;
  switch(Input_Type) {
 8002b5e:	b1a9      	cbz	r1, 8002b8c <_ZN7ADC_DRV27Get_ADC_Specific_Input_DataE15ADC_Inputs_Enum+0x30>
 8002b60:	460c      	mov	r4, r1
 8002b62:	1e4b      	subs	r3, r1, #1
 8002b64:	b2db      	uxtb	r3, r3
 8002b66:	2b01      	cmp	r3, #1
 8002b68:	d814      	bhi.n	8002b94 <_ZN7ADC_DRV27Get_ADC_Specific_Input_DataE15ADC_Inputs_Enum+0x38>
    case ADC_In_Vin_Sense1:
    case ADC_In_Vin_Sense2:
      inputAfterConstant = (int16_t)((ADC_Inputs[Input_Type] - (1U<<11)) * ADC_Inputs_Constants[Input_Type]);
 8002b6a:	f830 0011 	ldrh.w	r0, [r0, r1, lsl #1]
 8002b6e:	f5a0 6000 	sub.w	r0, r0, #2048	@ 0x800
 8002b72:	f7ff fc6b 	bl	800244c <__aeabi_ui2d>
 8002b76:	4b08      	ldr	r3, [pc, #32]	@ (8002b98 <_ZN7ADC_DRV27Get_ADC_Specific_Input_DataE15ADC_Inputs_Enum+0x3c>)
 8002b78:	eb03 03c4 	add.w	r3, r3, r4, lsl #3
 8002b7c:	e9d3 2300 	ldrd	r2, r3, [r3]
 8002b80:	f7ff fcde 	bl	8002540 <__aeabi_dmul>
 8002b84:	f7ff feee 	bl	8002964 <__aeabi_d2iz>
 8002b88:	b200      	sxth	r0, r0
    default:
      inputAfterConstant = 0; 
  }
  
  return inputAfterConstant;
}
 8002b8a:	bd10      	pop	{r4, pc}
      inputAfterConstant = Thermistor::Format(ADC_Inputs[Input_Type]);
 8002b8c:	8800      	ldrh	r0, [r0, #0]
 8002b8e:	f001 ffd9 	bl	8004b44 <_ZN10Thermistor6FormatEt>
      break;
 8002b92:	e7fa      	b.n	8002b8a <_ZN7ADC_DRV27Get_ADC_Specific_Input_DataE15ADC_Inputs_Enum+0x2e>
  switch(Input_Type) {
 8002b94:	2000      	movs	r0, #0
 8002b96:	e7f8      	b.n	8002b8a <_ZN7ADC_DRV27Get_ADC_Specific_Input_DataE15ADC_Inputs_Enum+0x2e>
 8002b98:	0800c278 	.word	0x0800c278

08002b9c <_ZN6CB_Int13reorderGroupsEh>:
			CBs[CB_Index].Thermal_Const, CBs[CB_Index].Config.Over_Load_Limit,
			CBs[CB_Index].Config.Short_Circuit_Limit);
}

/* Function receives the last inserted index of groups array, and reordes it such that the switches are sorted by their grouping number */
void CB_Int::reorderGroups(uint8_t changed_index) {
 8002b9c:	b430      	push	{r4, r5}
	int i;
	uint8_t group_num = CBs[changed_index].GroupNum;
 8002b9e:	4b1b      	ldr	r3, [pc, #108]	@ (8002c0c <_ZN6CB_Int13reorderGroupsEh+0x70>)
 8002ba0:	eb03 1340 	add.w	r3, r3, r0, lsl #5
 8002ba4:	f893 c01a 	ldrb.w	ip, [r3, #26]
	for (i = 0; i < NUM_OF_CB && CB_Groups_Int[i] != changed_index; ++i)
 8002ba8:	4c19      	ldr	r4, [pc, #100]	@ (8002c10 <_ZN6CB_Int13reorderGroupsEh+0x74>)
	uint8_t group_num = CBs[changed_index].GroupNum;
 8002baa:	4622      	mov	r2, r4
	for (i = 0; i < NUM_OF_CB && CB_Groups_Int[i] != changed_index; ++i)
 8002bac:	2300      	movs	r3, #0
 8002bae:	f812 1b01 	ldrb.w	r1, [r2], #1
 8002bb2:	4281      	cmp	r1, r0
 8002bb4:	d003      	beq.n	8002bbe <_ZN6CB_Int13reorderGroupsEh+0x22>
 8002bb6:	3301      	adds	r3, #1
 8002bb8:	2b10      	cmp	r3, #16
 8002bba:	d1f8      	bne.n	8002bae <_ZN6CB_Int13reorderGroupsEh+0x12>
 8002bbc:	e00a      	b.n	8002bd4 <_ZN6CB_Int13reorderGroupsEh+0x38>
		;
	for (int k = i; k < NUM_OF_CB; ++k) {
 8002bbe:	2b0f      	cmp	r3, #15
 8002bc0:	dc08      	bgt.n	8002bd4 <_ZN6CB_Int13reorderGroupsEh+0x38>
 8002bc2:	4a13      	ldr	r2, [pc, #76]	@ (8002c10 <_ZN6CB_Int13reorderGroupsEh+0x74>)
 8002bc4:	4413      	add	r3, r2
 8002bc6:	f104 0110 	add.w	r1, r4, #16
		CB_Groups_Int[k] = CB_Groups_Int[k + 1];
 8002bca:	785a      	ldrb	r2, [r3, #1]
 8002bcc:	f803 2b01 	strb.w	r2, [r3], #1
	for (int k = i; k < NUM_OF_CB; ++k) {
 8002bd0:	428b      	cmp	r3, r1
 8002bd2:	d1fa      	bne.n	8002bca <_ZN6CB_Int13reorderGroupsEh+0x2e>
	for (i = 0; i < NUM_OF_CB && CB_Groups_Int[i] != changed_index; ++i)
 8002bd4:	4621      	mov	r1, r4
	}
	for (i = 0;
 8002bd6:	2200      	movs	r2, #0
			i < (NUM_OF_CB - 1) && CBs[CB_Groups_Int[i]].GroupNum < group_num;
 8002bd8:	4d0c      	ldr	r5, [pc, #48]	@ (8002c0c <_ZN6CB_Int13reorderGroupsEh+0x70>)
 8002bda:	f811 3b01 	ldrb.w	r3, [r1], #1
 8002bde:	eb05 1343 	add.w	r3, r5, r3, lsl #5
 8002be2:	7e9b      	ldrb	r3, [r3, #26]
 8002be4:	4563      	cmp	r3, ip
 8002be6:	d203      	bcs.n	8002bf0 <_ZN6CB_Int13reorderGroupsEh+0x54>
	for (i = 0;
 8002be8:	3201      	adds	r2, #1
			i < (NUM_OF_CB - 1) && CBs[CB_Groups_Int[i]].GroupNum < group_num;
 8002bea:	2a0f      	cmp	r2, #15
 8002bec:	d1f5      	bne.n	8002bda <_ZN6CB_Int13reorderGroupsEh+0x3e>
 8002bee:	e009      	b.n	8002c04 <_ZN6CB_Int13reorderGroupsEh+0x68>
			++i)
		;
	for (int k = NUM_OF_CB - 1; k > i; --k) {
 8002bf0:	2a0e      	cmp	r2, #14
 8002bf2:	dc07      	bgt.n	8002c04 <_ZN6CB_Int13reorderGroupsEh+0x68>
 8002bf4:	4b07      	ldr	r3, [pc, #28]	@ (8002c14 <_ZN6CB_Int13reorderGroupsEh+0x78>)
 8002bf6:	eb02 0c04 	add.w	ip, r2, r4
		CB_Groups_Int[k] = CB_Groups_Int[k - 1];
 8002bfa:	f813 1d01 	ldrb.w	r1, [r3, #-1]!
 8002bfe:	7059      	strb	r1, [r3, #1]
	for (int k = NUM_OF_CB - 1; k > i; --k) {
 8002c00:	4563      	cmp	r3, ip
 8002c02:	d1fa      	bne.n	8002bfa <_ZN6CB_Int13reorderGroupsEh+0x5e>
	}
	CB_Groups_Int[i] = changed_index;
 8002c04:	4b02      	ldr	r3, [pc, #8]	@ (8002c10 <_ZN6CB_Int13reorderGroupsEh+0x74>)
 8002c06:	5498      	strb	r0, [r3, r2]
}
 8002c08:	bc30      	pop	{r4, r5}
 8002c0a:	4770      	bx	lr
 8002c0c:	200001a0 	.word	0x200001a0
 8002c10:	20000000 	.word	0x20000000
 8002c14:	2000000f 	.word	0x2000000f

08002c18 <_ZN6CB_Int22firstAndLastPosOfGroupEhPhS0_>:

/* Function receives a group number and stores the first and last occurrences in the groups array */
void CB_Int::firstAndLastPosOfGroup(uint8_t group, uint8_t *first,
		uint8_t *last) {
 8002c18:	b430      	push	{r4, r5}
	*first = *last = 255;
 8002c1a:	23ff      	movs	r3, #255	@ 0xff
 8002c1c:	7013      	strb	r3, [r2, #0]
 8002c1e:	700b      	strb	r3, [r1, #0]
	for (uint8_t i = 0; i < NUM_OF_CB; ++i) {
 8002c20:	4c0c      	ldr	r4, [pc, #48]	@ (8002c54 <_ZN6CB_Int22firstAndLastPosOfGroupEhPhS0_+0x3c>)
 8002c22:	2300      	movs	r3, #0
		if (CBs[CB_Groups_Int[i]].GroupNum == group) {
 8002c24:	4d0c      	ldr	r5, [pc, #48]	@ (8002c58 <_ZN6CB_Int22firstAndLastPosOfGroupEhPhS0_+0x40>)
 8002c26:	e003      	b.n	8002c30 <_ZN6CB_Int22firstAndLastPosOfGroupEhPhS0_+0x18>
	for (uint8_t i = 0; i < NUM_OF_CB; ++i) {
 8002c28:	3301      	adds	r3, #1
 8002c2a:	b2db      	uxtb	r3, r3
 8002c2c:	2b10      	cmp	r3, #16
 8002c2e:	d00f      	beq.n	8002c50 <_ZN6CB_Int22firstAndLastPosOfGroupEhPhS0_+0x38>
		if (CBs[CB_Groups_Int[i]].GroupNum == group) {
 8002c30:	f814 cf01 	ldrb.w	ip, [r4, #1]!
 8002c34:	eb05 1c4c 	add.w	ip, r5, ip, lsl #5
 8002c38:	f89c c01a 	ldrb.w	ip, [ip, #26]
 8002c3c:	4584      	cmp	ip, r0
 8002c3e:	d1f3      	bne.n	8002c28 <_ZN6CB_Int22firstAndLastPosOfGroupEhPhS0_+0x10>
			if (*first == 255) {
 8002c40:	f891 c000 	ldrb.w	ip, [r1]
 8002c44:	f1bc 0fff 	cmp.w	ip, #255	@ 0xff
				*first = i;
 8002c48:	bf08      	it	eq
 8002c4a:	700b      	strbeq	r3, [r1, #0]
			}
			*last = i;
 8002c4c:	7013      	strb	r3, [r2, #0]
 8002c4e:	e7eb      	b.n	8002c28 <_ZN6CB_Int22firstAndLastPosOfGroupEhPhS0_+0x10>
		}
	}
}
 8002c50:	bc30      	pop	{r4, r5}
 8002c52:	4770      	bx	lr
 8002c54:	1fffffff 	.word	0x1fffffff
 8002c58:	200001a0 	.word	0x200001a0

08002c5c <_ZN6CB_Int6SelectEh>:
 }
 return grouped_switches_mask;

 }
 */
CB_Int* CB_Int::Select(uint8_t Index) {
 8002c5c:	b510      	push	{r4, lr}
 8002c5e:	4604      	mov	r4, r0
	if (!m_pInstance)   // Only allow one instance of class to be generated
 8002c60:	4b0c      	ldr	r3, [pc, #48]	@ (8002c94 <_ZN6CB_Int6SelectEh+0x38>)
 8002c62:	681b      	ldr	r3, [r3, #0]
 8002c64:	b123      	cbz	r3, 8002c70 <_ZN6CB_Int6SelectEh+0x14>
		m_pInstance = new CB_Int;
	CB_Index = Index;
 8002c66:	4b0c      	ldr	r3, [pc, #48]	@ (8002c98 <_ZN6CB_Int6SelectEh+0x3c>)
 8002c68:	701c      	strb	r4, [r3, #0]
	return m_pInstance;
}
 8002c6a:	4b0a      	ldr	r3, [pc, #40]	@ (8002c94 <_ZN6CB_Int6SelectEh+0x38>)
 8002c6c:	6818      	ldr	r0, [r3, #0]
 8002c6e:	bd10      	pop	{r4, pc}
		m_pInstance = new CB_Int;
 8002c70:	2028      	movs	r0, #40	@ 0x28
 8002c72:	f009 f941 	bl	800bef8 <_Znwj>
  ErrorStatus           HandleSetGroupLimits (uint16_t ThrmConst, uint16_t Overload, uint16_t CurrLimit);
  ErrorStatus           HandleSetSingleLimits(uint16_t ThrmConst, uint16_t Overload, uint16_t CurrLimit);
  /* 4-4.3.2 SET_GROUP */
  static ErrorStatus    handleSetGroup(uint8_t group, uint8_t* ChannelMask);
private:
  CB_Int() {};					// Private so that it can  not be called
 8002c76:	2300      	movs	r3, #0
 8002c78:	6003      	str	r3, [r0, #0]
 8002c7a:	6043      	str	r3, [r0, #4]
 8002c7c:	6083      	str	r3, [r0, #8]
 8002c7e:	60c3      	str	r3, [r0, #12]
 8002c80:	6103      	str	r3, [r0, #16]
 8002c82:	6143      	str	r3, [r0, #20]
 8002c84:	6183      	str	r3, [r0, #24]
 8002c86:	61c3      	str	r3, [r0, #28]
 8002c88:	6203      	str	r3, [r0, #32]
 8002c8a:	6243      	str	r3, [r0, #36]	@ 0x24
 8002c8c:	4b01      	ldr	r3, [pc, #4]	@ (8002c94 <_ZN6CB_Int6SelectEh+0x38>)
 8002c8e:	6018      	str	r0, [r3, #0]
 8002c90:	e7e9      	b.n	8002c66 <_ZN6CB_Int6SelectEh+0xa>
 8002c92:	bf00      	nop
 8002c94:	200003a8 	.word	0x200003a8
 8002c98:	200003a0 	.word	0x200003a0

08002c9c <_ZN6CB_Int12SelectOutputEh>:

CB_Int* CB_Int::SelectOutput(uint8_t output) {
 8002c9c:	b510      	push	{r4, lr}
 8002c9e:	4604      	mov	r4, r0
	if (!m_pInstance)   // Only allow one instance of class to be generated
 8002ca0:	4b13      	ldr	r3, [pc, #76]	@ (8002cf0 <_ZN6CB_Int12SelectOutputEh+0x54>)
 8002ca2:	681b      	ldr	r3, [r3, #0]
 8002ca4:	b173      	cbz	r3, 8002cc4 <_ZN6CB_Int12SelectOutputEh+0x28>
		m_pInstance = new CB_Int;
	for (int i = 0; i < NUM_OF_CB; ++i) {
 8002ca6:	4a13      	ldr	r2, [pc, #76]	@ (8002cf4 <_ZN6CB_Int12SelectOutputEh+0x58>)
 8002ca8:	2300      	movs	r3, #0
		if (IndexToCB[i] == output) {
 8002caa:	f812 1b01 	ldrb.w	r1, [r2], #1
 8002cae:	42a1      	cmp	r1, r4
 8002cb0:	d019      	beq.n	8002ce6 <_ZN6CB_Int12SelectOutputEh+0x4a>
	for (int i = 0; i < NUM_OF_CB; ++i) {
 8002cb2:	3301      	adds	r3, #1
 8002cb4:	2b10      	cmp	r3, #16
 8002cb6:	d1f8      	bne.n	8002caa <_ZN6CB_Int12SelectOutputEh+0xe>
			CB_Index = i;
			return m_pInstance;
		}
	}
	CB_Index = 0;
 8002cb8:	4b0f      	ldr	r3, [pc, #60]	@ (8002cf8 <_ZN6CB_Int12SelectOutputEh+0x5c>)
 8002cba:	2200      	movs	r2, #0
 8002cbc:	701a      	strb	r2, [r3, #0]
	return m_pInstance;
 8002cbe:	4b0c      	ldr	r3, [pc, #48]	@ (8002cf0 <_ZN6CB_Int12SelectOutputEh+0x54>)
 8002cc0:	6818      	ldr	r0, [r3, #0]
}
 8002cc2:	bd10      	pop	{r4, pc}
		m_pInstance = new CB_Int;
 8002cc4:	2028      	movs	r0, #40	@ 0x28
 8002cc6:	f009 f917 	bl	800bef8 <_Znwj>
 8002cca:	2300      	movs	r3, #0
 8002ccc:	6003      	str	r3, [r0, #0]
 8002cce:	6043      	str	r3, [r0, #4]
 8002cd0:	6083      	str	r3, [r0, #8]
 8002cd2:	60c3      	str	r3, [r0, #12]
 8002cd4:	6103      	str	r3, [r0, #16]
 8002cd6:	6143      	str	r3, [r0, #20]
 8002cd8:	6183      	str	r3, [r0, #24]
 8002cda:	61c3      	str	r3, [r0, #28]
 8002cdc:	6203      	str	r3, [r0, #32]
 8002cde:	6243      	str	r3, [r0, #36]	@ 0x24
 8002ce0:	4b03      	ldr	r3, [pc, #12]	@ (8002cf0 <_ZN6CB_Int12SelectOutputEh+0x54>)
 8002ce2:	6018      	str	r0, [r3, #0]
 8002ce4:	e7df      	b.n	8002ca6 <_ZN6CB_Int12SelectOutputEh+0xa>
			CB_Index = i;
 8002ce6:	4a04      	ldr	r2, [pc, #16]	@ (8002cf8 <_ZN6CB_Int12SelectOutputEh+0x5c>)
 8002ce8:	7013      	strb	r3, [r2, #0]
			return m_pInstance;
 8002cea:	4b01      	ldr	r3, [pc, #4]	@ (8002cf0 <_ZN6CB_Int12SelectOutputEh+0x54>)
 8002cec:	6818      	ldr	r0, [r3, #0]
 8002cee:	e7e8      	b.n	8002cc2 <_ZN6CB_Int12SelectOutputEh+0x26>
 8002cf0:	200003a8 	.word	0x200003a8
 8002cf4:	0800c310 	.word	0x0800c310
 8002cf8:	200003a0 	.word	0x200003a0

08002cfc <_ZN6CB_Int20getGroupOfSpecificCBEh>:
	return SUCCESS;
}

/* Function recieves a CB and return its current group */
uint8_t CB_Int::getGroupOfSpecificCB(uint8_t cb) {
	return CBs[cb].GroupNum;
 8002cfc:	4b02      	ldr	r3, [pc, #8]	@ (8002d08 <_ZN6CB_Int20getGroupOfSpecificCBEh+0xc>)
 8002cfe:	eb03 1340 	add.w	r3, r3, r0, lsl #5
}
 8002d02:	7e98      	ldrb	r0, [r3, #26]
 8002d04:	4770      	bx	lr
 8002d06:	bf00      	nop
 8002d08:	200001a0 	.word	0x200001a0

08002d0c <_ZN6CB_Int22HandleGetStatusSWStateEv>:
 Intent: Sub-function for the GET_STATUS message
 Description: Reading for each physical state of the output switches
 */
uint_cb CB_Int::HandleGetStatusSWState() {
	uint_cb state = 0;
	for (int i = 0; i < NUM_OF_CB; ++i) {
 8002d0c:	2200      	movs	r2, #0
	uint_cb state = 0;
 8002d0e:	4610      	mov	r0, r2
		state |= ((CBs[i].Meas_Status.SW) << i);
 8002d10:	4906      	ldr	r1, [pc, #24]	@ (8002d2c <_ZN6CB_Int22HandleGetStatusSWStateEv+0x20>)
 8002d12:	eb01 1342 	add.w	r3, r1, r2, lsl #5
 8002d16:	7a1b      	ldrb	r3, [r3, #8]
 8002d18:	f3c3 0340 	ubfx	r3, r3, #1, #1
 8002d1c:	4093      	lsls	r3, r2
 8002d1e:	4318      	orrs	r0, r3
 8002d20:	b280      	uxth	r0, r0
	for (int i = 0; i < NUM_OF_CB; ++i) {
 8002d22:	3201      	adds	r2, #1
 8002d24:	2a10      	cmp	r2, #16
 8002d26:	d1f4      	bne.n	8002d12 <_ZN6CB_Int22HandleGetStatusSWStateEv+0x6>
	}
	return state;
}
 8002d28:	4770      	bx	lr
 8002d2a:	bf00      	nop
 8002d2c:	200001a0 	.word	0x200001a0

08002d30 <_ZN6CB_Int20HandleGetStatusSWCmdEv>:
 Intent: Sub-function for the GET_STATUS message
 Description: Reading for last command or automatic setting for each of the output switches
 */
uint_cb CB_Int::HandleGetStatusSWCmd() {
	uint_cb cmd = 0;
	for (int i = 0; i < NUM_OF_CB; ++i)
 8002d30:	2200      	movs	r2, #0
	uint_cb cmd = 0;
 8002d32:	4610      	mov	r0, r2
		cmd |= ((CBs[i].Control.EN & 0x01) << i);
 8002d34:	4906      	ldr	r1, [pc, #24]	@ (8002d50 <_ZN6CB_Int20HandleGetStatusSWCmdEv+0x20>)
 8002d36:	eb01 1342 	add.w	r3, r1, r2, lsl #5
 8002d3a:	7c1b      	ldrb	r3, [r3, #16]
 8002d3c:	f003 0301 	and.w	r3, r3, #1
 8002d40:	4093      	lsls	r3, r2
 8002d42:	4318      	orrs	r0, r3
 8002d44:	b280      	uxth	r0, r0
	for (int i = 0; i < NUM_OF_CB; ++i)
 8002d46:	3201      	adds	r2, #1
 8002d48:	2a10      	cmp	r2, #16
 8002d4a:	d1f4      	bne.n	8002d36 <_ZN6CB_Int20HandleGetStatusSWCmdEv+0x6>
	return cmd;
}
 8002d4c:	4770      	bx	lr
 8002d4e:	bf00      	nop
 8002d50:	200001a0 	.word	0x200001a0

08002d54 <_ZN6CB_Int23HandleGetStatusTripStatEPh>:

/*
 Intent: Sub-function for the GET_STATUS message
 Description: Trip status for each of the outputs
 */
void CB_Int::HandleGetStatusTripStat(uint8_t *trip_stat) {
 8002d54:	b530      	push	{r4, r5, lr}
	for (int i = 0; i < NUM_OF_CB; ++i)
 8002d56:	4916      	ldr	r1, [pc, #88]	@ (8002db0 <_ZN6CB_Int23HandleGetStatusTripStatEPh+0x5c>)
 8002d58:	2200      	movs	r2, #0
			trip_stat[i] =
					CBs[i].Meas_Status.ERR_Short ?
							0x2 : CBs[i].Meas_Status.TRIP; // short circuit is 1 bits, so if it is on, place 2 according to the opcode docs
		else
			trip_stat[i] =
					Groups[CBs[i].GroupNum - 1].Meas_Status.ERR_Short ?
 8002d5a:	4c16      	ldr	r4, [pc, #88]	@ (8002db4 <_ZN6CB_Int23HandleGetStatusTripStatEPh+0x60>)
			trip_stat[i] =
 8002d5c:	f04f 0e02 	mov.w	lr, #2
					CBs[i].Meas_Status.ERR_Short ?
 8002d60:	460d      	mov	r5, r1
 8002d62:	e014      	b.n	8002d8e <_ZN6CB_Int23HandleGetStatusTripStatEPh+0x3a>
 8002d64:	eb05 1342 	add.w	r3, r5, r2, lsl #5
 8002d68:	7a1b      	ldrb	r3, [r3, #8]
			trip_stat[i] =
 8002d6a:	f013 0f08 	tst.w	r3, #8
							0x2 : CBs[i].Meas_Status.TRIP; // short circuit is 1 bits, so if it is on, place 2 according to the opcode docs
 8002d6e:	bf03      	ittte	eq
 8002d70:	eb05 1342 	addeq.w	r3, r5, r2, lsl #5
 8002d74:	7a1b      	ldrbeq	r3, [r3, #8]
			trip_stat[i] =
 8002d76:	f3c3 0380 	ubfxeq	r3, r3, #2, #1
 8002d7a:	4673      	movne	r3, lr
 8002d7c:	7003      	strb	r3, [r0, #0]
 8002d7e:	e001      	b.n	8002d84 <_ZN6CB_Int23HandleGetStatusTripStatEPh+0x30>
			trip_stat[i] =
 8002d80:	4673      	mov	r3, lr
 8002d82:	7003      	strb	r3, [r0, #0]
	for (int i = 0; i < NUM_OF_CB; ++i)
 8002d84:	3201      	adds	r2, #1
 8002d86:	3120      	adds	r1, #32
 8002d88:	3001      	adds	r0, #1
 8002d8a:	2a10      	cmp	r2, #16
 8002d8c:	d00f      	beq.n	8002dae <_ZN6CB_Int23HandleGetStatusTripStatEPh+0x5a>
		if (CBs[i].GroupNum == 255)
 8002d8e:	7e8b      	ldrb	r3, [r1, #26]
 8002d90:	2bff      	cmp	r3, #255	@ 0xff
 8002d92:	d0e7      	beq.n	8002d64 <_ZN6CB_Int23HandleGetStatusTripStatEPh+0x10>
					Groups[CBs[i].GroupNum - 1].Meas_Status.ERR_Short ?
 8002d94:	3b01      	subs	r3, #1
 8002d96:	ebc3 0cc3 	rsb	ip, r3, r3, lsl #3
 8002d9a:	eb04 0c8c 	add.w	ip, r4, ip, lsl #2
 8002d9e:	f89c c006 	ldrb.w	ip, [ip, #6]
			trip_stat[i] =
 8002da2:	f01c 0f08 	tst.w	ip, #8
 8002da6:	d1eb      	bne.n	8002d80 <_ZN6CB_Int23HandleGetStatusTripStatEPh+0x2c>
 8002da8:	f3cc 0380 	ubfx	r3, ip, #2, #1
 8002dac:	e7e9      	b.n	8002d82 <_ZN6CB_Int23HandleGetStatusTripStatEPh+0x2e>
							0x2 : Groups[CBs[i].GroupNum - 1].Meas_Status.TRIP;

	return;
}
 8002dae:	bd30      	pop	{r4, r5, pc}
 8002db0:	200001a0 	.word	0x200001a0
 8002db4:	200000c0 	.word	0x200000c0

08002db8 <_ZN6CB_Int22HandleGetStatusBtlModeEv>:

/*
 Intent: Sub-function for the GET_STATUS message
 Description: Battle mode status for each output.
 */
uint_cb CB_Int::HandleGetStatusBtlMode() {
 8002db8:	b430      	push	{r4, r5}
	uint_cb battle_mode = 0;
	for (int i = 0; i < NUM_OF_CB; ++i)
 8002dba:	4914      	ldr	r1, [pc, #80]	@ (8002e0c <_ZN6CB_Int22HandleGetStatusBtlModeEv+0x54>)
 8002dbc:	2200      	movs	r2, #0
	uint_cb battle_mode = 0;
 8002dbe:	4610      	mov	r0, r2
		if (CBs[i].GroupNum == 255)
			battle_mode |= ((CBs[i].Control.Battel_Override == 0xD) << i);
		else
			battle_mode |= ((Groups[CBs[i].GroupNum - 1].Control.Battel_Override
 8002dc0:	4c13      	ldr	r4, [pc, #76]	@ (8002e10 <_ZN6CB_Int22HandleGetStatusBtlModeEv+0x58>)
			battle_mode |= ((CBs[i].Control.Battel_Override == 0xD) << i);
 8002dc2:	460d      	mov	r5, r1
 8002dc4:	e011      	b.n	8002dea <_ZN6CB_Int22HandleGetStatusBtlModeEv+0x32>
			battle_mode |= ((Groups[CBs[i].GroupNum - 1].Control.Battel_Override
 8002dc6:	3b01      	subs	r3, #1
 8002dc8:	ebc3 03c3 	rsb	r3, r3, r3, lsl #3
 8002dcc:	eb04 0383 	add.w	r3, r4, r3, lsl #2
 8002dd0:	7b1b      	ldrb	r3, [r3, #12]
					== 0xD) << i);
 8002dd2:	091b      	lsrs	r3, r3, #4
 8002dd4:	2b0d      	cmp	r3, #13
 8002dd6:	bf14      	ite	ne
 8002dd8:	2300      	movne	r3, #0
 8002dda:	2301      	moveq	r3, #1
 8002ddc:	4093      	lsls	r3, r2
			battle_mode |= ((Groups[CBs[i].GroupNum - 1].Control.Battel_Override
 8002dde:	4303      	orrs	r3, r0
 8002de0:	b298      	uxth	r0, r3
	for (int i = 0; i < NUM_OF_CB; ++i)
 8002de2:	3201      	adds	r2, #1
 8002de4:	3120      	adds	r1, #32
 8002de6:	2a10      	cmp	r2, #16
 8002de8:	d00e      	beq.n	8002e08 <_ZN6CB_Int22HandleGetStatusBtlModeEv+0x50>
		if (CBs[i].GroupNum == 255)
 8002dea:	7e8b      	ldrb	r3, [r1, #26]
 8002dec:	2bff      	cmp	r3, #255	@ 0xff
 8002dee:	d1ea      	bne.n	8002dc6 <_ZN6CB_Int22HandleGetStatusBtlModeEv+0xe>
			battle_mode |= ((CBs[i].Control.Battel_Override == 0xD) << i);
 8002df0:	eb05 1342 	add.w	r3, r5, r2, lsl #5
 8002df4:	7c1b      	ldrb	r3, [r3, #16]
 8002df6:	091b      	lsrs	r3, r3, #4
 8002df8:	2b0d      	cmp	r3, #13
 8002dfa:	bf14      	ite	ne
 8002dfc:	2300      	movne	r3, #0
 8002dfe:	2301      	moveq	r3, #1
 8002e00:	4093      	lsls	r3, r2
 8002e02:	4303      	orrs	r3, r0
 8002e04:	b298      	uxth	r0, r3
 8002e06:	e7ec      	b.n	8002de2 <_ZN6CB_Int22HandleGetStatusBtlModeEv+0x2a>
	return battle_mode;
}
 8002e08:	bc30      	pop	{r4, r5}
 8002e0a:	4770      	bx	lr
 8002e0c:	200001a0 	.word	0x200001a0
 8002e10:	200000c0 	.word	0x200000c0

08002e14 <_ZN6CB_Int22HandleGetStatusOutVoltEPs>:
/*
 Intent: Sub-function for the GET_STATUS message
 Description: Output voltage reading for each channel
 */
void CB_Int::HandleGetStatusOutVolt(int16_t *out_volt) {
	for (int i = 0; i < NUM_OF_CB; ++i)
 8002e14:	4b05      	ldr	r3, [pc, #20]	@ (8002e2c <_ZN6CB_Int22HandleGetStatusOutVoltEPs+0x18>)
 8002e16:	3802      	subs	r0, #2
 8002e18:	f503 7100 	add.w	r1, r3, #512	@ 0x200
		out_volt[i] = CBs[i].Meas_Voltage;
 8002e1c:	889a      	ldrh	r2, [r3, #4]
 8002e1e:	f820 2f02 	strh.w	r2, [r0, #2]!
	for (int i = 0; i < NUM_OF_CB; ++i)
 8002e22:	3320      	adds	r3, #32
 8002e24:	428b      	cmp	r3, r1
 8002e26:	d1f9      	bne.n	8002e1c <_ZN6CB_Int22HandleGetStatusOutVoltEPs+0x8>
	return;
}
 8002e28:	4770      	bx	lr
 8002e2a:	bf00      	nop
 8002e2c:	200001a0 	.word	0x200001a0

08002e30 <_ZN6CB_Int22HandleGetStatusOutCurrEPs>:
/*
 Intent: Sub-function for the GET_STATUS message
 Description: Current reading for each output
 */
void CB_Int::HandleGetStatusOutCurr(int16_t *out_cur) {
	for (int i = 0; i < NUM_OF_CB; ++i)
 8002e30:	3802      	subs	r0, #2
void CB_Int::HandleGetStatusOutCurr(int16_t *out_cur) {
 8002e32:	2300      	movs	r3, #0
		out_cur[i] = CBs[i].Meas_Current;
 8002e34:	4904      	ldr	r1, [pc, #16]	@ (8002e48 <_ZN6CB_Int22HandleGetStatusOutCurrEPs+0x18>)
 8002e36:	f831 2013 	ldrh.w	r2, [r1, r3, lsl #1]
 8002e3a:	f820 2f02 	strh.w	r2, [r0, #2]!
	for (int i = 0; i < NUM_OF_CB; ++i)
 8002e3e:	3310      	adds	r3, #16
 8002e40:	f5b3 7f80 	cmp.w	r3, #256	@ 0x100
 8002e44:	d1f7      	bne.n	8002e36 <_ZN6CB_Int22HandleGetStatusOutCurrEPs+0x6>
	return;
}
 8002e46:	4770      	bx	lr
 8002e48:	200001a0 	.word	0x200001a0

08002e4c <_ZN6CB_Int21HandleSetSingleOutputE7CB_En_t>:
/*
 Intent: Sub-function for the SET_OUTPUT message
 Description: Details which specific output to activate/deactivate.
 */
void CB_Int::HandleSetSingleOutput(CB_En_t val) {
	CBs[CB_Index].Control.EN = val;
 8002e4c:	4b04      	ldr	r3, [pc, #16]	@ (8002e60 <_ZN6CB_Int21HandleSetSingleOutputE7CB_En_t+0x14>)
 8002e4e:	781a      	ldrb	r2, [r3, #0]
 8002e50:	4b04      	ldr	r3, [pc, #16]	@ (8002e64 <_ZN6CB_Int21HandleSetSingleOutputE7CB_En_t+0x18>)
 8002e52:	eb03 1342 	add.w	r3, r3, r2, lsl #5
 8002e56:	7c1a      	ldrb	r2, [r3, #16]
 8002e58:	f361 0201 	bfi	r2, r1, #0, #2
 8002e5c:	741a      	strb	r2, [r3, #16]
	return;
}
 8002e5e:	4770      	bx	lr
 8002e60:	200003a0 	.word	0x200003a0
 8002e64:	200001a0 	.word	0x200001a0

08002e68 <_ZN6CB_Int12ToggelOutputEv>:
 Intent: Sub-function for the Toggel_OUTPUT message
 Description: Details which specific output to activate/deactivate.
 */
void CB_Int::ToggelOutput() {
	CBs[CB_Index].Control.EN =
			CBs[CB_Index].Control.EN == CB_CONTROL_EN ?
 8002e68:	4b07      	ldr	r3, [pc, #28]	@ (8002e88 <_ZN6CB_Int12ToggelOutputEv+0x20>)
 8002e6a:	781b      	ldrb	r3, [r3, #0]
	CBs[CB_Index].Control.EN =
 8002e6c:	4a07      	ldr	r2, [pc, #28]	@ (8002e8c <_ZN6CB_Int12ToggelOutputEv+0x24>)
 8002e6e:	eb02 1243 	add.w	r2, r2, r3, lsl #5
			CBs[CB_Index].Control.EN == CB_CONTROL_EN ?
 8002e72:	7c13      	ldrb	r3, [r2, #16]
 8002e74:	f003 0103 	and.w	r1, r3, #3
 8002e78:	3901      	subs	r1, #1
 8002e7a:	bf18      	it	ne
 8002e7c:	2101      	movne	r1, #1
	CBs[CB_Index].Control.EN =
 8002e7e:	f361 0301 	bfi	r3, r1, #0, #2
 8002e82:	7413      	strb	r3, [r2, #16]
					CB_CONTROL_DIS : CB_CONTROL_EN;
	return;
}
 8002e84:	4770      	bx	lr
 8002e86:	bf00      	nop
 8002e88:	200003a0 	.word	0x200003a0
 8002e8c:	200001a0 	.word	0x200001a0

08002e90 <_ZN6CB_Int20HandleSetGroupOutputE7CB_En_t>:

/*
 Intent: Sub-function for the SET_OUTPUT message
 Description: Details which specific outputs inside of a group to activate/deactivate.
 */
void CB_Int::HandleSetGroupOutput(CB_En_t val) {
 8002e90:	b570      	push	{r4, r5, r6, lr}
 8002e92:	b082      	sub	sp, #8
 8002e94:	460c      	mov	r4, r1
	uint8_t min = 0, max = 0;
 8002e96:	2300      	movs	r3, #0
 8002e98:	f88d 3007 	strb.w	r3, [sp, #7]
	CB_Int::firstAndLastPosOfGroup(CB_Index, &min, &max);
 8002e9c:	4b1e      	ldr	r3, [pc, #120]	@ (8002f18 <_ZN6CB_Int20HandleSetGroupOutputE7CB_En_t+0x88>)
 8002e9e:	781d      	ldrb	r5, [r3, #0]
 8002ea0:	f10d 0206 	add.w	r2, sp, #6
 8002ea4:	f10d 0107 	add.w	r1, sp, #7
 8002ea8:	4628      	mov	r0, r5
 8002eaa:	f7ff feb5 	bl	8002c18 <_ZN6CB_Int22firstAndLastPosOfGroupEhPhS0_>
	if (min >= NUM_OF_CB)
 8002eae:	f89d 3007 	ldrb.w	r3, [sp, #7]
 8002eb2:	2b0f      	cmp	r3, #15
 8002eb4:	d81e      	bhi.n	8002ef4 <_ZN6CB_Int20HandleSetGroupOutputE7CB_En_t+0x64>
		return;
	if (Groups[CB_Index - 1].Meas_Status.TRIP == 1
 8002eb6:	3d01      	subs	r5, #1
 8002eb8:	ebc5 01c5 	rsb	r1, r5, r5, lsl #3
 8002ebc:	4a17      	ldr	r2, [pc, #92]	@ (8002f1c <_ZN6CB_Int20HandleSetGroupOutputE7CB_En_t+0x8c>)
 8002ebe:	eb02 0281 	add.w	r2, r2, r1, lsl #2
 8002ec2:	7992      	ldrb	r2, [r2, #6]
 8002ec4:	f012 0f04 	tst.w	r2, #4
 8002ec8:	d116      	bne.n	8002ef8 <_ZN6CB_Int20HandleSetGroupOutputE7CB_En_t+0x68>
			&& val == CB_En_t::CB_CONTROL_EN)
		return;
	for (uint8_t i = min; i <= max; ++i)
 8002eca:	f89d 1006 	ldrb.w	r1, [sp, #6]
 8002ece:	428b      	cmp	r3, r1
 8002ed0:	d80e      	bhi.n	8002ef0 <_ZN6CB_Int20HandleSetGroupOutputE7CB_En_t+0x60>
		CBs[CB_Groups_Int[i]].Control.EN = val;
 8002ed2:	4e13      	ldr	r6, [pc, #76]	@ (8002f20 <_ZN6CB_Int20HandleSetGroupOutputE7CB_En_t+0x90>)
 8002ed4:	4813      	ldr	r0, [pc, #76]	@ (8002f24 <_ZN6CB_Int20HandleSetGroupOutputE7CB_En_t+0x94>)
 8002ed6:	5cc2      	ldrb	r2, [r0, r3]
 8002ed8:	eb06 1242 	add.w	r2, r6, r2, lsl #5
 8002edc:	f892 c010 	ldrb.w	ip, [r2, #16]
 8002ee0:	f364 0c01 	bfi	ip, r4, #0, #2
 8002ee4:	f882 c010 	strb.w	ip, [r2, #16]
	for (uint8_t i = min; i <= max; ++i)
 8002ee8:	3301      	adds	r3, #1
 8002eea:	b2db      	uxtb	r3, r3
 8002eec:	4299      	cmp	r1, r3
 8002eee:	d2f2      	bcs.n	8002ed6 <_ZN6CB_Int20HandleSetGroupOutputE7CB_En_t+0x46>
	if (val == CB_CONTROL_EN)
 8002ef0:	2c01      	cmp	r4, #1
 8002ef2:	d008      	beq.n	8002f06 <_ZN6CB_Int20HandleSetGroupOutputE7CB_En_t+0x76>
		Groups[CB_Index - 1].LastTurnOn = getTimerTicks();
	return;
}
 8002ef4:	b002      	add	sp, #8
 8002ef6:	bd70      	pop	{r4, r5, r6, pc}
			&& val == CB_En_t::CB_CONTROL_EN)
 8002ef8:	2c01      	cmp	r4, #1
 8002efa:	d0fb      	beq.n	8002ef4 <_ZN6CB_Int20HandleSetGroupOutputE7CB_En_t+0x64>
	for (uint8_t i = min; i <= max; ++i)
 8002efc:	f89d 1006 	ldrb.w	r1, [sp, #6]
 8002f00:	428b      	cmp	r3, r1
 8002f02:	d9e6      	bls.n	8002ed2 <_ZN6CB_Int20HandleSetGroupOutputE7CB_En_t+0x42>
 8002f04:	e7f6      	b.n	8002ef4 <_ZN6CB_Int20HandleSetGroupOutputE7CB_En_t+0x64>
		Groups[CB_Index - 1].LastTurnOn = getTimerTicks();
 8002f06:	f007 f9e3 	bl	800a2d0 <getTimerTicks>
 8002f0a:	ebc5 05c5 	rsb	r5, r5, r5, lsl #3
 8002f0e:	4b03      	ldr	r3, [pc, #12]	@ (8002f1c <_ZN6CB_Int20HandleSetGroupOutputE7CB_En_t+0x8c>)
 8002f10:	eb03 0385 	add.w	r3, r3, r5, lsl #2
 8002f14:	6198      	str	r0, [r3, #24]
 8002f16:	e7ed      	b.n	8002ef4 <_ZN6CB_Int20HandleSetGroupOutputE7CB_En_t+0x64>
 8002f18:	200003a0 	.word	0x200003a0
 8002f1c:	200000c0 	.word	0x200000c0
 8002f20:	200001a0 	.word	0x200001a0
 8002f24:	20000000 	.word	0x20000000

08002f28 <_ZN6CB_Int21HandleSingleTripResetEv>:
/*
 Intent: Sub-function for the TRIP_RESET message
 Description: Details which specific channel to reset.
 */
void CB_Int::HandleSingleTripReset(void) {
	CBs[CB_Index].Control.EN = CB_En_t::CB_CONTROL_TRIPRST;
 8002f28:	4b08      	ldr	r3, [pc, #32]	@ (8002f4c <_ZN6CB_Int21HandleSingleTripResetEv+0x24>)
 8002f2a:	781a      	ldrb	r2, [r3, #0]
 8002f2c:	4b08      	ldr	r3, [pc, #32]	@ (8002f50 <_ZN6CB_Int21HandleSingleTripResetEv+0x28>)
 8002f2e:	eb03 1342 	add.w	r3, r3, r2, lsl #5
 8002f32:	7c1a      	ldrb	r2, [r3, #16]
 8002f34:	2102      	movs	r1, #2
 8002f36:	f361 0201 	bfi	r2, r1, #0, #2
 8002f3a:	741a      	strb	r2, [r3, #16]
	CBs[CB_Index].Meas_Status.TRIP = 0;
 8002f3c:	7a1a      	ldrb	r2, [r3, #8]
	CBs[CB_Index].Meas_Status.ERR_Short = 0;
 8002f3e:	f002 02fb 	and.w	r2, r2, #251	@ 0xfb
 8002f42:	f36f 02c3 	bfc	r2, #3, #1
 8002f46:	721a      	strb	r2, [r3, #8]
	return;
}
 8002f48:	4770      	bx	lr
 8002f4a:	bf00      	nop
 8002f4c:	200003a0 	.word	0x200003a0
 8002f50:	200001a0 	.word	0x200001a0

08002f54 <_ZN6CB_Int20HandleGroupTripResetEv>:
/*
 Intent: Sub-function for the TRIP_RESET message
 Description: Details which specific channels inside of a group to reset.
 */
void CB_Int::HandleGroupTripReset(void) {
	Groups[CB_Index - 1].Meas_Status.TRIP = 0;
 8002f54:	4b09      	ldr	r3, [pc, #36]	@ (8002f7c <_ZN6CB_Int20HandleGroupTripResetEv+0x28>)
 8002f56:	781b      	ldrb	r3, [r3, #0]
 8002f58:	3b01      	subs	r3, #1
 8002f5a:	4a09      	ldr	r2, [pc, #36]	@ (8002f80 <_ZN6CB_Int20HandleGroupTripResetEv+0x2c>)
 8002f5c:	ebc3 01c3 	rsb	r1, r3, r3, lsl #3
 8002f60:	eb02 0181 	add.w	r1, r2, r1, lsl #2
 8002f64:	7989      	ldrb	r1, [r1, #6]
	Groups[CB_Index - 1].Meas_Status.ERR_Short = 0;
 8002f66:	ebc3 03c3 	rsb	r3, r3, r3, lsl #3
 8002f6a:	eb02 0283 	add.w	r2, r2, r3, lsl #2
 8002f6e:	f001 03fb 	and.w	r3, r1, #251	@ 0xfb
 8002f72:	f36f 03c3 	bfc	r3, #3, #1
 8002f76:	7193      	strb	r3, [r2, #6]
	return;
}
 8002f78:	4770      	bx	lr
 8002f7a:	bf00      	nop
 8002f7c:	200003a0 	.word	0x200003a0
 8002f80:	200000c0 	.word	0x200000c0

08002f84 <_ZN6CB_Int21HandleSetSingleBattleEh>:
/*
 Intent: Sub-function for the SET_BATTLE message
 Description: Details which specific channel to be affected, and actual required command for the selected output
 */
void CB_Int::HandleSetSingleBattle(uint8_t val) {
	CBs[CB_Index].Control.Battel_Override = val;
 8002f84:	4b04      	ldr	r3, [pc, #16]	@ (8002f98 <_ZN6CB_Int21HandleSetSingleBattleEh+0x14>)
 8002f86:	781a      	ldrb	r2, [r3, #0]
 8002f88:	4b04      	ldr	r3, [pc, #16]	@ (8002f9c <_ZN6CB_Int21HandleSetSingleBattleEh+0x18>)
 8002f8a:	eb03 1342 	add.w	r3, r3, r2, lsl #5
 8002f8e:	7c1a      	ldrb	r2, [r3, #16]
 8002f90:	f361 1207 	bfi	r2, r1, #4, #4
 8002f94:	741a      	strb	r2, [r3, #16]
	return;
}
 8002f96:	4770      	bx	lr
 8002f98:	200003a0 	.word	0x200003a0
 8002f9c:	200001a0 	.word	0x200001a0

08002fa0 <_ZN6CB_Int20HandleSetGroupBattleEh>:
/*
 Intent: Sub-function for the SET_BATTLE message
 Description: Details which specific channels to be affected and the actual required command for each selected output
 */
void CB_Int::HandleSetGroupBattle(uint8_t val) {
	Groups[CB_Index - 1].Control.Battel_Override = val;
 8002fa0:	4b06      	ldr	r3, [pc, #24]	@ (8002fbc <_ZN6CB_Int20HandleSetGroupBattleEh+0x1c>)
 8002fa2:	781b      	ldrb	r3, [r3, #0]
 8002fa4:	3b01      	subs	r3, #1
 8002fa6:	ebc3 03c3 	rsb	r3, r3, r3, lsl #3
 8002faa:	4a05      	ldr	r2, [pc, #20]	@ (8002fc0 <_ZN6CB_Int20HandleSetGroupBattleEh+0x20>)
 8002fac:	eb02 0383 	add.w	r3, r2, r3, lsl #2
 8002fb0:	7b1a      	ldrb	r2, [r3, #12]
 8002fb2:	f361 1207 	bfi	r2, r1, #4, #4
 8002fb6:	731a      	strb	r2, [r3, #12]
	return;
}
 8002fb8:	4770      	bx	lr
 8002fba:	bf00      	nop
 8002fbc:	200003a0 	.word	0x200003a0
 8002fc0:	200000c0 	.word	0x200000c0

08002fc4 <_ZN6CB_Int23Update_CB_ConfigurationEPK12Raw_Config_t>:
	return ErrorStatus::SUCCESS;
}

/* This function should config specific switch according to the firmware */
void CB_Int::Update_CB_Configuration(const Raw_Config_t *pConfig) {
	if (pConfig) {
 8002fc4:	2900      	cmp	r1, #0
 8002fc6:	d03e      	beq.n	8003046 <_ZN6CB_Int23Update_CB_ConfigurationEPK12Raw_Config_t+0x82>
void CB_Int::Update_CB_Configuration(const Raw_Config_t *pConfig) {
 8002fc8:	b510      	push	{r4, lr}
 8002fca:	460a      	mov	r2, r1
		CBs[CB_Int::CB_Index].Config.Over_Load_Limit =
				(pConfig->Over_Load_Limit
						> output_max_overload_current[CB_Int::CB_Index]) ?
 8002fcc:	4b1e      	ldr	r3, [pc, #120]	@ (8003048 <_ZN6CB_Int23Update_CB_ConfigurationEPK12Raw_Config_t+0x84>)
 8002fce:	7818      	ldrb	r0, [r3, #0]
		CBs[CB_Int::CB_Index].Config.Over_Load_Limit =
 8002fd0:	4b1e      	ldr	r3, [pc, #120]	@ (800304c <_ZN6CB_Int23Update_CB_ConfigurationEPK12Raw_Config_t+0x88>)
 8002fd2:	eb03 1340 	add.w	r3, r3, r0, lsl #5
 8002fd6:	f103 0110 	add.w	r1, r3, #16
 8002fda:	f8b2 c000 	ldrh.w	ip, [r2]
 8002fde:	4c1c      	ldr	r4, [pc, #112]	@ (8003050 <_ZN6CB_Int23Update_CB_ConfigurationEPK12Raw_Config_t+0x8c>)
 8002fe0:	f834 e010 	ldrh.w	lr, [r4, r0, lsl #1]
 8002fe4:	45f4      	cmp	ip, lr
 8002fe6:	bf28      	it	cs
 8002fe8:	46f4      	movcs	ip, lr
 8002fea:	f8a3 c011 	strh.w	ip, [r3, #17]
						output_max_overload_current[CB_Int::CB_Index] :
						pConfig->Over_Load_Limit;
		CBs[CB_Int::CB_Index].Config.Short_Circuit_Limit =
				pConfig->Current_Limit;
 8002fee:	f8b2 c002 	ldrh.w	ip, [r2, #2]
		CBs[CB_Int::CB_Index].Config.Short_Circuit_Limit =
 8002ff2:	f8a3 c016 	strh.w	ip, [r3, #22]
		CBs[CB_Int::CB_Index].Thermal_Const = pConfig->Thermal_Const;
 8002ff6:	f8b2 c004 	ldrh.w	ip, [r2, #4]
 8002ffa:	f8a3 c018 	strh.w	ip, [r3, #24]
		CBs[CB_Int::CB_Index].GroupNum = pConfig->GroupNum;
 8002ffe:	f892 c006 	ldrb.w	ip, [r2, #6]
 8003002:	f883 c01a 	strb.w	ip, [r3, #26]
		CBs[CB_Int::CB_Index].Config.I2T_Limit = (pConfig->Over_Load_Limit)
 8003006:	8813      	ldrh	r3, [r2, #0]
				* (pConfig->Over_Load_Limit) * (pConfig->Thermal_Const) * 16
 8003008:	fb03 f303 	mul.w	r3, r3, r3
 800300c:	8892      	ldrh	r2, [r2, #4]
 800300e:	fb02 f303 	mul.w	r3, r2, r3
 8003012:	011b      	lsls	r3, r3, #4
				/ 1000;
 8003014:	4a0f      	ldr	r2, [pc, #60]	@ (8003054 <_ZN6CB_Int23Update_CB_ConfigurationEPK12Raw_Config_t+0x90>)
 8003016:	fb82 4203 	smull	r4, r2, r2, r3
 800301a:	17db      	asrs	r3, r3, #31
 800301c:	ebc3 13a2 	rsb	r3, r3, r2, asr #6
		CBs[CB_Int::CB_Index].Config.I2T_Limit = (pConfig->Over_Load_Limit)
 8003020:	70cb      	strb	r3, [r1, #3]
 8003022:	f3c3 2207 	ubfx	r2, r3, #8, #8
 8003026:	710a      	strb	r2, [r1, #4]
 8003028:	f3c3 4307 	ubfx	r3, r3, #16, #8
 800302c:	714b      	strb	r3, [r1, #5]
		if (CBs[CB_Int::CB_Index].GroupNum != 255)
 800302e:	f1bc 0fff 	cmp.w	ip, #255	@ 0xff
 8003032:	d007      	beq.n	8003044 <_ZN6CB_Int23Update_CB_ConfigurationEPK12Raw_Config_t+0x80>
			CBs[CB_Int::CB_Index].Control.Battel_Override = 0xD;
 8003034:	4b05      	ldr	r3, [pc, #20]	@ (800304c <_ZN6CB_Int23Update_CB_ConfigurationEPK12Raw_Config_t+0x88>)
 8003036:	eb03 1340 	add.w	r3, r3, r0, lsl #5
 800303a:	7c1a      	ldrb	r2, [r3, #16]
 800303c:	210d      	movs	r1, #13
 800303e:	f361 1207 	bfi	r2, r1, #4, #4
 8003042:	741a      	strb	r2, [r3, #16]
	}
}
 8003044:	bd10      	pop	{r4, pc}
 8003046:	4770      	bx	lr
 8003048:	200003a0 	.word	0x200003a0
 800304c:	200001a0 	.word	0x200001a0
 8003050:	0800c290 	.word	0x0800c290
 8003054:	10624dd3 	.word	0x10624dd3

08003058 <_ZN6CB_Int6ReInitEv>:
void CB_Int::ReInit() {
 8003058:	b5f8      	push	{r3, r4, r5, r6, r7, lr}
	for (int i = 0; i < NUM_OF_CB; i++) {
 800305a:	2400      	movs	r4, #0

// static section
  static CommunicationCenter& getCommunicationCenter()
      {return mGlobalManagement.mCommunicationCenter;}
  static PersistentDataCenter& getPersistentDataCenter()
      {return mGlobalManagement.mPersistentDataCenter;}
 800305c:	4f0a      	ldr	r7, [pc, #40]	@ (8003088 <_ZN6CB_Int6ReInitEv+0x30>)
 800305e:	69f8      	ldr	r0, [r7, #28]
		pData = SystemManagement::getPersistentDataCenter().Get_CBSetting(i);
 8003060:	6803      	ldr	r3, [r0, #0]
 8003062:	6a1b      	ldr	r3, [r3, #32]
 8003064:	4621      	mov	r1, r4
 8003066:	4798      	blx	r3
 8003068:	4605      	mov	r5, r0
		CB_Int::Select(i)->Update_CB_Configuration(pData);
 800306a:	b2e6      	uxtb	r6, r4
 800306c:	4630      	mov	r0, r6
 800306e:	f7ff fdf5 	bl	8002c5c <_ZN6CB_Int6SelectEh>
 8003072:	4629      	mov	r1, r5
 8003074:	f7ff ffa6 	bl	8002fc4 <_ZN6CB_Int23Update_CB_ConfigurationEPK12Raw_Config_t>
		reorderGroups(i);
 8003078:	4630      	mov	r0, r6
 800307a:	f7ff fd8f 	bl	8002b9c <_ZN6CB_Int13reorderGroupsEh>
	for (int i = 0; i < NUM_OF_CB; i++) {
 800307e:	3401      	adds	r4, #1
 8003080:	2c10      	cmp	r4, #16
 8003082:	d1ec      	bne.n	800305e <_ZN6CB_Int6ReInitEv+0x6>
}
 8003084:	bdf8      	pop	{r3, r4, r5, r6, r7, pc}
 8003086:	bf00      	nop
 8003088:	2000abe0 	.word	0x2000abe0

0800308c <_ZN6CB_Int5WriteEhPKvh>:
		sw_index = 0;
		periodic_state = Periodic_States_t::Periodic_Begin;
	}
}

ErrorStatus CB_Int::Write(uint8_t op, const void *cmd, uint8_t len) {
 800308c:	e92d 43f0 	stmdb	sp!, {r4, r5, r6, r7, r8, r9, lr}
 8003090:	b085      	sub	sp, #20
 8003092:	4606      	mov	r6, r0
 8003094:	460f      	mov	r7, r1
 8003096:	4691      	mov	r9, r2
 8003098:	461d      	mov	r5, r3
	if (I2C->IsBusy())
 800309a:	4c1f      	ldr	r4, [pc, #124]	@ (8003118 <_ZN6CB_Int5WriteEhPKvh+0x8c>)
 800309c:	f8d4 8000 	ldr.w	r8, [r4]
	BusyStatus PollAddress(uint8_t Address);
	inline void I2C_Handler(void);
	inline void I2C_ERROR_Handler(void);
	inline BusyStatus IsBusy(){
		static uint16_t timeout = 0;
		if ((MsgStatus != Idle && MsgStatus != MsgReady) || I2C_State != I2C_Idle)
 80030a0:	f898 4000 	ldrb.w	r4, [r8]
 80030a4:	b10c      	cbz	r4, 80030aa <_ZN6CB_Int5WriteEhPKvh+0x1e>
 80030a6:	2c03      	cmp	r4, #3
 80030a8:	d102      	bne.n	80030b0 <_ZN6CB_Int5WriteEhPKvh+0x24>
 80030aa:	f898 3021 	ldrb.w	r3, [r8, #33]	@ 0x21
 80030ae:	b11b      	cbz	r3, 80030b8 <_ZN6CB_Int5WriteEhPKvh+0x2c>
		return ERROR;
 80030b0:	2000      	movs	r0, #0
	TxI2CMsg TxMsg;
	TxMsg.Address = IndexToAddress[CB_Index];
	TxMsg.Length = len + 1;
	TxMsg.pData = OutputBuffer;
	return I2C->SendMessage(&TxMsg);
}
 80030b2:	b005      	add	sp, #20
 80030b4:	e8bd 83f0 	ldmia.w	sp!, {r4, r5, r6, r7, r8, r9, pc}
                  return BusyStatus::SET;
		else if (I2C_CheckEvent(I2C1,I2C_FLAG_BUSY)){
 80030b8:	f44f 3100 	mov.w	r1, #131072	@ 0x20000
 80030bc:	4817      	ldr	r0, [pc, #92]	@ (800311c <_ZN6CB_Int5WriteEhPKvh+0x90>)
 80030be:	f008 fc40 	bl	800b942 <I2C_CheckEvent>
 80030c2:	b178      	cbz	r0, 80030e4 <_ZN6CB_Int5WriteEhPKvh+0x58>
			timeout++;
 80030c4:	4a16      	ldr	r2, [pc, #88]	@ (8003120 <_ZN6CB_Int5WriteEhPKvh+0x94>)
 80030c6:	8813      	ldrh	r3, [r2, #0]
 80030c8:	3301      	adds	r3, #1
 80030ca:	b29b      	uxth	r3, r3
 80030cc:	8013      	strh	r3, [r2, #0]
			if (timeout == 0xFFF){
 80030ce:	f640 72ff 	movw	r2, #4095	@ 0xfff
 80030d2:	4293      	cmp	r3, r2
 80030d4:	d1ec      	bne.n	80030b0 <_ZN6CB_Int5WriteEhPKvh+0x24>
				Reset();
 80030d6:	4640      	mov	r0, r8
 80030d8:	f006 fbce 	bl	8009878 <_ZN7I2C_DRV5ResetEv>
				timeout =0;
 80030dc:	4b10      	ldr	r3, [pc, #64]	@ (8003120 <_ZN6CB_Int5WriteEhPKvh+0x94>)
 80030de:	2200      	movs	r2, #0
 80030e0:	801a      	strh	r2, [r3, #0]
 80030e2:	e7e5      	b.n	80030b0 <_ZN6CB_Int5WriteEhPKvh+0x24>
			}
			return BusyStatus::SET;
		}
		else {
			timeout =0;
 80030e4:	4b0e      	ldr	r3, [pc, #56]	@ (8003120 <_ZN6CB_Int5WriteEhPKvh+0x94>)
 80030e6:	2200      	movs	r2, #0
 80030e8:	801a      	strh	r2, [r3, #0]
	memcpy(OutputBuffer + 1, cmd, len);
 80030ea:	462a      	mov	r2, r5
 80030ec:	4649      	mov	r1, r9
 80030ee:	1c70      	adds	r0, r6, #1
 80030f0:	f009 f886 	bl	800c200 <memcpy>
	OutputBuffer[0] = op;
 80030f4:	7037      	strb	r7, [r6, #0]
	TxMsg.Address = IndexToAddress[CB_Index];
 80030f6:	4b0b      	ldr	r3, [pc, #44]	@ (8003124 <_ZN6CB_Int5WriteEhPKvh+0x98>)
 80030f8:	781b      	ldrb	r3, [r3, #0]
 80030fa:	4a0b      	ldr	r2, [pc, #44]	@ (8003128 <_ZN6CB_Int5WriteEhPKvh+0x9c>)
 80030fc:	5cd3      	ldrb	r3, [r2, r3]
 80030fe:	f88d 3004 	strb.w	r3, [sp, #4]
	TxMsg.Length = len + 1;
 8003102:	1c6b      	adds	r3, r5, #1
 8003104:	f88d 300c 	strb.w	r3, [sp, #12]
	TxMsg.pData = OutputBuffer;
 8003108:	9602      	str	r6, [sp, #8]
	return I2C->SendMessage(&TxMsg);
 800310a:	a901      	add	r1, sp, #4
 800310c:	4b02      	ldr	r3, [pc, #8]	@ (8003118 <_ZN6CB_Int5WriteEhPKvh+0x8c>)
 800310e:	6818      	ldr	r0, [r3, #0]
 8003110:	f006 fbfe 	bl	8009910 <_ZN7I2C_DRV11SendMessageEPK8TxI2CMsg>
 8003114:	e7cd      	b.n	80030b2 <_ZN6CB_Int5WriteEhPKvh+0x26>
 8003116:	bf00      	nop
 8003118:	200003a4 	.word	0x200003a4
 800311c:	40005400 	.word	0x40005400
 8003120:	200003ac 	.word	0x200003ac
 8003124:	200003a0 	.word	0x200003a0
 8003128:	0800c320 	.word	0x0800c320

0800312c <_ZN6CB_Int12Config_WriteEPK11CB_Config_t>:

ErrorStatus CB_Int::Config_Write(const CB_Config_t *cmd) {
 800312c:	b508      	push	{r3, lr}
 800312e:	460a      	mov	r2, r1
	return Write(11, cmd, sizeof(CB_Config_t));
 8003130:	2307      	movs	r3, #7
 8003132:	210b      	movs	r1, #11
 8003134:	f7ff ffaa 	bl	800308c <_ZN6CB_Int5WriteEhPKvh>
}
 8003138:	bd08      	pop	{r3, pc}

0800313a <_ZN6CB_Int13Control_WriteEPK12CB_Control_t>:

ErrorStatus CB_Int::Control_Write(const CB_Control_t *cmd) {
 800313a:	b508      	push	{r3, lr}
 800313c:	460a      	mov	r2, r1
	return Write(10, cmd, sizeof(CB_Control_t));
 800313e:	2301      	movs	r3, #1
 8003140:	210a      	movs	r1, #10
 8003142:	f7ff ffa3 	bl	800308c <_ZN6CB_Int5WriteEhPKvh>
}
 8003146:	bd08      	pop	{r3, pc}

08003148 <_ZN6CB_Int19Full_Status_RequestEv>:

ErrorStatus CB_Int::Full_Status_Request() {
 8003148:	b530      	push	{r4, r5, lr}
 800314a:	b089      	sub	sp, #36	@ 0x24
 800314c:	4604      	mov	r4, r0
	if (I2C->IsBusy())
 800314e:	4b1f      	ldr	r3, [pc, #124]	@ (80031cc <_ZN6CB_Int19Full_Status_RequestEv+0x84>)
 8003150:	681d      	ldr	r5, [r3, #0]
		if ((MsgStatus != Idle && MsgStatus != MsgReady) || I2C_State != I2C_Idle)
 8003152:	782b      	ldrb	r3, [r5, #0]
 8003154:	b10b      	cbz	r3, 800315a <_ZN6CB_Int19Full_Status_RequestEv+0x12>
 8003156:	2b03      	cmp	r3, #3
 8003158:	d102      	bne.n	8003160 <_ZN6CB_Int19Full_Status_RequestEv+0x18>
 800315a:	f895 3021 	ldrb.w	r3, [r5, #33]	@ 0x21
 800315e:	b113      	cbz	r3, 8003166 <_ZN6CB_Int19Full_Status_RequestEv+0x1e>
		return ERROR;
 8003160:	2000      	movs	r0, #0
	TxMsg.pData = OutputBuffer;
	RxMsg.Address = IndexToAddress[CB_Index];
	RxMsg.Length = sizeof(CB_Full_Status_t);
	RxMsg.pData = InputBuffer;
	return I2C->SendRequestMessage(&TxMsg, &RxMsg);
}
 8003162:	b009      	add	sp, #36	@ 0x24
 8003164:	bd30      	pop	{r4, r5, pc}
		else if (I2C_CheckEvent(I2C1,I2C_FLAG_BUSY)){
 8003166:	f44f 3100 	mov.w	r1, #131072	@ 0x20000
 800316a:	4819      	ldr	r0, [pc, #100]	@ (80031d0 <_ZN6CB_Int19Full_Status_RequestEv+0x88>)
 800316c:	f008 fbe9 	bl	800b942 <I2C_CheckEvent>
 8003170:	b178      	cbz	r0, 8003192 <_ZN6CB_Int19Full_Status_RequestEv+0x4a>
			timeout++;
 8003172:	4a18      	ldr	r2, [pc, #96]	@ (80031d4 <_ZN6CB_Int19Full_Status_RequestEv+0x8c>)
 8003174:	8813      	ldrh	r3, [r2, #0]
 8003176:	3301      	adds	r3, #1
 8003178:	b29b      	uxth	r3, r3
 800317a:	8013      	strh	r3, [r2, #0]
			if (timeout == 0xFFF){
 800317c:	f640 72ff 	movw	r2, #4095	@ 0xfff
 8003180:	4293      	cmp	r3, r2
 8003182:	d1ed      	bne.n	8003160 <_ZN6CB_Int19Full_Status_RequestEv+0x18>
				Reset();
 8003184:	4628      	mov	r0, r5
 8003186:	f006 fb77 	bl	8009878 <_ZN7I2C_DRV5ResetEv>
				timeout =0;
 800318a:	4b12      	ldr	r3, [pc, #72]	@ (80031d4 <_ZN6CB_Int19Full_Status_RequestEv+0x8c>)
 800318c:	2200      	movs	r2, #0
 800318e:	801a      	strh	r2, [r3, #0]
 8003190:	e7e6      	b.n	8003160 <_ZN6CB_Int19Full_Status_RequestEv+0x18>
			timeout =0;
 8003192:	2300      	movs	r3, #0
 8003194:	4a0f      	ldr	r2, [pc, #60]	@ (80031d4 <_ZN6CB_Int19Full_Status_RequestEv+0x8c>)
 8003196:	8013      	strh	r3, [r2, #0]
	OutputBuffer[0] = 0;
 8003198:	7023      	strb	r3, [r4, #0]
} RxI2CMsg;
 800319a:	9304      	str	r3, [sp, #16]
	TxMsg.Address = IndexToAddress[CB_Index];
 800319c:	4b0e      	ldr	r3, [pc, #56]	@ (80031d8 <_ZN6CB_Int19Full_Status_RequestEv+0x90>)
 800319e:	781b      	ldrb	r3, [r3, #0]
 80031a0:	4a0e      	ldr	r2, [pc, #56]	@ (80031dc <_ZN6CB_Int19Full_Status_RequestEv+0x94>)
 80031a2:	5cd3      	ldrb	r3, [r2, r3]
 80031a4:	f88d 3014 	strb.w	r3, [sp, #20]
	TxMsg.Length = 1;
 80031a8:	2201      	movs	r2, #1
 80031aa:	f88d 201c 	strb.w	r2, [sp, #28]
	TxMsg.pData = OutputBuffer;
 80031ae:	9406      	str	r4, [sp, #24]
	RxMsg.Address = IndexToAddress[CB_Index];
 80031b0:	f88d 3004 	strb.w	r3, [sp, #4]
	RxMsg.Length = sizeof(CB_Full_Status_t);
 80031b4:	2312      	movs	r3, #18
 80031b6:	f88d 300c 	strb.w	r3, [sp, #12]
	RxMsg.pData = InputBuffer;
 80031ba:	3414      	adds	r4, #20
 80031bc:	9402      	str	r4, [sp, #8]
	return I2C->SendRequestMessage(&TxMsg, &RxMsg);
 80031be:	aa01      	add	r2, sp, #4
 80031c0:	a905      	add	r1, sp, #20
 80031c2:	4b02      	ldr	r3, [pc, #8]	@ (80031cc <_ZN6CB_Int19Full_Status_RequestEv+0x84>)
 80031c4:	6818      	ldr	r0, [r3, #0]
 80031c6:	f006 fbd9 	bl	800997c <_ZN7I2C_DRV18SendRequestMessageEPK8TxI2CMsgP8RxI2CMsg>
 80031ca:	e7ca      	b.n	8003162 <_ZN6CB_Int19Full_Status_RequestEv+0x1a>
 80031cc:	200003a4 	.word	0x200003a4
 80031d0:	40005400 	.word	0x40005400
 80031d4:	200003ac 	.word	0x200003ac
 80031d8:	200003a0 	.word	0x200003a0
 80031dc:	0800c320 	.word	0x0800c320

080031e0 <_ZNK6CB_Int16Full_Status_ReadEP16CB_Full_Status_t>:

ErrorStatus CB_Int::Full_Status_Read(CB_Full_Status_t *cmd) const {
 80031e0:	b570      	push	{r4, r5, r6, lr}
 80031e2:	4606      	mov	r6, r0
 80031e4:	460c      	mov	r4, r1
	if ((I2C->IsBusy() == SET) || I2C->I2C_Last_Error != I2C_DRV::I2C_NoError)
 80031e6:	4b1b      	ldr	r3, [pc, #108]	@ (8003254 <_ZNK6CB_Int16Full_Status_ReadEP16CB_Full_Status_t+0x74>)
 80031e8:	681d      	ldr	r5, [r3, #0]
		if ((MsgStatus != Idle && MsgStatus != MsgReady) || I2C_State != I2C_Idle)
 80031ea:	782b      	ldrb	r3, [r5, #0]
 80031ec:	b10b      	cbz	r3, 80031f2 <_ZNK6CB_Int16Full_Status_ReadEP16CB_Full_Status_t+0x12>
 80031ee:	2b03      	cmp	r3, #3
 80031f0:	d102      	bne.n	80031f8 <_ZNK6CB_Int16Full_Status_ReadEP16CB_Full_Status_t+0x18>
 80031f2:	f895 3021 	ldrb.w	r3, [r5, #33]	@ 0x21
 80031f6:	b10b      	cbz	r3, 80031fc <_ZNK6CB_Int16Full_Status_ReadEP16CB_Full_Status_t+0x1c>
		return ERROR;
 80031f8:	2000      	movs	r0, #0
 80031fa:	e01d      	b.n	8003238 <_ZNK6CB_Int16Full_Status_ReadEP16CB_Full_Status_t+0x58>
		else if (I2C_CheckEvent(I2C1,I2C_FLAG_BUSY)){
 80031fc:	f44f 3100 	mov.w	r1, #131072	@ 0x20000
 8003200:	4815      	ldr	r0, [pc, #84]	@ (8003258 <_ZNK6CB_Int16Full_Status_ReadEP16CB_Full_Status_t+0x78>)
 8003202:	f008 fb9e 	bl	800b942 <I2C_CheckEvent>
 8003206:	b178      	cbz	r0, 8003228 <_ZNK6CB_Int16Full_Status_ReadEP16CB_Full_Status_t+0x48>
			timeout++;
 8003208:	4a14      	ldr	r2, [pc, #80]	@ (800325c <_ZNK6CB_Int16Full_Status_ReadEP16CB_Full_Status_t+0x7c>)
 800320a:	8813      	ldrh	r3, [r2, #0]
 800320c:	3301      	adds	r3, #1
 800320e:	b29b      	uxth	r3, r3
 8003210:	8013      	strh	r3, [r2, #0]
			if (timeout == 0xFFF){
 8003212:	f640 72ff 	movw	r2, #4095	@ 0xfff
 8003216:	4293      	cmp	r3, r2
 8003218:	d1ee      	bne.n	80031f8 <_ZNK6CB_Int16Full_Status_ReadEP16CB_Full_Status_t+0x18>
				Reset();
 800321a:	4628      	mov	r0, r5
 800321c:	f006 fb2c 	bl	8009878 <_ZN7I2C_DRV5ResetEv>
				timeout =0;
 8003220:	4b0e      	ldr	r3, [pc, #56]	@ (800325c <_ZNK6CB_Int16Full_Status_ReadEP16CB_Full_Status_t+0x7c>)
 8003222:	2200      	movs	r2, #0
 8003224:	801a      	strh	r2, [r3, #0]
 8003226:	e7e7      	b.n	80031f8 <_ZNK6CB_Int16Full_Status_ReadEP16CB_Full_Status_t+0x18>
			timeout =0;
 8003228:	4b0c      	ldr	r3, [pc, #48]	@ (800325c <_ZNK6CB_Int16Full_Status_ReadEP16CB_Full_Status_t+0x7c>)
 800322a:	2200      	movs	r2, #0
 800322c:	801a      	strh	r2, [r3, #0]
	if ((I2C->IsBusy() == SET) || I2C->I2C_Last_Error != I2C_DRV::I2C_NoError)
 800322e:	4b09      	ldr	r3, [pc, #36]	@ (8003254 <_ZNK6CB_Int16Full_Status_ReadEP16CB_Full_Status_t+0x74>)
 8003230:	681b      	ldr	r3, [r3, #0]
 8003232:	f893 3020 	ldrb.w	r3, [r3, #32]
 8003236:	b103      	cbz	r3, 800323a <_ZNK6CB_Int16Full_Status_ReadEP16CB_Full_Status_t+0x5a>
	memcpy(cmd, InputBuffer, sizeof(CB_Full_Status_t));
	return SUCCESS;
}
 8003238:	bd70      	pop	{r4, r5, r6, pc}
	memcpy(cmd, InputBuffer, sizeof(CB_Full_Status_t));
 800323a:	6970      	ldr	r0, [r6, #20]
 800323c:	69b1      	ldr	r1, [r6, #24]
 800323e:	69f2      	ldr	r2, [r6, #28]
 8003240:	6a33      	ldr	r3, [r6, #32]
 8003242:	6020      	str	r0, [r4, #0]
 8003244:	6061      	str	r1, [r4, #4]
 8003246:	60a2      	str	r2, [r4, #8]
 8003248:	60e3      	str	r3, [r4, #12]
 800324a:	8cb3      	ldrh	r3, [r6, #36]	@ 0x24
 800324c:	8223      	strh	r3, [r4, #16]
	return SUCCESS;
 800324e:	2001      	movs	r0, #1
 8003250:	e7f2      	b.n	8003238 <_ZNK6CB_Int16Full_Status_ReadEP16CB_Full_Status_t+0x58>
 8003252:	bf00      	nop
 8003254:	200003a4 	.word	0x200003a4
 8003258:	40005400 	.word	0x40005400
 800325c:	200003ac 	.word	0x200003ac

08003260 <_ZN6CB_Int12periodicCallEtt>:
void CB_Int::periodicCall(uint16_t InVoltage1, uint16_t InVoltage2) {
 8003260:	e92d 4ff0 	stmdb	sp!, {r4, r5, r6, r7, r8, r9, sl, fp, lr}
 8003264:	b08d      	sub	sp, #52	@ 0x34
 8003266:	4607      	mov	r7, r0
 8003268:	460e      	mov	r6, r1
 800326a:	2400      	movs	r4, #0
 800326c:	4625      	mov	r5, r4
	uint8_t min_pos_in_group = -1, max_pos_in_group = -1;
 800326e:	23ff      	movs	r3, #255	@ 0xff
 8003270:	f88d 302f 	strb.w	r3, [sp, #47]	@ 0x2f
 8003274:	f88d 302e 	strb.w	r3, [sp, #46]	@ 0x2e
	switch (periodic_state) {
 8003278:	4ba4      	ldr	r3, [pc, #656]	@ (800350c <_ZN6CB_Int12periodicCallEtt+0x2ac>)
 800327a:	781b      	ldrb	r3, [r3, #0]
 800327c:	2b04      	cmp	r3, #4
 800327e:	f200 81f2 	bhi.w	8003666 <_ZN6CB_Int12periodicCallEtt+0x406>
 8003282:	e8df f013 	tbh	[pc, r3, lsl #1]
 8003286:	0005      	.short	0x0005
 8003288:	0184002c 	.word	0x0184002c
 800328c:	012c01c2 	.word	0x012c01c2
		if ( !CBs[sw_index].Control.EN || CBs[sw_index].Meas_Status.TRIP )
 8003290:	4b9f      	ldr	r3, [pc, #636]	@ (8003510 <_ZN6CB_Int12periodicCallEtt+0x2b0>)
 8003292:	7818      	ldrb	r0, [r3, #0]
 8003294:	4b9f      	ldr	r3, [pc, #636]	@ (8003514 <_ZN6CB_Int12periodicCallEtt+0x2b4>)
 8003296:	eb03 1340 	add.w	r3, r3, r0, lsl #5
 800329a:	7c1b      	ldrb	r3, [r3, #16]
 800329c:	f013 0f03 	tst.w	r3, #3
 80032a0:	d006      	beq.n	80032b0 <_ZN6CB_Int12periodicCallEtt+0x50>
 80032a2:	4b9c      	ldr	r3, [pc, #624]	@ (8003514 <_ZN6CB_Int12periodicCallEtt+0x2b4>)
 80032a4:	eb03 1340 	add.w	r3, r3, r0, lsl #5
 80032a8:	7a1b      	ldrb	r3, [r3, #8]
 80032aa:	f013 0f04 	tst.w	r3, #4
 80032ae:	d008      	beq.n	80032c2 <_ZN6CB_Int12periodicCallEtt+0x62>
			GPIO_WriteBit(SwOnPort[sw_index], SwOnPin[sw_index], Bit_RESET);
 80032b0:	2200      	movs	r2, #0
 80032b2:	4b99      	ldr	r3, [pc, #612]	@ (8003518 <_ZN6CB_Int12periodicCallEtt+0x2b8>)
 80032b4:	f833 1010 	ldrh.w	r1, [r3, r0, lsl #1]
 80032b8:	4b98      	ldr	r3, [pc, #608]	@ (800351c <_ZN6CB_Int12periodicCallEtt+0x2bc>)
 80032ba:	f853 0020 	ldr.w	r0, [r3, r0, lsl #2]
 80032be:	f008 f8bc 	bl	800b43a <GPIO_WriteBit>
		if (GPIO_ReadOutputDataBit(SwOnPort[sw_index], SwOnPin[sw_index])
 80032c2:	4b93      	ldr	r3, [pc, #588]	@ (8003510 <_ZN6CB_Int12periodicCallEtt+0x2b0>)
 80032c4:	781b      	ldrb	r3, [r3, #0]
 80032c6:	4a94      	ldr	r2, [pc, #592]	@ (8003518 <_ZN6CB_Int12periodicCallEtt+0x2b8>)
 80032c8:	f832 1013 	ldrh.w	r1, [r2, r3, lsl #1]
 80032cc:	4a93      	ldr	r2, [pc, #588]	@ (800351c <_ZN6CB_Int12periodicCallEtt+0x2bc>)
 80032ce:	f852 0023 	ldr.w	r0, [r2, r3, lsl #2]
 80032d2:	f008 f87d 	bl	800b3d0 <GPIO_ReadOutputDataBit>
				&& Select(sw_index)->Full_Status_Request() == ERROR) {
 80032d6:	bb38      	cbnz	r0, 8003328 <_ZN6CB_Int12periodicCallEtt+0xc8>
			periodic_state = Periodic_States_t::Periodic_Status;
 80032d8:	4b8c      	ldr	r3, [pc, #560]	@ (800350c <_ZN6CB_Int12periodicCallEtt+0x2ac>)
 80032da:	2201      	movs	r2, #1
 80032dc:	701a      	strb	r2, [r3, #0]
  static I2C_DRV *I2C;
  static uint8_t CB_Index;
  static ErrorStatus GPIO_INIT(void);
  static Periodic_States_t periodic_state;
  inline static BusyStatus IsBusy(){
    return I2C->IsBusy();
 80032de:	4b90      	ldr	r3, [pc, #576]	@ (8003520 <_ZN6CB_Int12periodicCallEtt+0x2c0>)
 80032e0:	f8d3 8000 	ldr.w	r8, [r3]
		if ((MsgStatus != Idle && MsgStatus != MsgReady) || I2C_State != I2C_Idle)
 80032e4:	f898 3000 	ldrb.w	r3, [r8]
 80032e8:	b113      	cbz	r3, 80032f0 <_ZN6CB_Int12periodicCallEtt+0x90>
 80032ea:	2b03      	cmp	r3, #3
 80032ec:	f040 81bb 	bne.w	8003666 <_ZN6CB_Int12periodicCallEtt+0x406>
 80032f0:	f898 3021 	ldrb.w	r3, [r8, #33]	@ 0x21
 80032f4:	2b00      	cmp	r3, #0
 80032f6:	f040 81b6 	bne.w	8003666 <_ZN6CB_Int12periodicCallEtt+0x406>
		else if (I2C_CheckEvent(I2C1,I2C_FLAG_BUSY)){
 80032fa:	f44f 3100 	mov.w	r1, #131072	@ 0x20000
 80032fe:	4889      	ldr	r0, [pc, #548]	@ (8003524 <_ZN6CB_Int12periodicCallEtt+0x2c4>)
 8003300:	f008 fb1f 	bl	800b942 <I2C_CheckEvent>
 8003304:	b1c8      	cbz	r0, 800333a <_ZN6CB_Int12periodicCallEtt+0xda>
			timeout++;
 8003306:	4a88      	ldr	r2, [pc, #544]	@ (8003528 <_ZN6CB_Int12periodicCallEtt+0x2c8>)
 8003308:	8813      	ldrh	r3, [r2, #0]
 800330a:	3301      	adds	r3, #1
 800330c:	b29b      	uxth	r3, r3
 800330e:	8013      	strh	r3, [r2, #0]
			if (timeout == 0xFFF){
 8003310:	f640 72ff 	movw	r2, #4095	@ 0xfff
 8003314:	4293      	cmp	r3, r2
 8003316:	f040 81a6 	bne.w	8003666 <_ZN6CB_Int12periodicCallEtt+0x406>
				Reset();
 800331a:	4640      	mov	r0, r8
 800331c:	f006 faac 	bl	8009878 <_ZN7I2C_DRV5ResetEv>
				timeout =0;
 8003320:	4b81      	ldr	r3, [pc, #516]	@ (8003528 <_ZN6CB_Int12periodicCallEtt+0x2c8>)
 8003322:	2200      	movs	r2, #0
 8003324:	801a      	strh	r2, [r3, #0]
 8003326:	e19e      	b.n	8003666 <_ZN6CB_Int12periodicCallEtt+0x406>
				&& Select(sw_index)->Full_Status_Request() == ERROR) {
 8003328:	4b79      	ldr	r3, [pc, #484]	@ (8003510 <_ZN6CB_Int12periodicCallEtt+0x2b0>)
 800332a:	7818      	ldrb	r0, [r3, #0]
 800332c:	f7ff fc96 	bl	8002c5c <_ZN6CB_Int6SelectEh>
 8003330:	f7ff ff0a 	bl	8003148 <_ZN6CB_Int19Full_Status_RequestEv>
 8003334:	2800      	cmp	r0, #0
 8003336:	d1cf      	bne.n	80032d8 <_ZN6CB_Int12periodicCallEtt+0x78>
 8003338:	e195      	b.n	8003666 <_ZN6CB_Int12periodicCallEtt+0x406>
			timeout =0;
 800333a:	4b7b      	ldr	r3, [pc, #492]	@ (8003528 <_ZN6CB_Int12periodicCallEtt+0x2c8>)
 800333c:	2200      	movs	r2, #0
 800333e:	801a      	strh	r2, [r3, #0]
		if (GPIO_ReadOutputDataBit(SwOnPort[sw_index], SwOnPin[sw_index])
 8003340:	4b73      	ldr	r3, [pc, #460]	@ (8003510 <_ZN6CB_Int12periodicCallEtt+0x2b0>)
 8003342:	781b      	ldrb	r3, [r3, #0]
 8003344:	4a74      	ldr	r2, [pc, #464]	@ (8003518 <_ZN6CB_Int12periodicCallEtt+0x2b8>)
 8003346:	f832 1013 	ldrh.w	r1, [r2, r3, lsl #1]
 800334a:	4a74      	ldr	r2, [pc, #464]	@ (800351c <_ZN6CB_Int12periodicCallEtt+0x2bc>)
 800334c:	f852 0023 	ldr.w	r0, [r2, r3, lsl #2]
 8003350:	f008 f83e 	bl	800b3d0 <GPIO_ReadOutputDataBit>
				&& Select(sw_index)->Full_Status_Read(&CB_Outputs) == SUCCESS) {
 8003354:	bb10      	cbnz	r0, 800339c <_ZN6CB_Int12periodicCallEtt+0x13c>
			CBs[sw_index].Meas_Status.Alive -=
 8003356:	4b6e      	ldr	r3, [pc, #440]	@ (8003510 <_ZN6CB_Int12periodicCallEtt+0x2b0>)
 8003358:	781b      	ldrb	r3, [r3, #0]
 800335a:	486e      	ldr	r0, [pc, #440]	@ (8003514 <_ZN6CB_Int12periodicCallEtt+0x2b4>)
 800335c:	eb00 1043 	add.w	r0, r0, r3, lsl #5
 8003360:	7a01      	ldrb	r1, [r0, #8]
 8003362:	090a      	lsrs	r2, r1, #4
 8003364:	bf14      	ite	ne
 8003366:	2401      	movne	r4, #1
 8003368:	2400      	moveq	r4, #0
 800336a:	1b12      	subs	r2, r2, r4
 800336c:	f002 020f 	and.w	r2, r2, #15
 8003370:	f362 1107 	bfi	r1, r2, #4, #4
 8003374:	7201      	strb	r1, [r0, #8]
			if (!CBs[sw_index].Meas_Status.Alive) {
 8003376:	2a00      	cmp	r2, #0
 8003378:	d068      	beq.n	800344c <_ZN6CB_Int12periodicCallEtt+0x1ec>
			sw_index = (sw_index + 1) % NUM_OF_CB;
 800337a:	3301      	adds	r3, #1
 800337c:	425a      	negs	r2, r3
 800337e:	f003 030f 	and.w	r3, r3, #15
 8003382:	f002 020f 	and.w	r2, r2, #15
 8003386:	bf58      	it	pl
 8003388:	4253      	negpl	r3, r2
 800338a:	b2db      	uxtb	r3, r3
 800338c:	4a60      	ldr	r2, [pc, #384]	@ (8003510 <_ZN6CB_Int12periodicCallEtt+0x2b0>)
 800338e:	7013      	strb	r3, [r2, #0]
			if (sw_index == 0)
 8003390:	2b00      	cmp	r3, #0
 8003392:	d16a      	bne.n	800346a <_ZN6CB_Int12periodicCallEtt+0x20a>
				periodic_state = Periodic_States_t::Periodic_Group_Handling;
 8003394:	4b5d      	ldr	r3, [pc, #372]	@ (800350c <_ZN6CB_Int12periodicCallEtt+0x2ac>)
 8003396:	2204      	movs	r2, #4
 8003398:	701a      	strb	r2, [r3, #0]
 800339a:	e164      	b.n	8003666 <_ZN6CB_Int12periodicCallEtt+0x406>
				&& Select(sw_index)->Full_Status_Read(&CB_Outputs) == SUCCESS) {
 800339c:	4b5c      	ldr	r3, [pc, #368]	@ (8003510 <_ZN6CB_Int12periodicCallEtt+0x2b0>)
 800339e:	7818      	ldrb	r0, [r3, #0]
 80033a0:	f7ff fc5c 	bl	8002c5c <_ZN6CB_Int6SelectEh>
 80033a4:	a907      	add	r1, sp, #28
 80033a6:	f7ff ff1b 	bl	80031e0 <_ZNK6CB_Int16Full_Status_ReadEP16CB_Full_Status_t>
 80033aa:	2801      	cmp	r0, #1
 80033ac:	d1d3      	bne.n	8003356 <_ZN6CB_Int12periodicCallEtt+0xf6>
			CBs[sw_index].Meas_Current = CB_Outputs.Current;
 80033ae:	4b58      	ldr	r3, [pc, #352]	@ (8003510 <_ZN6CB_Int12periodicCallEtt+0x2b0>)
 80033b0:	f893 8000 	ldrb.w	r8, [r3]
 80033b4:	ea4f 1248 	mov.w	r2, r8, lsl #5
 80033b8:	9b07      	ldr	r3, [sp, #28]
 80033ba:	f3c3 230f 	ubfx	r3, r3, #8, #16
 80033be:	4955      	ldr	r1, [pc, #340]	@ (8003514 <_ZN6CB_Int12periodicCallEtt+0x2b4>)
 80033c0:	528b      	strh	r3, [r1, r2]
			if (sw_index / 8)
 80033c2:	f1b8 0f07 	cmp.w	r8, #7
				CBs[sw_index].Meas_Voltage = InVoltage2 - CB_Outputs.Voltage;
 80033c6:	f8bd 301f 	ldrh.w	r3, [sp, #31]
 80033ca:	bf87      	ittee	hi
 80033cc:	1af1      	subhi	r1, r6, r3
 80033ce:	b28b      	uxthhi	r3, r1
				CBs[sw_index].Meas_Voltage = InVoltage1 - CB_Outputs.Voltage;
 80033d0:	1afb      	subls	r3, r7, r3
 80033d2:	b29b      	uxthls	r3, r3
 80033d4:	4a4f      	ldr	r2, [pc, #316]	@ (8003514 <_ZN6CB_Int12periodicCallEtt+0x2b4>)
 80033d6:	eb02 1248 	add.w	r2, r2, r8, lsl #5
 80033da:	8093      	strh	r3, [r2, #4]
			CBs[sw_index].Meas_Temperature = CB_Outputs.Temperature;
 80033dc:	9b08      	ldr	r3, [sp, #32]
 80033de:	f3c3 230f 	ubfx	r3, r3, #8, #16
 80033e2:	80d3      	strh	r3, [r2, #6]
			CBs[sw_index].Meas_Status = CB_Outputs.Status;
 80033e4:	f89d 301c 	ldrb.w	r3, [sp, #28]
 80033e8:	7213      	strb	r3, [r2, #8]
			CBs[sw_index].Meas_I2T = CB_Outputs.I2T;
 80033ea:	f89d 3023 	ldrb.w	r3, [sp, #35]	@ 0x23
 80033ee:	f8bd 1024 	ldrh.w	r1, [sp, #36]	@ 0x24
 80033f2:	ea43 2301 	orr.w	r3, r3, r1, lsl #8
 80033f6:	60d3      	str	r3, [r2, #12]
			if ((CB_Outputs.CONTROL & 0xF3) == 0xD1) {
 80033f8:	f89d 6026 	ldrb.w	r6, [sp, #38]	@ 0x26
 80033fc:	f006 03f3 	and.w	r3, r6, #243	@ 0xf3
 8003400:	2bd1      	cmp	r3, #209	@ 0xd1
 8003402:	d017      	beq.n	8003434 <_ZN6CB_Int12periodicCallEtt+0x1d4>
			CBs[sw_index].Meas_Status.Alive = 0xF;
 8003404:	4b43      	ldr	r3, [pc, #268]	@ (8003514 <_ZN6CB_Int12periodicCallEtt+0x2b4>)
 8003406:	eb03 1148 	add.w	r1, r3, r8, lsl #5
 800340a:	7a0a      	ldrb	r2, [r1, #8]
 800340c:	f042 02f0 	orr.w	r2, r2, #240	@ 0xf0
 8003410:	720a      	strb	r2, [r1, #8]
		if (memcmp(&CBs[sw_index].Config, (CB_Config_t*) (&CB_Outputs.OLCL),
 8003412:	460b      	mov	r3, r1
 8003414:	2207      	movs	r2, #7
 8003416:	f10d 0127 	add.w	r1, sp, #39	@ 0x27
 800341a:	f103 0011 	add.w	r0, r3, #17
 800341e:	f008 fe43 	bl	800c0a8 <memcmp>
 8003422:	bb30      	cbnz	r0, 8003472 <_ZN6CB_Int12periodicCallEtt+0x212>
			ConfigMask &= ~(1 << sw_index);
 8003424:	2201      	movs	r2, #1
 8003426:	fa02 f208 	lsl.w	r2, r2, r8
 800342a:	4b40      	ldr	r3, [pc, #256]	@ (800352c <_ZN6CB_Int12periodicCallEtt+0x2cc>)
 800342c:	881b      	ldrh	r3, [r3, #0]
 800342e:	ea23 0302 	bic.w	r3, r3, r2
 8003432:	e025      	b.n	8003480 <_ZN6CB_Int12periodicCallEtt+0x220>
				CBs[sw_index].Meas_Status.ERR_Short =
 8003434:	4a37      	ldr	r2, [pc, #220]	@ (8003514 <_ZN6CB_Int12periodicCallEtt+0x2b4>)
 8003436:	eb02 1248 	add.w	r2, r2, r8, lsl #5
						(CBs[sw_index].Meas_Status.SW) ? 0 : 1;
 800343a:	7a13      	ldrb	r3, [r2, #8]
 800343c:	f3c3 0140 	ubfx	r1, r3, #1, #1
 8003440:	f081 0101 	eor.w	r1, r1, #1
				CBs[sw_index].Meas_Status.ERR_Short =
 8003444:	f361 03c3 	bfi	r3, r1, #3, #1
 8003448:	7213      	strb	r3, [r2, #8]
 800344a:	e7db      	b.n	8003404 <_ZN6CB_Int12periodicCallEtt+0x1a4>
				CBs[sw_index].Meas_Current = 0;
 800344c:	4c31      	ldr	r4, [pc, #196]	@ (8003514 <_ZN6CB_Int12periodicCallEtt+0x2b4>)
 800344e:	0158      	lsls	r0, r3, #5
 8003450:	eb04 1243 	add.w	r2, r4, r3, lsl #5
 8003454:	2100      	movs	r1, #0
 8003456:	5221      	strh	r1, [r4, r0]
				CBs[sw_index].Meas_Voltage = 0;
 8003458:	8091      	strh	r1, [r2, #4]
				CBs[sw_index].Meas_Temperature = 25 * 16;
 800345a:	f44f 70c8 	mov.w	r0, #400	@ 0x190
 800345e:	80d0      	strh	r0, [r2, #6]
				CBs[sw_index].Meas_Status.SW = 0;
 8003460:	7a10      	ldrb	r0, [r2, #8]
 8003462:	f361 0041 	bfi	r0, r1, #1, #1
 8003466:	7210      	strb	r0, [r2, #8]
 8003468:	e787      	b.n	800337a <_ZN6CB_Int12periodicCallEtt+0x11a>
				periodic_state = Periodic_States_t::Periodic_Begin;
 800346a:	4b28      	ldr	r3, [pc, #160]	@ (800350c <_ZN6CB_Int12periodicCallEtt+0x2ac>)
 800346c:	2200      	movs	r2, #0
 800346e:	701a      	strb	r2, [r3, #0]
 8003470:	e0f9      	b.n	8003666 <_ZN6CB_Int12periodicCallEtt+0x406>
			ConfigMask |= 1 << sw_index;
 8003472:	2301      	movs	r3, #1
 8003474:	fa03 f308 	lsl.w	r3, r3, r8
 8003478:	4a2c      	ldr	r2, [pc, #176]	@ (800352c <_ZN6CB_Int12periodicCallEtt+0x2cc>)
 800347a:	8812      	ldrh	r2, [r2, #0]
 800347c:	4313      	orrs	r3, r2
 800347e:	b29b      	uxth	r3, r3
 8003480:	4a2a      	ldr	r2, [pc, #168]	@ (800352c <_ZN6CB_Int12periodicCallEtt+0x2cc>)
 8003482:	8013      	strh	r3, [r2, #0]
			CB_Control_t cnt = CBs[sw_index].Control;
 8003484:	4b23      	ldr	r3, [pc, #140]	@ (8003514 <_ZN6CB_Int12periodicCallEtt+0x2b4>)
 8003486:	eb03 1348 	add.w	r3, r3, r8, lsl #5
 800348a:	7c1a      	ldrb	r2, [r3, #16]
 800348c:	4613      	mov	r3, r2
			if (cnt.Battel_Override != 0xD && (Hold == ENABLE))
 800348e:	f002 01f0 	and.w	r1, r2, #240	@ 0xf0
 8003492:	29d0      	cmp	r1, #208	@ 0xd0
 8003494:	d007      	beq.n	80034a6 <_ZN6CB_Int12periodicCallEtt+0x246>
 8003496:	4926      	ldr	r1, [pc, #152]	@ (8003530 <_ZN6CB_Int12periodicCallEtt+0x2d0>)
 8003498:	7809      	ldrb	r1, [r1, #0]
 800349a:	2901      	cmp	r1, #1
				cnt.EN = (CB_En_t) ((uint8_t) cnt.EN & 0xFE);
 800349c:	bf04      	itt	eq
 800349e:	f002 0202 	andeq.w	r2, r2, #2
 80034a2:	f362 0301 	bfieq	r3, r2, #0, #2
			if (*(uint8_t*) (&cnt) != CB_Outputs.CONTROL)
 80034a6:	b2db      	uxtb	r3, r3
 80034a8:	42b3      	cmp	r3, r6
 80034aa:	d022      	beq.n	80034f2 <_ZN6CB_Int12periodicCallEtt+0x292>
				EnMask |= 1 << sw_index;
 80034ac:	2301      	movs	r3, #1
 80034ae:	fa03 f308 	lsl.w	r3, r3, r8
 80034b2:	4a20      	ldr	r2, [pc, #128]	@ (8003534 <_ZN6CB_Int12periodicCallEtt+0x2d4>)
 80034b4:	8812      	ldrh	r2, [r2, #0]
 80034b6:	4313      	orrs	r3, r2
 80034b8:	b29b      	uxth	r3, r3
 80034ba:	4a1e      	ldr	r2, [pc, #120]	@ (8003534 <_ZN6CB_Int12periodicCallEtt+0x2d4>)
 80034bc:	8013      	strh	r3, [r2, #0]
		sw_index = (sw_index + 1) % NUM_OF_CB;
 80034be:	f108 0301 	add.w	r3, r8, #1
 80034c2:	425a      	negs	r2, r3
 80034c4:	f003 030f 	and.w	r3, r3, #15
 80034c8:	f002 020f 	and.w	r2, r2, #15
 80034cc:	bf58      	it	pl
 80034ce:	4253      	negpl	r3, r2
 80034d0:	b2db      	uxtb	r3, r3
 80034d2:	4a0f      	ldr	r2, [pc, #60]	@ (8003510 <_ZN6CB_Int12periodicCallEtt+0x2b0>)
 80034d4:	7013      	strb	r3, [r2, #0]
		if (sw_index == 0)
 80034d6:	b9a3      	cbnz	r3, 8003502 <_ZN6CB_Int12periodicCallEtt+0x2a2>
			periodic_state = Periodic_States_t::Periodic_Group_Handling;
 80034d8:	4b0c      	ldr	r3, [pc, #48]	@ (800350c <_ZN6CB_Int12periodicCallEtt+0x2ac>)
 80034da:	2204      	movs	r2, #4
 80034dc:	701a      	strb	r2, [r3, #0]
		for (int gr = 0; gr < NUM_OF_GROUPS; gr++) {
 80034de:	f8df a058 	ldr.w	sl, [pc, #88]	@ 8003538 <_ZN6CB_Int12periodicCallEtt+0x2d8>
void CB_Int::periodicCall(uint16_t InVoltage1, uint16_t InVoltage2) {
 80034e2:	f04f 0b01 	mov.w	fp, #1
 80034e6:	4b15      	ldr	r3, [pc, #84]	@ (800353c <_ZN6CB_Int12periodicCallEtt+0x2dc>)
 80034e8:	445b      	add	r3, fp
 80034ea:	9303      	str	r3, [sp, #12]
 80034ec:	9404      	str	r4, [sp, #16]
 80034ee:	9505      	str	r5, [sp, #20]
 80034f0:	e151      	b.n	8003796 <_ZN6CB_Int12periodicCallEtt+0x536>
				EnMask &= ~(1 << sw_index);
 80034f2:	2201      	movs	r2, #1
 80034f4:	fa02 f208 	lsl.w	r2, r2, r8
 80034f8:	4b0e      	ldr	r3, [pc, #56]	@ (8003534 <_ZN6CB_Int12periodicCallEtt+0x2d4>)
 80034fa:	881b      	ldrh	r3, [r3, #0]
 80034fc:	ea23 0302 	bic.w	r3, r3, r2
 8003500:	e7db      	b.n	80034ba <_ZN6CB_Int12periodicCallEtt+0x25a>
			periodic_state = Periodic_States_t::Periodic_Begin;
 8003502:	4b02      	ldr	r3, [pc, #8]	@ (800350c <_ZN6CB_Int12periodicCallEtt+0x2ac>)
 8003504:	2200      	movs	r2, #0
 8003506:	701a      	strb	r2, [r3, #0]
			return;
 8003508:	e0ad      	b.n	8003666 <_ZN6CB_Int12periodicCallEtt+0x406>
 800350a:	bf00      	nop
 800350c:	200000be 	.word	0x200000be
 8003510:	200000b0 	.word	0x200000b0
 8003514:	200001a0 	.word	0x200001a0
 8003518:	0800c2b0 	.word	0x0800c2b0
 800351c:	0800c2d0 	.word	0x0800c2d0
 8003520:	200003a4 	.word	0x200003a4
 8003524:	40005400 	.word	0x40005400
 8003528:	200003ac 	.word	0x200003ac
 800352c:	200000bc 	.word	0x200000bc
 8003530:	200000b8 	.word	0x200000b8
 8003534:	200000ba 	.word	0x200000ba
 8003538:	200000c0 	.word	0x200000c0
 800353c:	20000000 	.word	0x20000000
					|| Groups[gr].Meas_Status.TRIP || Short)
 8003540:	b2eb      	uxtb	r3, r5
 8003542:	f013 0f04 	tst.w	r3, #4
 8003546:	d102      	bne.n	800354e <_ZN6CB_Int12periodicCallEtt+0x2ee>
 8003548:	2e00      	cmp	r6, #0
 800354a:	f000 811c 	beq.w	8003786 <_ZN6CB_Int12periodicCallEtt+0x526>
					&& Groups[gr].Control.Battel_Override != 0xD) {
 800354e:	ebcc 03cc 	rsb	r3, ip, ip, lsl #3
 8003552:	4a6e      	ldr	r2, [pc, #440]	@ (800370c <_ZN6CB_Int12periodicCallEtt+0x4ac>)
 8003554:	eb02 0383 	add.w	r3, r2, r3, lsl #2
 8003558:	7b1b      	ldrb	r3, [r3, #12]
 800355a:	091b      	lsrs	r3, r3, #4
 800355c:	2b0d      	cmp	r3, #13
 800355e:	f000 8112 	beq.w	8003786 <_ZN6CB_Int12periodicCallEtt+0x526>
				Groups[gr].Meas_Status.TRIP = 1;
 8003562:	ebcc 0ccc 	rsb	ip, ip, ip, lsl #3
 8003566:	eb02 028c 	add.w	r2, r2, ip, lsl #2
 800356a:	7993      	ldrb	r3, [r2, #6]
				Groups[gr].Meas_Status.ERR_Short |= Short;
 800356c:	f3c3 01c0 	ubfx	r1, r3, #3, #1
 8003570:	4331      	orrs	r1, r6
 8003572:	f043 0304 	orr.w	r3, r3, #4
 8003576:	f361 03c3 	bfi	r3, r1, #3, #1
 800357a:	7193      	strb	r3, [r2, #6]
				for (int j = min_pos_in_group; j <= max_pos_in_group; ++j) {
 800357c:	454f      	cmp	r7, r9
 800357e:	f340 80e9 	ble.w	8003754 <_ZN6CB_Int12periodicCallEtt+0x4f4>
 8003582:	e100      	b.n	8003786 <_ZN6CB_Int12periodicCallEtt+0x526>
 8003584:	9c04      	ldr	r4, [sp, #16]
 8003586:	9d05      	ldr	r5, [sp, #20]
		periodic_state = Periodic_States_t::Periodic_Config;
 8003588:	4b61      	ldr	r3, [pc, #388]	@ (8003710 <_ZN6CB_Int12periodicCallEtt+0x4b0>)
 800358a:	2202      	movs	r2, #2
 800358c:	701a      	strb	r2, [r3, #0]
 800358e:	4b61      	ldr	r3, [pc, #388]	@ (8003714 <_ZN6CB_Int12periodicCallEtt+0x4b4>)
 8003590:	681e      	ldr	r6, [r3, #0]
		if ((MsgStatus != Idle && MsgStatus != MsgReady) || I2C_State != I2C_Idle)
 8003592:	7833      	ldrb	r3, [r6, #0]
 8003594:	b10b      	cbz	r3, 800359a <_ZN6CB_Int12periodicCallEtt+0x33a>
 8003596:	2b03      	cmp	r3, #3
 8003598:	d165      	bne.n	8003666 <_ZN6CB_Int12periodicCallEtt+0x406>
 800359a:	f896 3021 	ldrb.w	r3, [r6, #33]	@ 0x21
 800359e:	2b00      	cmp	r3, #0
 80035a0:	d161      	bne.n	8003666 <_ZN6CB_Int12periodicCallEtt+0x406>
		else if (I2C_CheckEvent(I2C1,I2C_FLAG_BUSY)){
 80035a2:	f44f 3100 	mov.w	r1, #131072	@ 0x20000
 80035a6:	485c      	ldr	r0, [pc, #368]	@ (8003718 <_ZN6CB_Int12periodicCallEtt+0x4b8>)
 80035a8:	f008 f9cb 	bl	800b942 <I2C_CheckEvent>
 80035ac:	b178      	cbz	r0, 80035ce <_ZN6CB_Int12periodicCallEtt+0x36e>
			timeout++;
 80035ae:	4a5b      	ldr	r2, [pc, #364]	@ (800371c <_ZN6CB_Int12periodicCallEtt+0x4bc>)
 80035b0:	8813      	ldrh	r3, [r2, #0]
 80035b2:	3301      	adds	r3, #1
 80035b4:	b29b      	uxth	r3, r3
 80035b6:	8013      	strh	r3, [r2, #0]
			if (timeout == 0xFFF){
 80035b8:	f640 72ff 	movw	r2, #4095	@ 0xfff
 80035bc:	4293      	cmp	r3, r2
 80035be:	d152      	bne.n	8003666 <_ZN6CB_Int12periodicCallEtt+0x406>
				Reset();
 80035c0:	4630      	mov	r0, r6
 80035c2:	f006 f959 	bl	8009878 <_ZN7I2C_DRV5ResetEv>
				timeout =0;
 80035c6:	4b55      	ldr	r3, [pc, #340]	@ (800371c <_ZN6CB_Int12periodicCallEtt+0x4bc>)
 80035c8:	2200      	movs	r2, #0
 80035ca:	801a      	strh	r2, [r3, #0]
 80035cc:	e04b      	b.n	8003666 <_ZN6CB_Int12periodicCallEtt+0x406>
			timeout =0;
 80035ce:	4b53      	ldr	r3, [pc, #332]	@ (800371c <_ZN6CB_Int12periodicCallEtt+0x4bc>)
 80035d0:	2200      	movs	r2, #0
 80035d2:	801a      	strh	r2, [r3, #0]
		for (; sw_index < NUM_OF_CB; sw_index++) {
 80035d4:	4b52      	ldr	r3, [pc, #328]	@ (8003720 <_ZN6CB_Int12periodicCallEtt+0x4c0>)
 80035d6:	781b      	ldrb	r3, [r3, #0]
 80035d8:	2b0f      	cmp	r3, #15
 80035da:	d810      	bhi.n	80035fe <_ZN6CB_Int12periodicCallEtt+0x39e>
			if (ConfigMask & (1 << sw_index)) {
 80035dc:	4a51      	ldr	r2, [pc, #324]	@ (8003724 <_ZN6CB_Int12periodicCallEtt+0x4c4>)
 80035de:	8816      	ldrh	r6, [r2, #0]
 80035e0:	2100      	movs	r1, #0
 80035e2:	2701      	movs	r7, #1
 80035e4:	b2d8      	uxtb	r0, r3
 80035e6:	fa46 f203 	asr.w	r2, r6, r3
 80035ea:	f012 0f01 	tst.w	r2, #1
 80035ee:	d12b      	bne.n	8003648 <_ZN6CB_Int12periodicCallEtt+0x3e8>
		for (; sw_index < NUM_OF_CB; sw_index++) {
 80035f0:	3001      	adds	r0, #1
 80035f2:	b2c4      	uxtb	r4, r0
 80035f4:	3301      	adds	r3, #1
 80035f6:	4639      	mov	r1, r7
 80035f8:	b2da      	uxtb	r2, r3
 80035fa:	2a0f      	cmp	r2, #15
 80035fc:	d9f2      	bls.n	80035e4 <_ZN6CB_Int12periodicCallEtt+0x384>
		sw_index = 0;
 80035fe:	4b48      	ldr	r3, [pc, #288]	@ (8003720 <_ZN6CB_Int12periodicCallEtt+0x4c0>)
 8003600:	2200      	movs	r2, #0
 8003602:	701a      	strb	r2, [r3, #0]
		periodic_state = Periodic_States_t::Periodic_Control;
 8003604:	4b42      	ldr	r3, [pc, #264]	@ (8003710 <_ZN6CB_Int12periodicCallEtt+0x4b0>)
 8003606:	2203      	movs	r2, #3
 8003608:	701a      	strb	r2, [r3, #0]
 800360a:	4b42      	ldr	r3, [pc, #264]	@ (8003714 <_ZN6CB_Int12periodicCallEtt+0x4b4>)
 800360c:	681c      	ldr	r4, [r3, #0]
		if ((MsgStatus != Idle && MsgStatus != MsgReady) || I2C_State != I2C_Idle)
 800360e:	7823      	ldrb	r3, [r4, #0]
 8003610:	b10b      	cbz	r3, 8003616 <_ZN6CB_Int12periodicCallEtt+0x3b6>
 8003612:	2b03      	cmp	r3, #3
 8003614:	d127      	bne.n	8003666 <_ZN6CB_Int12periodicCallEtt+0x406>
 8003616:	f894 3021 	ldrb.w	r3, [r4, #33]	@ 0x21
 800361a:	bb23      	cbnz	r3, 8003666 <_ZN6CB_Int12periodicCallEtt+0x406>
		else if (I2C_CheckEvent(I2C1,I2C_FLAG_BUSY)){
 800361c:	f44f 3100 	mov.w	r1, #131072	@ 0x20000
 8003620:	483d      	ldr	r0, [pc, #244]	@ (8003718 <_ZN6CB_Int12periodicCallEtt+0x4b8>)
 8003622:	f008 f98e 	bl	800b942 <I2C_CheckEvent>
 8003626:	b308      	cbz	r0, 800366c <_ZN6CB_Int12periodicCallEtt+0x40c>
			timeout++;
 8003628:	4a3c      	ldr	r2, [pc, #240]	@ (800371c <_ZN6CB_Int12periodicCallEtt+0x4bc>)
 800362a:	8813      	ldrh	r3, [r2, #0]
 800362c:	3301      	adds	r3, #1
 800362e:	b29b      	uxth	r3, r3
 8003630:	8013      	strh	r3, [r2, #0]
			if (timeout == 0xFFF){
 8003632:	f640 72ff 	movw	r2, #4095	@ 0xfff
 8003636:	4293      	cmp	r3, r2
 8003638:	d115      	bne.n	8003666 <_ZN6CB_Int12periodicCallEtt+0x406>
				Reset();
 800363a:	4620      	mov	r0, r4
 800363c:	f006 f91c 	bl	8009878 <_ZN7I2C_DRV5ResetEv>
				timeout =0;
 8003640:	4b36      	ldr	r3, [pc, #216]	@ (800371c <_ZN6CB_Int12periodicCallEtt+0x4bc>)
 8003642:	2200      	movs	r2, #0
 8003644:	801a      	strh	r2, [r3, #0]
 8003646:	e00e      	b.n	8003666 <_ZN6CB_Int12periodicCallEtt+0x406>
 8003648:	b109      	cbz	r1, 800364e <_ZN6CB_Int12periodicCallEtt+0x3ee>
 800364a:	4b35      	ldr	r3, [pc, #212]	@ (8003720 <_ZN6CB_Int12periodicCallEtt+0x4c0>)
 800364c:	701c      	strb	r4, [r3, #0]
				Select(sw_index)->Config_Write(&CBs[sw_index].Config);
 800364e:	f7ff fb05 	bl	8002c5c <_ZN6CB_Int6SelectEh>
 8003652:	4c33      	ldr	r4, [pc, #204]	@ (8003720 <_ZN6CB_Int12periodicCallEtt+0x4c0>)
 8003654:	7821      	ldrb	r1, [r4, #0]
 8003656:	4b34      	ldr	r3, [pc, #208]	@ (8003728 <_ZN6CB_Int12periodicCallEtt+0x4c8>)
 8003658:	eb03 1141 	add.w	r1, r3, r1, lsl #5
 800365c:	f7ff fd66 	bl	800312c <_ZN6CB_Int12Config_WriteEPK11CB_Config_t>
				sw_index = sw_index + 1;
 8003660:	7823      	ldrb	r3, [r4, #0]
 8003662:	3301      	adds	r3, #1
 8003664:	7023      	strb	r3, [r4, #0]
}
 8003666:	b00d      	add	sp, #52	@ 0x34
 8003668:	e8bd 8ff0 	ldmia.w	sp!, {r4, r5, r6, r7, r8, r9, sl, fp, pc}
			timeout =0;
 800366c:	4b2b      	ldr	r3, [pc, #172]	@ (800371c <_ZN6CB_Int12periodicCallEtt+0x4bc>)
 800366e:	2200      	movs	r2, #0
 8003670:	801a      	strh	r2, [r3, #0]
		for (; sw_index < NUM_OF_CB; sw_index++) {
 8003672:	4b2b      	ldr	r3, [pc, #172]	@ (8003720 <_ZN6CB_Int12periodicCallEtt+0x4c0>)
 8003674:	781b      	ldrb	r3, [r3, #0]
 8003676:	2b0f      	cmp	r3, #15
 8003678:	d810      	bhi.n	800369c <_ZN6CB_Int12periodicCallEtt+0x43c>
			if (EnMask & (1 << sw_index)) {
 800367a:	4a2c      	ldr	r2, [pc, #176]	@ (800372c <_ZN6CB_Int12periodicCallEtt+0x4cc>)
 800367c:	8810      	ldrh	r0, [r2, #0]
 800367e:	2100      	movs	r1, #0
 8003680:	2601      	movs	r6, #1
 8003682:	461c      	mov	r4, r3
 8003684:	fa40 f203 	asr.w	r2, r0, r3
 8003688:	f012 0f01 	tst.w	r2, #1
 800368c:	d10c      	bne.n	80036a8 <_ZN6CB_Int12periodicCallEtt+0x448>
		for (; sw_index < NUM_OF_CB; sw_index++) {
 800368e:	1c5d      	adds	r5, r3, #1
 8003690:	b2ed      	uxtb	r5, r5
 8003692:	3301      	adds	r3, #1
 8003694:	4631      	mov	r1, r6
 8003696:	b2da      	uxtb	r2, r3
 8003698:	2a0f      	cmp	r2, #15
 800369a:	d9f2      	bls.n	8003682 <_ZN6CB_Int12periodicCallEtt+0x422>
		sw_index = 0;
 800369c:	2300      	movs	r3, #0
 800369e:	4a20      	ldr	r2, [pc, #128]	@ (8003720 <_ZN6CB_Int12periodicCallEtt+0x4c0>)
 80036a0:	7013      	strb	r3, [r2, #0]
		periodic_state = Periodic_States_t::Periodic_Begin;
 80036a2:	4a1b      	ldr	r2, [pc, #108]	@ (8003710 <_ZN6CB_Int12periodicCallEtt+0x4b0>)
 80036a4:	7013      	strb	r3, [r2, #0]
 80036a6:	e7de      	b.n	8003666 <_ZN6CB_Int12periodicCallEtt+0x406>
 80036a8:	b109      	cbz	r1, 80036ae <_ZN6CB_Int12periodicCallEtt+0x44e>
 80036aa:	4b1d      	ldr	r3, [pc, #116]	@ (8003720 <_ZN6CB_Int12periodicCallEtt+0x4c0>)
 80036ac:	701d      	strb	r5, [r3, #0]
				CB_Control_t cnt = CBs[sw_index].Control;
 80036ae:	4b20      	ldr	r3, [pc, #128]	@ (8003730 <_ZN6CB_Int12periodicCallEtt+0x4d0>)
 80036b0:	eb03 1344 	add.w	r3, r3, r4, lsl #5
 80036b4:	7c1b      	ldrb	r3, [r3, #16]
 80036b6:	f88d 3018 	strb.w	r3, [sp, #24]
				if (cnt.Battel_Override != 0xD && (Hold == ENABLE))
 80036ba:	f003 03f0 	and.w	r3, r3, #240	@ 0xf0
 80036be:	2bd0      	cmp	r3, #208	@ 0xd0
 80036c0:	d003      	beq.n	80036ca <_ZN6CB_Int12periodicCallEtt+0x46a>
 80036c2:	4b1c      	ldr	r3, [pc, #112]	@ (8003734 <_ZN6CB_Int12periodicCallEtt+0x4d4>)
 80036c4:	781b      	ldrb	r3, [r3, #0]
 80036c6:	2b01      	cmp	r3, #1
 80036c8:	d010      	beq.n	80036ec <_ZN6CB_Int12periodicCallEtt+0x48c>
				if (cnt.EN == CB_CONTROL_EN)
 80036ca:	f89d 3018 	ldrb.w	r3, [sp, #24]
 80036ce:	f003 0303 	and.w	r3, r3, #3
 80036d2:	2b01      	cmp	r3, #1
 80036d4:	d013      	beq.n	80036fe <_ZN6CB_Int12periodicCallEtt+0x49e>
				Select(sw_index)->Control_Write(&cnt);
 80036d6:	4c12      	ldr	r4, [pc, #72]	@ (8003720 <_ZN6CB_Int12periodicCallEtt+0x4c0>)
 80036d8:	7820      	ldrb	r0, [r4, #0]
 80036da:	f7ff fabf 	bl	8002c5c <_ZN6CB_Int6SelectEh>
 80036de:	a906      	add	r1, sp, #24
 80036e0:	f7ff fd2b 	bl	800313a <_ZN6CB_Int13Control_WriteEPK12CB_Control_t>
				sw_index = sw_index + 1;
 80036e4:	7823      	ldrb	r3, [r4, #0]
 80036e6:	3301      	adds	r3, #1
 80036e8:	7023      	strb	r3, [r4, #0]
				return;
 80036ea:	e7bc      	b.n	8003666 <_ZN6CB_Int12periodicCallEtt+0x406>
					cnt.EN = (CB_En_t) ((uint8_t) cnt.EN & 0xFE);
 80036ec:	f89d 3018 	ldrb.w	r3, [sp, #24]
 80036f0:	f003 0202 	and.w	r2, r3, #2
 80036f4:	f362 0301 	bfi	r3, r2, #0, #2
 80036f8:	f88d 3018 	strb.w	r3, [sp, #24]
 80036fc:	e7e5      	b.n	80036ca <_ZN6CB_Int12periodicCallEtt+0x46a>
					CBs[sw_index].LastTurnOn = getTimerTicks();
 80036fe:	f006 fde7 	bl	800a2d0 <getTimerTicks>
 8003702:	4b0b      	ldr	r3, [pc, #44]	@ (8003730 <_ZN6CB_Int12periodicCallEtt+0x4d0>)
 8003704:	eb03 1344 	add.w	r3, r3, r4, lsl #5
 8003708:	61d8      	str	r0, [r3, #28]
 800370a:	e7e4      	b.n	80036d6 <_ZN6CB_Int12periodicCallEtt+0x476>
 800370c:	200000c0 	.word	0x200000c0
 8003710:	200000be 	.word	0x200000be
 8003714:	200003a4 	.word	0x200003a4
 8003718:	40005400 	.word	0x40005400
 800371c:	200003ac 	.word	0x200003ac
 8003720:	200000b0 	.word	0x200000b0
 8003724:	200000bc 	.word	0x200000bc
 8003728:	200001b1 	.word	0x200001b1
 800372c:	200000ba 	.word	0x200000ba
 8003730:	200001a0 	.word	0x200001a0
 8003734:	200000b8 	.word	0x200000b8
				Groups[gr].Meas_Status.TRIP = 1;
 8003738:	ebcc 0ccc 	rsb	ip, ip, ip, lsl #3
 800373c:	4a52      	ldr	r2, [pc, #328]	@ (8003888 <_ZN6CB_Int12periodicCallEtt+0x628>)
 800373e:	eb02 028c 	add.w	r2, r2, ip, lsl #2
 8003742:	7993      	ldrb	r3, [r2, #6]
				Groups[gr].Meas_Status.ERR_Short |= Short;
 8003744:	f3c3 01c0 	ubfx	r1, r3, #3, #1
 8003748:	4331      	orrs	r1, r6
 800374a:	f043 0304 	orr.w	r3, r3, #4
 800374e:	f361 03c3 	bfi	r3, r1, #3, #1
 8003752:	7193      	strb	r3, [r2, #6]
				for (int j = min_pos_in_group; j <= max_pos_in_group; ++j) {
 8003754:	4b4d      	ldr	r3, [pc, #308]	@ (800388c <_ZN6CB_Int12periodicCallEtt+0x62c>)
 8003756:	881a      	ldrh	r2, [r3, #0]
 8003758:	4b4d      	ldr	r3, [pc, #308]	@ (8003890 <_ZN6CB_Int12periodicCallEtt+0x630>)
 800375a:	441f      	add	r7, r3
 800375c:	9b03      	ldr	r3, [sp, #12]
 800375e:	eb03 0509 	add.w	r5, r3, r9
					CBs[CB_Groups_Int[j]].Control.EN = CB_CONTROL_DIS;
 8003762:	4c4c      	ldr	r4, [pc, #304]	@ (8003894 <_ZN6CB_Int12periodicCallEtt+0x634>)
					EnMask |= 1 << CB_Groups_Int[j];
 8003764:	2001      	movs	r0, #1
					CBs[CB_Groups_Int[j]].Control.EN = CB_CONTROL_DIS;
 8003766:	f817 3b01 	ldrb.w	r3, [r7], #1
 800376a:	eb04 1143 	add.w	r1, r4, r3, lsl #5
 800376e:	7c0e      	ldrb	r6, [r1, #16]
 8003770:	f36f 0601 	bfc	r6, #0, #2
 8003774:	740e      	strb	r6, [r1, #16]
					EnMask |= 1 << CB_Groups_Int[j];
 8003776:	fa00 f303 	lsl.w	r3, r0, r3
 800377a:	431a      	orrs	r2, r3
 800377c:	b292      	uxth	r2, r2
				for (int j = min_pos_in_group; j <= max_pos_in_group; ++j) {
 800377e:	42bd      	cmp	r5, r7
 8003780:	d1f1      	bne.n	8003766 <_ZN6CB_Int12periodicCallEtt+0x506>
 8003782:	4b42      	ldr	r3, [pc, #264]	@ (800388c <_ZN6CB_Int12periodicCallEtt+0x62c>)
 8003784:	801a      	strh	r2, [r3, #0]
		for (int gr = 0; gr < NUM_OF_GROUPS; gr++) {
 8003786:	f10b 0b01 	add.w	fp, fp, #1
 800378a:	f10a 0a1c 	add.w	sl, sl, #28
 800378e:	f1bb 0f09 	cmp.w	fp, #9
 8003792:	f43f aef7 	beq.w	8003584 <_ZN6CB_Int12periodicCallEtt+0x324>
			CB_Int::firstAndLastPosOfGroup(gr + 1, &min_pos_in_group,
 8003796:	f10d 022e 	add.w	r2, sp, #46	@ 0x2e
 800379a:	f10d 012f 	add.w	r1, sp, #47	@ 0x2f
 800379e:	fa5f f08b 	uxtb.w	r0, fp
 80037a2:	f7ff fa39 	bl	8002c18 <_ZN6CB_Int22firstAndLastPosOfGroupEhPhS0_>
			if (min_pos_in_group == 255)
 80037a6:	f89d 702f 	ldrb.w	r7, [sp, #47]	@ 0x2f
 80037aa:	2fff      	cmp	r7, #255	@ 0xff
 80037ac:	d0eb      	beq.n	8003786 <_ZN6CB_Int12periodicCallEtt+0x526>
 80037ae:	f10b 3cff 	add.w	ip, fp, #4294967295
			Groups[gr].Meas_I2T = 0;
 80037b2:	4652      	mov	r2, sl
 80037b4:	2100      	movs	r1, #0
 80037b6:	f8ca 1008 	str.w	r1, [sl, #8]
			Groups[gr].Config.I2T_Limit = 0;
 80037ba:	ebcc 03cc 	rsb	r3, ip, ip, lsl #3
 80037be:	4832      	ldr	r0, [pc, #200]	@ (8003888 <_ZN6CB_Int12periodicCallEtt+0x628>)
 80037c0:	eb00 0383 	add.w	r3, r0, r3, lsl #2
 80037c4:	73d9      	strb	r1, [r3, #15]
 80037c6:	7419      	strb	r1, [r3, #16]
 80037c8:	7459      	strb	r1, [r3, #17]
			for (int j = min_pos_in_group; j <= max_pos_in_group; ++j) {
 80037ca:	f89d 902e 	ldrb.w	r9, [sp, #46]	@ 0x2e
 80037ce:	454f      	cmp	r7, r9
 80037d0:	dc4f      	bgt.n	8003872 <_ZN6CB_Int12periodicCallEtt+0x612>
 80037d2:	f8da 5008 	ldr.w	r5, [sl, #8]
 80037d6:	ebcc 03cc 	rsb	r3, ip, ip, lsl #3
 80037da:	eb00 0383 	add.w	r3, r0, r3, lsl #2
 80037de:	799c      	ldrb	r4, [r3, #6]
 80037e0:	f3c4 0480 	ubfx	r4, r4, #2, #1
 80037e4:	4b2a      	ldr	r3, [pc, #168]	@ (8003890 <_ZN6CB_Int12periodicCallEtt+0x630>)
 80037e6:	18f9      	adds	r1, r7, r3
 80037e8:	9b03      	ldr	r3, [sp, #12]
 80037ea:	eb03 0809 	add.w	r8, r3, r9
 80037ee:	2000      	movs	r0, #0
			uint8_t Short = 0;
 80037f0:	4606      	mov	r6, r0
				Groups[gr].Meas_I2T += CBs[CB_Groups_Int[j]].Meas_I2T;
 80037f2:	f8df e0a0 	ldr.w	lr, [pc, #160]	@ 8003894 <_ZN6CB_Int12periodicCallEtt+0x634>
 80037f6:	9701      	str	r7, [sp, #4]
 80037f8:	f8cd 9008 	str.w	r9, [sp, #8]
 80037fc:	f811 3b01 	ldrb.w	r3, [r1], #1
 8003800:	eb0e 1343 	add.w	r3, lr, r3, lsl #5
 8003804:	68df      	ldr	r7, [r3, #12]
 8003806:	443d      	add	r5, r7
						CBs[CB_Groups_Int[j]].Meas_Status.TRIP;
 8003808:	7a1f      	ldrb	r7, [r3, #8]
				Groups[gr].Meas_Status.TRIP |=
 800380a:	f3c7 0980 	ubfx	r9, r7, #2, #1
 800380e:	ea49 0404 	orr.w	r4, r9, r4
				Short |= CBs[CB_Groups_Int[j]].Meas_Status.ERR_Short;
 8003812:	f3c7 07c0 	ubfx	r7, r7, #3, #1
 8003816:	433e      	orrs	r6, r7
						CBs[CB_Groups_Int[j]].Config.I2T_Limit;
 8003818:	7cdf      	ldrb	r7, [r3, #19]
 800381a:	8a9b      	ldrh	r3, [r3, #20]
 800381c:	ea47 2703 	orr.w	r7, r7, r3, lsl #8
				Groups[gr].Config.I2T_Limit +=
 8003820:	183b      	adds	r3, r7, r0
 8003822:	f023 407f 	bic.w	r0, r3, #4278190080	@ 0xff000000
			for (int j = min_pos_in_group; j <= max_pos_in_group; ++j) {
 8003826:	4541      	cmp	r1, r8
 8003828:	d1e8      	bne.n	80037fc <_ZN6CB_Int12periodicCallEtt+0x59c>
 800382a:	9f01      	ldr	r7, [sp, #4]
 800382c:	f8dd 9008 	ldr.w	r9, [sp, #8]
 8003830:	6095      	str	r5, [r2, #8]
 8003832:	ebcc 01cc 	rsb	r1, ip, ip, lsl #3
 8003836:	f8df e050 	ldr.w	lr, [pc, #80]	@ 8003888 <_ZN6CB_Int12periodicCallEtt+0x628>
 800383a:	eb0e 0181 	add.w	r1, lr, r1, lsl #2
 800383e:	798d      	ldrb	r5, [r1, #6]
 8003840:	f364 0582 	bfi	r5, r4, #2, #1
 8003844:	718d      	strb	r5, [r1, #6]
 8003846:	73c8      	strb	r0, [r1, #15]
 8003848:	f3c0 2407 	ubfx	r4, r0, #8, #8
 800384c:	740c      	strb	r4, [r1, #16]
 800384e:	0c00      	lsrs	r0, r0, #16
 8003850:	7448      	strb	r0, [r1, #17]
			if ((Groups[gr].Meas_I2T > Groups[gr].Config.I2T_Limit
 8003852:	f023 437f 	bic.w	r3, r3, #4278190080	@ 0xff000000
 8003856:	6892      	ldr	r2, [r2, #8]
 8003858:	429a      	cmp	r2, r3
 800385a:	f67f ae71 	bls.w	8003540 <_ZN6CB_Int12periodicCallEtt+0x2e0>
					&& Groups[gr].Control.Battel_Override != 0xD) {
 800385e:	ebcc 03cc 	rsb	r3, ip, ip, lsl #3
 8003862:	4a09      	ldr	r2, [pc, #36]	@ (8003888 <_ZN6CB_Int12periodicCallEtt+0x628>)
 8003864:	eb02 0383 	add.w	r3, r2, r3, lsl #2
 8003868:	7b1b      	ldrb	r3, [r3, #12]
 800386a:	091b      	lsrs	r3, r3, #4
 800386c:	2b0d      	cmp	r3, #13
 800386e:	d08a      	beq.n	8003786 <_ZN6CB_Int12periodicCallEtt+0x526>
 8003870:	e762      	b.n	8003738 <_ZN6CB_Int12periodicCallEtt+0x4d8>
					|| Groups[gr].Meas_Status.TRIP || Short)
 8003872:	ebcc 02cc 	rsb	r2, ip, ip, lsl #3
 8003876:	4b04      	ldr	r3, [pc, #16]	@ (8003888 <_ZN6CB_Int12periodicCallEtt+0x628>)
 8003878:	eb03 0382 	add.w	r3, r3, r2, lsl #2
 800387c:	799b      	ldrb	r3, [r3, #6]
 800387e:	f013 0f04 	tst.w	r3, #4
 8003882:	d080      	beq.n	8003786 <_ZN6CB_Int12periodicCallEtt+0x526>
			uint8_t Short = 0;
 8003884:	2600      	movs	r6, #0
 8003886:	e662      	b.n	800354e <_ZN6CB_Int12periodicCallEtt+0x2ee>
 8003888:	200000c0 	.word	0x200000c0
 800388c:	200000ba 	.word	0x200000ba
 8003890:	20000000 	.word	0x20000000
 8003894:	200001a0 	.word	0x200001a0

08003898 <_ZN6CB_Int9GPIO_INITEv>:

ErrorStatus CB_Int::GPIO_INIT() {
 8003898:	e92d 47f0 	stmdb	sp!, {r4, r5, r6, r7, r8, r9, sl, lr}
 800389c:	b082      	sub	sp, #8
	GPIO_InitTypeDef GPIO_InitStructure;
	for (int i = 0; i < NUM_OF_CB; i++) {
 800389e:	4c10      	ldr	r4, [pc, #64]	@ (80038e0 <_ZN6CB_Int9GPIO_INITEv+0x48>)
 80038a0:	4f10      	ldr	r7, [pc, #64]	@ (80038e4 <_ZN6CB_Int9GPIO_INITEv+0x4c>)
 80038a2:	f104 0a20 	add.w	sl, r4, #32
		//Configure GPIO pin : Switch On Pin
		GPIO_InitStructure.GPIO_Pin = SwOnPin[i];
		GPIO_InitStructure.GPIO_Mode = GPIO_Mode_Out_PP;
 80038a6:	f04f 0910 	mov.w	r9, #16
		GPIO_InitStructure.GPIO_Speed = GPIO_Speed_2MHz;
 80038aa:	f04f 0802 	mov.w	r8, #2
		GPIO_InitStructure.GPIO_Pin = SwOnPin[i];
 80038ae:	f834 6f02 	ldrh.w	r6, [r4, #2]!
 80038b2:	f8ad 6004 	strh.w	r6, [sp, #4]
		GPIO_InitStructure.GPIO_Mode = GPIO_Mode_Out_PP;
 80038b6:	f88d 9007 	strb.w	r9, [sp, #7]
		GPIO_InitStructure.GPIO_Speed = GPIO_Speed_2MHz;
 80038ba:	f88d 8006 	strb.w	r8, [sp, #6]
		GPIO_Init(SwOnPort[i], &GPIO_InitStructure);
 80038be:	f857 5f04 	ldr.w	r5, [r7, #4]!
 80038c2:	a901      	add	r1, sp, #4
 80038c4:	4628      	mov	r0, r5
 80038c6:	f007 fc8f 	bl	800b1e8 <GPIO_Init>

		//Configure GPIO pin Output Level
		GPIO_WriteBit(SwOnPort[i], SwOnPin[i], Bit_RESET);
 80038ca:	2200      	movs	r2, #0
 80038cc:	4631      	mov	r1, r6
 80038ce:	4628      	mov	r0, r5
 80038d0:	f007 fdb3 	bl	800b43a <GPIO_WriteBit>
	for (int i = 0; i < NUM_OF_CB; i++) {
 80038d4:	4554      	cmp	r4, sl
 80038d6:	d1ea      	bne.n	80038ae <_ZN6CB_Int9GPIO_INITEv+0x16>
	}

	return (SUCCESS);
}
 80038d8:	2001      	movs	r0, #1
 80038da:	b002      	add	sp, #8
 80038dc:	e8bd 87f0 	ldmia.w	sp!, {r4, r5, r6, r7, r8, r9, sl, pc}
 80038e0:	0800c2ae 	.word	0x0800c2ae
 80038e4:	0800c2cc 	.word	0x0800c2cc

080038e8 <_ZN6CB_Int4InitEv>:
ErrorStatus CB_Int::Init() {
 80038e8:	e92d 41f0 	stmdb	sp!, {r4, r5, r6, r7, r8, lr}
		if (!m_pInstance)   // Only allow one instance of class to be generated
 80038ec:	4b21      	ldr	r3, [pc, #132]	@ (8003974 <_ZN6CB_Int4InitEv+0x8c>)
 80038ee:	681b      	ldr	r3, [r3, #0]
 80038f0:	b37b      	cbz	r3, 8003952 <_ZN6CB_Int4InitEv+0x6a>
		return m_pInstance;
 80038f2:	4b20      	ldr	r3, [pc, #128]	@ (8003974 <_ZN6CB_Int4InitEv+0x8c>)
 80038f4:	681c      	ldr	r4, [r3, #0]
	I2C = I2C_DRV::Get_Instance();
 80038f6:	4b20      	ldr	r3, [pc, #128]	@ (8003978 <_ZN6CB_Int4InitEv+0x90>)
 80038f8:	601c      	str	r4, [r3, #0]
	rc &= GPIO_INIT();
 80038fa:	f7ff ffcd 	bl	8003898 <_ZN6CB_Int9GPIO_INITEv>
 80038fe:	2c00      	cmp	r4, #0
 8003900:	bf0c      	ite	eq
 8003902:	2700      	moveq	r7, #0
 8003904:	f000 0701 	andne.w	r7, r0, #1
	for (int i = 0; i < NUM_OF_CB; i++) {
 8003908:	2400      	movs	r4, #0
 800390a:	f8df 8070 	ldr.w	r8, [pc, #112]	@ 800397c <_ZN6CB_Int4InitEv+0x94>
 800390e:	f8d8 001c 	ldr.w	r0, [r8, #28]
		pData = SystemManagement::getPersistentDataCenter().Get_CBSetting(i);
 8003912:	6803      	ldr	r3, [r0, #0]
 8003914:	6a1b      	ldr	r3, [r3, #32]
 8003916:	4621      	mov	r1, r4
 8003918:	4798      	blx	r3
 800391a:	4605      	mov	r5, r0
		CB_Int::Select(i)->Update_CB_Configuration(pData);
 800391c:	b2e6      	uxtb	r6, r4
 800391e:	4630      	mov	r0, r6
 8003920:	f7ff f99c 	bl	8002c5c <_ZN6CB_Int6SelectEh>
 8003924:	4629      	mov	r1, r5
 8003926:	f7ff fb4d 	bl	8002fc4 <_ZN6CB_Int23Update_CB_ConfigurationEPK12Raw_Config_t>
		reorderGroups(i);
 800392a:	4630      	mov	r0, r6
 800392c:	f7ff f936 	bl	8002b9c <_ZN6CB_Int13reorderGroupsEh>
	for (int i = 0; i < NUM_OF_CB; i++) {
 8003930:	3401      	adds	r4, #1
 8003932:	2c10      	cmp	r4, #16
 8003934:	d1eb      	bne.n	800390e <_ZN6CB_Int4InitEv+0x26>
	int8_t now = (int8_t) (getTimerTicks() & 0xFF);
 8003936:	f006 fccb 	bl	800a2d0 <getTimerTicks>
	int8_t next = (int8_t) (((uint8_t) now + 20) & 0xFF);
 800393a:	f100 0414 	add.w	r4, r0, #20
 800393e:	b2e4      	uxtb	r4, r4
		now = (int8_t) (getTimerTicks() & 0xFF);
 8003940:	f006 fcc6 	bl	800a2d0 <getTimerTicks>
	while ((int8_t) (next - now) >= 0)
 8003944:	1a20      	subs	r0, r4, r0
 8003946:	f010 0f80 	tst.w	r0, #128	@ 0x80
 800394a:	d0f9      	beq.n	8003940 <_ZN6CB_Int4InitEv+0x58>
}
 800394c:	4638      	mov	r0, r7
 800394e:	e8bd 81f0 	ldmia.w	sp!, {r4, r5, r6, r7, r8, pc}
			m_pInstance = new I2C_DRV;
 8003952:	2028      	movs	r0, #40	@ 0x28
 8003954:	f008 fad0 	bl	800bef8 <_Znwj>
 8003958:	4604      	mov	r4, r0
        I2C_State_Type I2C_State = I2C_Idle;
        uint8_t aaa = 0;

private:

	I2C_DRV(){
 800395a:	2300      	movs	r3, #0
 800395c:	7003      	strb	r3, [r0, #0]
} RxI2CMsg;
 800395e:	6103      	str	r3, [r0, #16]
	I2C_DRV(){
 8003960:	f880 3021 	strb.w	r3, [r0, #33]	@ 0x21
 8003964:	f880 3022 	strb.w	r3, [r0, #34]	@ 0x22
 8003968:	6243      	str	r3, [r0, #36]	@ 0x24
		Reset();
 800396a:	f005 ff85 	bl	8009878 <_ZN7I2C_DRV5ResetEv>
			m_pInstance = new I2C_DRV;
 800396e:	4b01      	ldr	r3, [pc, #4]	@ (8003974 <_ZN6CB_Int4InitEv+0x8c>)
 8003970:	601c      	str	r4, [r3, #0]
 8003972:	e7be      	b.n	80038f2 <_ZN6CB_Int4InitEv+0xa>
 8003974:	2000b494 	.word	0x2000b494
 8003978:	200003a4 	.word	0x200003a4
 800397c:	2000abe0 	.word	0x2000abe0

08003980 <_ZN6CB_Int5PowerE15FunctionalState>:

void CB_Int::Power(FunctionalState En) {
 8003980:	b508      	push	{r3, lr}
	GPIO_WriteBit(SwOnPort[CB_Index], SwOnPin[CB_Index],
 8003982:	4b07      	ldr	r3, [pc, #28]	@ (80039a0 <_ZN6CB_Int5PowerE15FunctionalState+0x20>)
 8003984:	781b      	ldrb	r3, [r3, #0]
 8003986:	2901      	cmp	r1, #1
 8003988:	bf14      	ite	ne
 800398a:	2200      	movne	r2, #0
 800398c:	2201      	moveq	r2, #1
 800398e:	4905      	ldr	r1, [pc, #20]	@ (80039a4 <_ZN6CB_Int5PowerE15FunctionalState+0x24>)
 8003990:	f831 1013 	ldrh.w	r1, [r1, r3, lsl #1]
 8003994:	4804      	ldr	r0, [pc, #16]	@ (80039a8 <_ZN6CB_Int5PowerE15FunctionalState+0x28>)
 8003996:	f850 0023 	ldr.w	r0, [r0, r3, lsl #2]
 800399a:	f007 fd4e 	bl	800b43a <GPIO_WriteBit>
			En == ENABLE ? Bit_SET : Bit_RESET);
	return;
}
 800399e:	bd08      	pop	{r3, pc}
 80039a0:	200003a0 	.word	0x200003a0
 80039a4:	0800c2b0 	.word	0x0800c2b0
 80039a8:	0800c2d0 	.word	0x0800c2d0

080039ac <_ZN6CB_Int12shutdown_CBsE15FunctionalState>:
void CB_Int::shutdown_CBs(FunctionalState input) {
 80039ac:	e92d 41f0 	stmdb	sp!, {r4, r5, r6, r7, r8, lr}
 80039b0:	4604      	mov	r4, r0
	uint32_t now = getTimerTicks();
 80039b2:	f006 fc8d 	bl	800a2d0 <getTimerTicks>
	if (input == FunctionalState::ENABLE) {
 80039b6:	2c01      	cmp	r4, #1
 80039b8:	d009      	beq.n	80039ce <_ZN6CB_Int12shutdown_CBsE15FunctionalState+0x22>
 80039ba:	4680      	mov	r8, r0
	} else if (now != lastVccOn)
 80039bc:	4b21      	ldr	r3, [pc, #132]	@ (8003a44 <_ZN6CB_Int12shutdown_CBsE15FunctionalState+0x98>)
 80039be:	681b      	ldr	r3, [r3, #0]
 80039c0:	4283      	cmp	r3, r0
 80039c2:	d016      	beq.n	80039f2 <_ZN6CB_Int12shutdown_CBsE15FunctionalState+0x46>
 80039c4:	4e20      	ldr	r6, [pc, #128]	@ (8003a48 <_ZN6CB_Int12shutdown_CBsE15FunctionalState+0x9c>)
 80039c6:	4d21      	ldr	r5, [pc, #132]	@ (8003a4c <_ZN6CB_Int12shutdown_CBsE15FunctionalState+0xa0>)
		for (int i = 0; i < NUM_OF_CB; ++i) {
 80039c8:	2400      	movs	r4, #0
			if (!CBs[i].Meas_Status.Alive && CBs[i].Control.EN==1 && CBs[i].Meas_Status.TRIP == 0)  //For RAT
 80039ca:	4f21      	ldr	r7, [pc, #132]	@ (8003a50 <_ZN6CB_Int12shutdown_CBsE15FunctionalState+0xa4>)
 80039cc:	e016      	b.n	80039fc <_ZN6CB_Int12shutdown_CBsE15FunctionalState+0x50>
		for (int i = 0; i < NUM_OF_CB; ++i) {
 80039ce:	2400      	movs	r4, #0
			CB_Int::Select(i)->Power(FunctionalState::DISABLE);
 80039d0:	4626      	mov	r6, r4
			CBs[i].Control.EN = CB_CONTROL_DIS;
 80039d2:	4d1f      	ldr	r5, [pc, #124]	@ (8003a50 <_ZN6CB_Int12shutdown_CBsE15FunctionalState+0xa4>)
			CB_Int::Select(i)->Power(FunctionalState::DISABLE);
 80039d4:	b2e0      	uxtb	r0, r4
 80039d6:	f7ff f941 	bl	8002c5c <_ZN6CB_Int6SelectEh>
 80039da:	4631      	mov	r1, r6
 80039dc:	f7ff ffd0 	bl	8003980 <_ZN6CB_Int5PowerE15FunctionalState>
			CBs[i].Control.EN = CB_CONTROL_DIS;
 80039e0:	eb05 1344 	add.w	r3, r5, r4, lsl #5
 80039e4:	7c1a      	ldrb	r2, [r3, #16]
 80039e6:	f36f 0201 	bfc	r2, #0, #2
 80039ea:	741a      	strb	r2, [r3, #16]
		for (int i = 0; i < NUM_OF_CB; ++i) {
 80039ec:	3401      	adds	r4, #1
 80039ee:	2c10      	cmp	r4, #16
 80039f0:	d1f0      	bne.n	80039d4 <_ZN6CB_Int12shutdown_CBsE15FunctionalState+0x28>
}
 80039f2:	e8bd 81f0 	ldmia.w	sp!, {r4, r5, r6, r7, r8, pc}
		for (int i = 0; i < NUM_OF_CB; ++i) {
 80039f6:	3401      	adds	r4, #1
 80039f8:	2c10      	cmp	r4, #16
 80039fa:	d0fa      	beq.n	80039f2 <_ZN6CB_Int12shutdown_CBsE15FunctionalState+0x46>
			if (GPIO_ReadOutputDataBit(SwOnPort[i], SwOnPin[i]) == Bit_SET)
 80039fc:	f835 1b02 	ldrh.w	r1, [r5], #2
 8003a00:	f856 0b04 	ldr.w	r0, [r6], #4
 8003a04:	f007 fce4 	bl	800b3d0 <GPIO_ReadOutputDataBit>
 8003a08:	2801      	cmp	r0, #1
 8003a0a:	d0f4      	beq.n	80039f6 <_ZN6CB_Int12shutdown_CBsE15FunctionalState+0x4a>
			if (!CBs[i].Meas_Status.Alive && CBs[i].Control.EN==1 && CBs[i].Meas_Status.TRIP == 0)  //For RAT
 8003a0c:	eb07 1344 	add.w	r3, r7, r4, lsl #5
 8003a10:	7a1b      	ldrb	r3, [r3, #8]
 8003a12:	091b      	lsrs	r3, r3, #4
 8003a14:	d1ef      	bne.n	80039f6 <_ZN6CB_Int12shutdown_CBsE15FunctionalState+0x4a>
 8003a16:	eb07 1344 	add.w	r3, r7, r4, lsl #5
 8003a1a:	7c1b      	ldrb	r3, [r3, #16]
 8003a1c:	f003 0303 	and.w	r3, r3, #3
 8003a20:	2b01      	cmp	r3, #1
 8003a22:	d1e8      	bne.n	80039f6 <_ZN6CB_Int12shutdown_CBsE15FunctionalState+0x4a>
 8003a24:	eb07 1344 	add.w	r3, r7, r4, lsl #5
 8003a28:	7a1b      	ldrb	r3, [r3, #8]
 8003a2a:	f013 0f04 	tst.w	r3, #4
 8003a2e:	d1e2      	bne.n	80039f6 <_ZN6CB_Int12shutdown_CBsE15FunctionalState+0x4a>
				CB_Int::Select(i)->Power(FunctionalState::ENABLE);
 8003a30:	b2e0      	uxtb	r0, r4
 8003a32:	f7ff f913 	bl	8002c5c <_ZN6CB_Int6SelectEh>
 8003a36:	2101      	movs	r1, #1
 8003a38:	f7ff ffa2 	bl	8003980 <_ZN6CB_Int5PowerE15FunctionalState>
				lastVccOn = now;
 8003a3c:	4b01      	ldr	r3, [pc, #4]	@ (8003a44 <_ZN6CB_Int12shutdown_CBsE15FunctionalState+0x98>)
 8003a3e:	f8c3 8000 	str.w	r8, [r3]
				break;
 8003a42:	e7d6      	b.n	80039f2 <_ZN6CB_Int12shutdown_CBsE15FunctionalState+0x46>
 8003a44:	200000b4 	.word	0x200000b4
 8003a48:	0800c2d0 	.word	0x0800c2d0
 8003a4c:	0800c2b0 	.word	0x0800c2b0
 8003a50:	200001a0 	.word	0x200001a0

08003a54 <_ZN6CB_Int9GetOnTimeEv>:

uint32_t CB_Int::GetOnTime() {
 8003a54:	b508      	push	{r3, lr}
	if (CBs[CB_Index].Meas_Status.SW == 1)
 8003a56:	4b0a      	ldr	r3, [pc, #40]	@ (8003a80 <_ZN6CB_Int9GetOnTimeEv+0x2c>)
 8003a58:	781a      	ldrb	r2, [r3, #0]
 8003a5a:	4b0a      	ldr	r3, [pc, #40]	@ (8003a84 <_ZN6CB_Int9GetOnTimeEv+0x30>)
 8003a5c:	eb03 1342 	add.w	r3, r3, r2, lsl #5
 8003a60:	7a1b      	ldrb	r3, [r3, #8]
 8003a62:	f013 0f02 	tst.w	r3, #2
 8003a66:	d101      	bne.n	8003a6c <_ZN6CB_Int9GetOnTimeEv+0x18>
		return (uint32_t) (getTimerTicks() - CBs[CB_Index].LastTurnOn);
	return 0;
 8003a68:	2000      	movs	r0, #0
}
 8003a6a:	bd08      	pop	{r3, pc}
		return (uint32_t) (getTimerTicks() - CBs[CB_Index].LastTurnOn);
 8003a6c:	f006 fc30 	bl	800a2d0 <getTimerTicks>
 8003a70:	4b03      	ldr	r3, [pc, #12]	@ (8003a80 <_ZN6CB_Int9GetOnTimeEv+0x2c>)
 8003a72:	781a      	ldrb	r2, [r3, #0]
 8003a74:	4b03      	ldr	r3, [pc, #12]	@ (8003a84 <_ZN6CB_Int9GetOnTimeEv+0x30>)
 8003a76:	eb03 1342 	add.w	r3, r3, r2, lsl #5
 8003a7a:	69db      	ldr	r3, [r3, #28]
 8003a7c:	1ac0      	subs	r0, r0, r3
 8003a7e:	e7f4      	b.n	8003a6a <_ZN6CB_Int9GetOnTimeEv+0x16>
 8003a80:	200003a0 	.word	0x200003a0
 8003a84:	200001a0 	.word	0x200001a0

08003a88 <_ZN6CB_Int14GetGroupOnTimeEv>:

uint32_t CB_Int::GetGroupOnTime() {
 8003a88:	b508      	push	{r3, lr}
	if (Groups[CB_Index - 1].Meas_Status.SW == 1)
 8003a8a:	4b0d      	ldr	r3, [pc, #52]	@ (8003ac0 <_ZN6CB_Int14GetGroupOnTimeEv+0x38>)
 8003a8c:	781b      	ldrb	r3, [r3, #0]
 8003a8e:	3b01      	subs	r3, #1
 8003a90:	ebc3 03c3 	rsb	r3, r3, r3, lsl #3
 8003a94:	4a0b      	ldr	r2, [pc, #44]	@ (8003ac4 <_ZN6CB_Int14GetGroupOnTimeEv+0x3c>)
 8003a96:	eb02 0383 	add.w	r3, r2, r3, lsl #2
 8003a9a:	799b      	ldrb	r3, [r3, #6]
 8003a9c:	f013 0f02 	tst.w	r3, #2
 8003aa0:	d101      	bne.n	8003aa6 <_ZN6CB_Int14GetGroupOnTimeEv+0x1e>
		return (uint32_t) (getTimerTicks() - Groups[CB_Index - 1].LastTurnOn);
	return 0;
 8003aa2:	2000      	movs	r0, #0
}
 8003aa4:	bd08      	pop	{r3, pc}
		return (uint32_t) (getTimerTicks() - Groups[CB_Index - 1].LastTurnOn);
 8003aa6:	f006 fc13 	bl	800a2d0 <getTimerTicks>
 8003aaa:	4b05      	ldr	r3, [pc, #20]	@ (8003ac0 <_ZN6CB_Int14GetGroupOnTimeEv+0x38>)
 8003aac:	781b      	ldrb	r3, [r3, #0]
 8003aae:	3b01      	subs	r3, #1
 8003ab0:	ebc3 03c3 	rsb	r3, r3, r3, lsl #3
 8003ab4:	4a03      	ldr	r2, [pc, #12]	@ (8003ac4 <_ZN6CB_Int14GetGroupOnTimeEv+0x3c>)
 8003ab6:	eb02 0383 	add.w	r3, r2, r3, lsl #2
 8003aba:	699b      	ldr	r3, [r3, #24]
 8003abc:	1ac0      	subs	r0, r0, r3
 8003abe:	e7f1      	b.n	8003aa4 <_ZN6CB_Int14GetGroupOnTimeEv+0x1c>
 8003ac0:	200003a0 	.word	0x200003a0
 8003ac4:	200000c0 	.word	0x200000c0

08003ac8 <_ZN6CB_Int18Get_CB_TemperatureEv>:

uint16_t CB_Int::Get_CB_Temperature() {
	return CBs[CB_Index].Meas_Temperature;
 8003ac8:	4b03      	ldr	r3, [pc, #12]	@ (8003ad8 <_ZN6CB_Int18Get_CB_TemperatureEv+0x10>)
 8003aca:	781a      	ldrb	r2, [r3, #0]
 8003acc:	4b03      	ldr	r3, [pc, #12]	@ (8003adc <_ZN6CB_Int18Get_CB_TemperatureEv+0x14>)
 8003ace:	eb03 1342 	add.w	r3, r3, r2, lsl #5
}
 8003ad2:	88d8      	ldrh	r0, [r3, #6]
 8003ad4:	4770      	bx	lr
 8003ad6:	bf00      	nop
 8003ad8:	200003a0 	.word	0x200003a0
 8003adc:	200001a0 	.word	0x200001a0

08003ae0 <_ZN4GPIOC1Ev>:
  {(uint16_t *)(SlavePortOut + 2), 1U<<15},     //GPO_MCU8
  {(uint16_t *)(SlavePortOut + 2), 1U<<4},     //OSC32_in
  {(uint16_t *)(SlavePortOut + 2), 1U<<5}      //OSC32_out
};

GPIO::GPIO() : mSlaveMasterComm()
 8003ae0:	e92d 41f0 	stmdb	sp!, {r4, r5, r6, r7, r8, lr}
 8003ae4:	b082      	sub	sp, #8
 8003ae6:	4604      	mov	r4, r0
 8003ae8:	f500 768c 	add.w	r6, r0, #280	@ 0x118
 8003aec:	4630      	mov	r0, r6
 8003aee:	f001 f87b 	bl	8004be8 <_ZN15SlaveMasterCommC1Ev>
{
  GPIO_InitTypeDef   GPIO_InitStructure;
  
  // GPIO - DCI, RAT, SHDN
  GPIO_InitStructure.GPIO_Pin   = DCI_Pin | RAT_Pin | SHDN_Pin | WP_Pin;
 8003af2:	f44f 538e 	mov.w	r3, #4544	@ 0x11c0
 8003af6:	f8ad 3004 	strh.w	r3, [sp, #4]
  GPIO_InitStructure.GPIO_Speed = GPIO_Speed_2MHz;
 8003afa:	2502      	movs	r5, #2
 8003afc:	f88d 5006 	strb.w	r5, [sp, #6]
  GPIO_InitStructure.GPIO_Mode  = GPIO_Mode_IPU;
 8003b00:	f04f 0848 	mov.w	r8, #72	@ 0x48
 8003b04:	f88d 8007 	strb.w	r8, [sp, #7]
  GPIO_Init(IO_Port, &GPIO_InitStructure);
 8003b08:	4f3f      	ldr	r7, [pc, #252]	@ (8003c08 <_ZN4GPIOC1Ev+0x128>)
 8003b0a:	a901      	add	r1, sp, #4
 8003b0c:	4638      	mov	r0, r7
 8003b0e:	f007 fb6b 	bl	800b1e8 <GPIO_Init>
  
  //TVS OK PINS
  GPIO_InitStructure.GPIO_Pin   = TVS1_OK_Pin | TVS2_OK_Pin;
 8003b12:	f44f 63c0 	mov.w	r3, #1536	@ 0x600
 8003b16:	f8ad 3004 	strh.w	r3, [sp, #4]
  GPIO_InitStructure.GPIO_Speed = GPIO_Speed_2MHz;
 8003b1a:	f88d 5006 	strb.w	r5, [sp, #6]
  GPIO_InitStructure.GPIO_Mode  = GPIO_Mode_IPU;
 8003b1e:	f88d 8007 	strb.w	r8, [sp, #7]
  GPIO_Init(TVS_Port, &GPIO_InitStructure);
 8003b22:	a901      	add	r1, sp, #4
 8003b24:	4839      	ldr	r0, [pc, #228]	@ (8003c0c <_ZN4GPIOC1Ev+0x12c>)
 8003b26:	f007 fb5f 	bl	800b1e8 <GPIO_Init>


  // GPIO - FAULT 
  GPIO_InitStructure.GPIO_Pin   = FAULT_Pin;
 8003b2a:	f44f 7300 	mov.w	r3, #512	@ 0x200
 8003b2e:	f8ad 3004 	strh.w	r3, [sp, #4]
  GPIO_InitStructure.GPIO_Speed = GPIO_Speed_2MHz;
 8003b32:	f88d 5006 	strb.w	r5, [sp, #6]
  GPIO_InitStructure.GPIO_Mode  = GPIO_Mode_Out_PP;
 8003b36:	2310      	movs	r3, #16
 8003b38:	f88d 3007 	strb.w	r3, [sp, #7]
  GPIO_Init(IO_Port, &GPIO_InitStructure);
 8003b3c:	a901      	add	r1, sp, #4
 8003b3e:	4638      	mov	r0, r7
 8003b40:	f007 fb52 	bl	800b1e8 <GPIO_Init>
  while (getTimerTicks() < 200);
 8003b44:	f006 fbc4 	bl	800a2d0 <getTimerTicks>
 8003b48:	28c7      	cmp	r0, #199	@ 0xc7
 8003b4a:	d9fb      	bls.n	8003b44 <_ZN4GPIOC1Ev+0x64>
  SlavePortOut[0] |= 0x7 << 9;
 8003b4c:	4a30      	ldr	r2, [pc, #192]	@ (8003c10 <_ZN4GPIOC1Ev+0x130>)
 8003b4e:	8813      	ldrh	r3, [r2, #0]
 8003b50:	f443 6360 	orr.w	r3, r3, #3584	@ 0xe00
 8003b54:	8013      	strh	r3, [r2, #0]
  mSlaveMasterComm.xfetIoDataWait(SlavePortIn, SlavePortOut);
 8003b56:	492f      	ldr	r1, [pc, #188]	@ (8003c14 <_ZN4GPIOC1Ev+0x134>)
 8003b58:	4630      	mov	r0, r6
 8003b5a:	f001 f857 	bl	8004c0c <_ZN15SlaveMasterComm14xfetIoDataWaitEPvS0_>
  for(uint32_t i=getTimerTicks() +100; i >getTimerTicks(););
 8003b5e:	f006 fbb7 	bl	800a2d0 <getTimerTicks>
 8003b62:	f100 0564 	add.w	r5, r0, #100	@ 0x64
 8003b66:	f006 fbb3 	bl	800a2d0 <getTimerTicks>
 8003b6a:	42a8      	cmp	r0, r5
 8003b6c:	d3fb      	bcc.n	8003b66 <_ZN4GPIOC1Ev+0x86>
  mSlaveMasterComm.xfetIoDataWait(SlavePortIn, SlavePortOut);
 8003b6e:	4a28      	ldr	r2, [pc, #160]	@ (8003c10 <_ZN4GPIOC1Ev+0x130>)
 8003b70:	4928      	ldr	r1, [pc, #160]	@ (8003c14 <_ZN4GPIOC1Ev+0x134>)
 8003b72:	4630      	mov	r0, r6
 8003b74:	f001 f84a 	bl	8004c0c <_ZN15SlaveMasterComm14xfetIoDataWaitEPvS0_>




  // GPIO - Inputs
  gpio_Inputs.RAT          = 0;
 8003b78:	2300      	movs	r3, #0
 8003b7a:	f884 3038 	strb.w	r3, [r4, #56]	@ 0x38
  gpio_Inputs.SHDN         = 0;
 8003b7e:	f884 3039 	strb.w	r3, [r4, #57]	@ 0x39
  
  gpio_Inputs.SHDN_H2L_Flag = 0;
 8003b82:	f884 3115 	strb.w	r3, [r4, #277]	@ 0x115
  gpio_Inputs.RAT_L2H_Flag = 0;
 8003b86:	f884 3114 	strb.w	r3, [r4, #276]	@ 0x114
  
  filt_RAT  = 1;
 8003b8a:	2201      	movs	r2, #1
 8003b8c:	f884 2153 	strb.w	r2, [r4, #339]	@ 0x153
  filt_SHDN = 1;
 8003b90:	f884 2154 	strb.w	r2, [r4, #340]	@ 0x154
  filt_WP =1;
 8003b94:	f884 2152 	strb.w	r2, [r4, #338]	@ 0x152
  
  acc_WP   = 255;
 8003b98:	22ff      	movs	r2, #255	@ 0xff
 8003b9a:	f884 218c 	strb.w	r2, [r4, #396]	@ 0x18c
  acc_RAT  = 255; 
 8003b9e:	f884 218d 	strb.w	r2, [r4, #397]	@ 0x18d
  acc_SHDN = 100;
 8003ba2:	2264      	movs	r2, #100	@ 0x64
 8003ba4:	f884 218e 	strb.w	r2, [r4, #398]	@ 0x18e
  
  for(int j=0;j<NUM_OF_DCI;j++)
 8003ba8:	1ea1      	subs	r1, r4, #2
 8003baa:	481b      	ldr	r0, [pc, #108]	@ (8003c18 <_ZN4GPIOC1Ev+0x138>)
  {
    gpio_Inputs.DCI[j] = 0;
 8003bac:	469c      	mov	ip, r3
    acc_DCI[j] = ( (*(GPIO::DCI_MAP[j].pPort) & GPIO::DCI_MAP[j].Pin) == 0) ? 50 : 0;
 8003bae:	4605      	mov	r5, r0
    gpio_Inputs.DCI[j] = 0;
 8003bb0:	f821 cf02 	strh.w	ip, [r1, #2]!
    acc_DCI[j] = ( (*(GPIO::DCI_MAP[j].pPort) & GPIO::DCI_MAP[j].Pin) == 0) ? 50 : 0;
 8003bb4:	eb03 0243 	add.w	r2, r3, r3, lsl #1
 8003bb8:	f855 e012 	ldr.w	lr, [r5, r2, lsl #1]
 8003bbc:	8882      	ldrh	r2, [r0, #4]
 8003bbe:	f8be e000 	ldrh.w	lr, [lr]
 8003bc2:	ea1e 0f02 	tst.w	lr, r2
 8003bc6:	bf14      	ite	ne
 8003bc8:	2200      	movne	r2, #0
 8003bca:	2232      	moveq	r2, #50	@ 0x32
 8003bcc:	f8a1 2156 	strh.w	r2, [r1, #342]	@ 0x156
    filt_DCI[j] = ( acc_DCI[j] > 35 ) ? 1 : 0;
 8003bd0:	2a23      	cmp	r2, #35	@ 0x23
 8003bd2:	bf94      	ite	ls
 8003bd4:	2200      	movls	r2, #0
 8003bd6:	2201      	movhi	r2, #1
 8003bd8:	f8a1 211c 	strh.w	r2, [r1, #284]	@ 0x11c
    gpio_Inputs.DCI_L2H_Flag[j] = 0;
 8003bdc:	eb04 0283 	add.w	r2, r4, r3, lsl #2
 8003be0:	f8c2 c03a 	str.w	ip, [r2, #58]	@ 0x3a
    gpio_Inputs.DCI_H2L_Flag[j] = 0;
 8003be4:	f8c2 c0a6 	str.w	ip, [r2, #166]	@ 0xa6
  for(int j=0;j<NUM_OF_DCI;j++)
 8003be8:	3301      	adds	r3, #1
 8003bea:	3006      	adds	r0, #6
 8003bec:	2b1b      	cmp	r3, #27
 8003bee:	d1df      	bne.n	8003bb0 <_ZN4GPIOC1Ev+0xd0>
  }
  gpio_Inputs.STATE = 0;
 8003bf0:	2300      	movs	r3, #0
 8003bf2:	f884 3036 	strb.w	r3, [r4, #54]	@ 0x36
  gpio_Inputs.STATE_H2L = 0;
 8003bf6:	f884 3113 	strb.w	r3, [r4, #275]	@ 0x113
  gpio_Inputs.STATE_L2H = 0;
 8003bfa:	f884 3112 	strb.w	r3, [r4, #274]	@ 0x112

}
 8003bfe:	4620      	mov	r0, r4
 8003c00:	b002      	add	sp, #8
 8003c02:	e8bd 81f0 	ldmia.w	sp!, {r4, r5, r6, r7, r8, pc}
 8003c06:	bf00      	nop
 8003c08:	40011000 	.word	0x40011000
 8003c0c:	40010800 	.word	0x40010800
 8003c10:	200003c0 	.word	0x200003c0
 8003c14:	200003b0 	.word	0x200003b0
 8003c18:	0800c36c 	.word	0x0800c36c

08003c1c <_ZN4GPIO12periodicCallEv>:
		rs |= (ADD_accu[i] > 0) ? (1<<i) : 0;
	return GetAddress();
}

void GPIO::periodicCall()
{
 8003c1c:	b570      	push	{r4, r5, r6, lr}
 8003c1e:	4604      	mov	r4, r0
  
  /* RAT Acc&Filt */
  if (GPIO_ReadInputDataBit(IO_Port, RAT_Pin) == 0) 
 8003c20:	f44f 7180 	mov.w	r1, #256	@ 0x100
 8003c24:	4879      	ldr	r0, [pc, #484]	@ (8003e0c <_ZN4GPIO12periodicCallEv+0x1f0>)
 8003c26:	f007 fbae 	bl	800b386 <GPIO_ReadInputDataBit>
 8003c2a:	2800      	cmp	r0, #0
 8003c2c:	d16d      	bne.n	8003d0a <_ZN4GPIO12periodicCallEv+0xee>
    acc_RAT = ( acc_RAT == 255 ) ? 255 : acc_RAT + 1;
 8003c2e:	f894 318d 	ldrb.w	r3, [r4, #397]	@ 0x18d
 8003c32:	2bff      	cmp	r3, #255	@ 0xff
 8003c34:	d001      	beq.n	8003c3a <_ZN4GPIO12periodicCallEv+0x1e>
 8003c36:	3301      	adds	r3, #1
 8003c38:	b2db      	uxtb	r3, r3
 8003c3a:	f884 318d 	strb.w	r3, [r4, #397]	@ 0x18d
  else {
    acc_RAT = ( acc_RAT == 0 ) ? 0 : acc_RAT - 1; }
  
  
  if (filt_RAT == 0){
 8003c3e:	f894 2153 	ldrb.w	r2, [r4, #339]	@ 0x153
 8003c42:	2a00      	cmp	r2, #0
 8003c44:	d168      	bne.n	8003d18 <_ZN4GPIO12periodicCallEv+0xfc>
    filt_RAT = ( acc_RAT > 170 ) ? 1 : 0;
 8003c46:	2baa      	cmp	r3, #170	@ 0xaa
 8003c48:	bf94      	ite	ls
 8003c4a:	2300      	movls	r3, #0
 8003c4c:	2301      	movhi	r3, #1
 8003c4e:	f884 3153 	strb.w	r3, [r4, #339]	@ 0x153
    gpio_Inputs.RAT_L2H_Flag |= filt_RAT;
 8003c52:	f894 2114 	ldrb.w	r2, [r4, #276]	@ 0x114
 8003c56:	4313      	orrs	r3, r2
 8003c58:	f884 3114 	strb.w	r3, [r4, #276]	@ 0x114
  else
  {
    filt_RAT = ( acc_RAT > 85 ) ? 1 : 0;  
  }
  
  gpio_Inputs.RAT = filt_RAT;
 8003c5c:	f894 3153 	ldrb.w	r3, [r4, #339]	@ 0x153
 8003c60:	f884 3038 	strb.w	r3, [r4, #56]	@ 0x38
  
  /* SHDN Acc&Filt */
  if (GPIO_ReadInputDataBit(IO_Port, SHDN_Pin) == 0) 
 8003c64:	2140      	movs	r1, #64	@ 0x40
 8003c66:	4869      	ldr	r0, [pc, #420]	@ (8003e0c <_ZN4GPIO12periodicCallEv+0x1f0>)
 8003c68:	f007 fb8d 	bl	800b386 <GPIO_ReadInputDataBit>
 8003c6c:	2800      	cmp	r0, #0
 8003c6e:	d15a      	bne.n	8003d26 <_ZN4GPIO12periodicCallEv+0x10a>
    acc_SHDN = ( acc_SHDN == 255 ) ? 255 : acc_SHDN + 1;
 8003c70:	f894 318e 	ldrb.w	r3, [r4, #398]	@ 0x18e
 8003c74:	2bff      	cmp	r3, #255	@ 0xff
 8003c76:	d001      	beq.n	8003c7c <_ZN4GPIO12periodicCallEv+0x60>
 8003c78:	3301      	adds	r3, #1
 8003c7a:	b2db      	uxtb	r3, r3
 8003c7c:	f884 318e 	strb.w	r3, [r4, #398]	@ 0x18e
  else{
    acc_SHDN = ( acc_SHDN == 0 ) ? 0 : acc_SHDN - 1;}
  
  if (filt_SHDN == 0)
 8003c80:	f894 2154 	ldrb.w	r2, [r4, #340]	@ 0x154
 8003c84:	2a00      	cmp	r2, #0
 8003c86:	d155      	bne.n	8003d34 <_ZN4GPIO12periodicCallEv+0x118>
    filt_SHDN = ( acc_SHDN > 170 ) ? 1 : 0;
 8003c88:	2baa      	cmp	r3, #170	@ 0xaa
 8003c8a:	bf94      	ite	ls
 8003c8c:	2300      	movls	r3, #0
 8003c8e:	2301      	movhi	r3, #1
 8003c90:	f884 3154 	strb.w	r3, [r4, #340]	@ 0x154
  {
    filt_SHDN = ( acc_SHDN > 85 ) ? 1 : 0;
    gpio_Inputs.SHDN_H2L_Flag |= !filt_SHDN;
  }
  
  gpio_Inputs.SHDN = filt_SHDN;     
 8003c94:	f894 3154 	ldrb.w	r3, [r4, #340]	@ 0x154
 8003c98:	f884 3039 	strb.w	r3, [r4, #57]	@ 0x39
  
  /*MCU WP_MCU*/
  if ((SlavePortIn[1] & 0x0002) == 0)
 8003c9c:	4b5c      	ldr	r3, [pc, #368]	@ (8003e10 <_ZN4GPIO12periodicCallEv+0x1f4>)
 8003c9e:	885b      	ldrh	r3, [r3, #2]
 8003ca0:	f013 0f02 	tst.w	r3, #2
 8003ca4:	d154      	bne.n	8003d50 <_ZN4GPIO12periodicCallEv+0x134>
    acc_WP = ( acc_WP == 255 ) ? 255 : acc_WP + 1;
 8003ca6:	f894 318c 	ldrb.w	r3, [r4, #396]	@ 0x18c
 8003caa:	2bff      	cmp	r3, #255	@ 0xff
 8003cac:	d001      	beq.n	8003cb2 <_ZN4GPIO12periodicCallEv+0x96>
 8003cae:	3301      	adds	r3, #1
 8003cb0:	b2db      	uxtb	r3, r3
 8003cb2:	f884 318c 	strb.w	r3, [r4, #396]	@ 0x18c
  else {
    acc_WP = ( acc_WP == 0 ) ? 0 : acc_WP - 1; }
  
  if (filt_WP == 0){
 8003cb6:	f894 2152 	ldrb.w	r2, [r4, #338]	@ 0x152
 8003cba:	2a00      	cmp	r2, #0
 8003cbc:	d14f      	bne.n	8003d5e <_ZN4GPIO12periodicCallEv+0x142>
    filt_WP = ( acc_WP > 170 ) ? 1 : 0;
 8003cbe:	2baa      	cmp	r3, #170	@ 0xaa
 8003cc0:	bf94      	ite	ls
 8003cc2:	2300      	movls	r3, #0
 8003cc4:	2301      	movhi	r3, #1
 8003cc6:	f884 3152 	strb.w	r3, [r4, #338]	@ 0x152
  else
  {
    filt_WP = ( acc_WP > 85 ) ? 1 : 0;
  }
  
  gpio_Inputs.WP_MCU = filt_WP;
 8003cca:	f884 3037 	strb.w	r3, [r4, #55]	@ 0x37
      {return mGlobalManagement.mCommunicationCenter;}
 8003cce:	4b51      	ldr	r3, [pc, #324]	@ (8003e14 <_ZN4GPIO12periodicCallEv+0x1f8>)
  void openSocket();
  bool isClosed() const;
  
  void SendStatus(CONTROL_OPCODE op, uint8_t broadcast);
  void SetState(uint8_t nState, uint32_t Ip);
  inline uint8_t GetState() const {return RecivedState;};
 8003cd0:	699b      	ldr	r3, [r3, #24]
 8003cd2:	f893 385c 	ldrb.w	r3, [r3, #2140]	@ 0x85c

  uint8_t nState = SystemManagement::getCommunicationCenter().GetState();
  if ( gpio_Inputs.STATE == 1 && nState ==0)
 8003cd6:	f894 2036 	ldrb.w	r2, [r4, #54]	@ 0x36
 8003cda:	2a01      	cmp	r2, #1
 8003cdc:	d044      	beq.n	8003d68 <_ZN4GPIO12periodicCallEv+0x14c>
    gpio_Inputs.STATE_H2L = 1;
  else if ( gpio_Inputs.STATE == 0 && nState ==1)
 8003cde:	b922      	cbnz	r2, 8003cea <_ZN4GPIO12periodicCallEv+0xce>
 8003ce0:	2b01      	cmp	r3, #1
    gpio_Inputs.STATE_L2H = 1;
 8003ce2:	bf04      	itt	eq
 8003ce4:	2201      	moveq	r2, #1
 8003ce6:	f884 2112 	strbeq.w	r2, [r4, #274]	@ 0x112
  gpio_Inputs.STATE = nState;
 8003cea:	f884 3036 	strb.w	r3, [r4, #54]	@ 0x36
  
  if (mSlaveMasterComm.xfetIoDataWait(SlavePortIn, SlavePortOut) != SUCCESS)
 8003cee:	4a4a      	ldr	r2, [pc, #296]	@ (8003e18 <_ZN4GPIO12periodicCallEv+0x1fc>)
 8003cf0:	4947      	ldr	r1, [pc, #284]	@ (8003e10 <_ZN4GPIO12periodicCallEv+0x1f4>)
 8003cf2:	f504 708c 	add.w	r0, r4, #280	@ 0x118
 8003cf6:	f000 ff89 	bl	8004c0c <_ZN15SlaveMasterComm14xfetIoDataWaitEPvS0_>
 8003cfa:	2801      	cmp	r0, #1
 8003cfc:	f040 8085 	bne.w	8003e0a <_ZN4GPIO12periodicCallEv+0x1ee>
 8003d00:	4846      	ldr	r0, [pc, #280]	@ (8003e1c <_ZN4GPIO12periodicCallEv+0x200>)
 8003d02:	1ea2      	subs	r2, r4, #2
    return;
  /* DCI Acc&Filt */
  for(int i=0;i<NUM_OF_DCI;i++)
 8003d04:	2100      	movs	r1, #0
  {
    if( (*(GPIO::DCI_MAP[i].pPort) & GPIO::DCI_MAP[i].Pin) == 0)
 8003d06:	4605      	mov	r5, r0
 8003d08:	e053      	b.n	8003db2 <_ZN4GPIO12periodicCallEv+0x196>
    acc_RAT = ( acc_RAT == 0 ) ? 0 : acc_RAT - 1; }
 8003d0a:	f894 318d 	ldrb.w	r3, [r4, #397]	@ 0x18d
 8003d0e:	2b00      	cmp	r3, #0
 8003d10:	d093      	beq.n	8003c3a <_ZN4GPIO12periodicCallEv+0x1e>
 8003d12:	3b01      	subs	r3, #1
 8003d14:	b2db      	uxtb	r3, r3
 8003d16:	e790      	b.n	8003c3a <_ZN4GPIO12periodicCallEv+0x1e>
    filt_RAT = ( acc_RAT > 85 ) ? 1 : 0;  
 8003d18:	2b55      	cmp	r3, #85	@ 0x55
 8003d1a:	bf94      	ite	ls
 8003d1c:	2300      	movls	r3, #0
 8003d1e:	2301      	movhi	r3, #1
 8003d20:	f884 3153 	strb.w	r3, [r4, #339]	@ 0x153
 8003d24:	e79a      	b.n	8003c5c <_ZN4GPIO12periodicCallEv+0x40>
    acc_SHDN = ( acc_SHDN == 0 ) ? 0 : acc_SHDN - 1;}
 8003d26:	f894 318e 	ldrb.w	r3, [r4, #398]	@ 0x18e
 8003d2a:	2b00      	cmp	r3, #0
 8003d2c:	d0a6      	beq.n	8003c7c <_ZN4GPIO12periodicCallEv+0x60>
 8003d2e:	3b01      	subs	r3, #1
 8003d30:	b2db      	uxtb	r3, r3
 8003d32:	e7a3      	b.n	8003c7c <_ZN4GPIO12periodicCallEv+0x60>
    filt_SHDN = ( acc_SHDN > 85 ) ? 1 : 0;
 8003d34:	2b55      	cmp	r3, #85	@ 0x55
 8003d36:	bf8c      	ite	hi
 8003d38:	2301      	movhi	r3, #1
 8003d3a:	2300      	movls	r3, #0
 8003d3c:	f884 3154 	strb.w	r3, [r4, #340]	@ 0x154
    gpio_Inputs.SHDN_H2L_Flag |= !filt_SHDN;
 8003d40:	f894 3115 	ldrb.w	r3, [r4, #277]	@ 0x115
 8003d44:	bf98      	it	ls
 8003d46:	f043 0301 	orrls.w	r3, r3, #1
 8003d4a:	f884 3115 	strb.w	r3, [r4, #277]	@ 0x115
 8003d4e:	e7a1      	b.n	8003c94 <_ZN4GPIO12periodicCallEv+0x78>
    acc_WP = ( acc_WP == 0 ) ? 0 : acc_WP - 1; }
 8003d50:	f894 318c 	ldrb.w	r3, [r4, #396]	@ 0x18c
 8003d54:	2b00      	cmp	r3, #0
 8003d56:	d0ac      	beq.n	8003cb2 <_ZN4GPIO12periodicCallEv+0x96>
 8003d58:	3b01      	subs	r3, #1
 8003d5a:	b2db      	uxtb	r3, r3
 8003d5c:	e7a9      	b.n	8003cb2 <_ZN4GPIO12periodicCallEv+0x96>
    filt_WP = ( acc_WP > 85 ) ? 1 : 0;
 8003d5e:	2b55      	cmp	r3, #85	@ 0x55
 8003d60:	bf94      	ite	ls
 8003d62:	2300      	movls	r3, #0
 8003d64:	2301      	movhi	r3, #1
 8003d66:	e7ae      	b.n	8003cc6 <_ZN4GPIO12periodicCallEv+0xaa>
  if ( gpio_Inputs.STATE == 1 && nState ==0)
 8003d68:	2b00      	cmp	r3, #0
 8003d6a:	d1be      	bne.n	8003cea <_ZN4GPIO12periodicCallEv+0xce>
    gpio_Inputs.STATE_H2L = 1;
 8003d6c:	f884 2113 	strb.w	r2, [r4, #275]	@ 0x113
 8003d70:	e7bb      	b.n	8003cea <_ZN4GPIO12periodicCallEv+0xce>
      acc_DCI[i] = ( acc_DCI[i] >= 50 ) ? 50 : acc_DCI[i] + 1;
    else
      acc_DCI[i] = ( acc_DCI[i] == 0 ) ? 0 : acc_DCI[i] - 1;
 8003d72:	f8b2 3158 	ldrh.w	r3, [r2, #344]	@ 0x158
 8003d76:	b35b      	cbz	r3, 8003dd0 <_ZN4GPIO12periodicCallEv+0x1b4>
 8003d78:	3b01      	subs	r3, #1
 8003d7a:	b29b      	uxth	r3, r3
 8003d7c:	e028      	b.n	8003dd0 <_ZN4GPIO12periodicCallEv+0x1b4>
		filt_DCI[i] = ( acc_DCI[i] > 35 ) ? 1 : 0;
		gpio_Inputs.DCI_L2H_Flag[i] |= filt_DCI[i];
	}
	else
	{
		filt_DCI[i] = ( acc_DCI[i] > 15 ) ? 1 : 0;
 8003d7e:	2b0f      	cmp	r3, #15
 8003d80:	bf8c      	ite	hi
 8003d82:	2301      	movhi	r3, #1
 8003d84:	2300      	movls	r3, #0
 8003d86:	f8a2 311e 	strh.w	r3, [r2, #286]	@ 0x11e
		gpio_Inputs.DCI_H2L_Flag[i] |= !filt_DCI[i];
 8003d8a:	eb04 0681 	add.w	r6, r4, r1, lsl #2
 8003d8e:	f8d6 30a6 	ldr.w	r3, [r6, #166]	@ 0xa6
 8003d92:	bf98      	it	ls
 8003d94:	f043 0301 	orrls.w	r3, r3, #1
 8003d98:	f8c6 30a6 	str.w	r3, [r6, #166]	@ 0xa6
	}
	gpio_Inputs.DCI[i] = !filt_DCI[i];
 8003d9c:	f8bc 311e 	ldrh.w	r3, [ip, #286]	@ 0x11e
 8003da0:	fab3 f383 	clz	r3, r3
 8003da4:	095b      	lsrs	r3, r3, #5
 8003da6:	f822 3f02 	strh.w	r3, [r2, #2]!
  for(int i=0;i<NUM_OF_DCI;i++)
 8003daa:	3101      	adds	r1, #1
 8003dac:	3006      	adds	r0, #6
 8003dae:	291b      	cmp	r1, #27
 8003db0:	d024      	beq.n	8003dfc <_ZN4GPIO12periodicCallEv+0x1e0>
    if( (*(GPIO::DCI_MAP[i].pPort) & GPIO::DCI_MAP[i].Pin) == 0)
 8003db2:	eb01 0341 	add.w	r3, r1, r1, lsl #1
 8003db6:	f855 6013 	ldr.w	r6, [r5, r3, lsl #1]
 8003dba:	8883      	ldrh	r3, [r0, #4]
 8003dbc:	8836      	ldrh	r6, [r6, #0]
 8003dbe:	421e      	tst	r6, r3
 8003dc0:	d1d7      	bne.n	8003d72 <_ZN4GPIO12periodicCallEv+0x156>
      acc_DCI[i] = ( acc_DCI[i] >= 50 ) ? 50 : acc_DCI[i] + 1;
 8003dc2:	f8b2 3158 	ldrh.w	r3, [r2, #344]	@ 0x158
 8003dc6:	2b31      	cmp	r3, #49	@ 0x31
 8003dc8:	bf28      	it	cs
 8003dca:	2331      	movcs	r3, #49	@ 0x31
 8003dcc:	3301      	adds	r3, #1
 8003dce:	b29b      	uxth	r3, r3
 8003dd0:	4694      	mov	ip, r2
 8003dd2:	f8a2 3158 	strh.w	r3, [r2, #344]	@ 0x158
	if (filt_DCI[i] == 0)
 8003dd6:	f8b2 611e 	ldrh.w	r6, [r2, #286]	@ 0x11e
 8003dda:	2e00      	cmp	r6, #0
 8003ddc:	d1cf      	bne.n	8003d7e <_ZN4GPIO12periodicCallEv+0x162>
		filt_DCI[i] = ( acc_DCI[i] > 35 ) ? 1 : 0;
 8003dde:	2b23      	cmp	r3, #35	@ 0x23
 8003de0:	bf94      	ite	ls
 8003de2:	2300      	movls	r3, #0
 8003de4:	2301      	movhi	r3, #1
 8003de6:	f8a2 311e 	strh.w	r3, [r2, #286]	@ 0x11e
		gpio_Inputs.DCI_L2H_Flag[i] |= filt_DCI[i];
 8003dea:	eb04 0681 	add.w	r6, r4, r1, lsl #2
 8003dee:	f8d6 e03a 	ldr.w	lr, [r6, #58]	@ 0x3a
 8003df2:	ea4e 0303 	orr.w	r3, lr, r3
 8003df6:	f8c6 303a 	str.w	r3, [r6, #58]	@ 0x3a
 8003dfa:	e7cf      	b.n	8003d9c <_ZN4GPIO12periodicCallEv+0x180>
  }

  gpio_Inputs.TVS_ERR = (GPIO_ReadInputData(TVS_Port) &  (TVS1_OK_Pin | TVS2_OK_Pin)) >> 9;
 8003dfc:	4808      	ldr	r0, [pc, #32]	@ (8003e20 <_ZN4GPIO12periodicCallEv+0x204>)
 8003dfe:	f007 fadb 	bl	800b3b8 <GPIO_ReadInputData>
 8003e02:	f3c0 2041 	ubfx	r0, r0, #9, #2
 8003e06:	f884 0116 	strb.w	r0, [r4, #278]	@ 0x116
}
 8003e0a:	bd70      	pop	{r4, r5, r6, pc}
 8003e0c:	40011000 	.word	0x40011000
 8003e10:	200003b0 	.word	0x200003b0
 8003e14:	2000abe0 	.word	0x2000abe0
 8003e18:	200003c0 	.word	0x200003c0
 8003e1c:	0800c36c 	.word	0x0800c36c
 8003e20:	40010800 	.word	0x40010800

08003e24 <_ZN4GPIO8IsRemoteEv>:
	IO_STATE.FLT_LCL_RTM_RAT |= !GPIO_ReadInputDataBit(IO_Port,FAULT_Pin) << 2;
	IO_STATE.FLT_LCL_RTM_RAT |= !gpio_Inputs.WP_MCU << 3;
}

uint8_t GPIO::IsRemote()
{
 8003e24:	b510      	push	{r4, lr}
 8003e26:	4604      	mov	r4, r0
      {return mGlobalManagement.mPersistentDataCenter;}
 8003e28:	4b06      	ldr	r3, [pc, #24]	@ (8003e44 <_ZN4GPIO8IsRemoteEv+0x20>)
 8003e2a:	69d8      	ldr	r0, [r3, #28]
	uint8_t src = SystemManagement::getPersistentDataCenter().Get_LocalRemoteSource();
 8003e2c:	6803      	ldr	r3, [r0, #0]
 8003e2e:	69db      	ldr	r3, [r3, #28]
 8003e30:	4798      	blx	r3
	if (src < NUM_OF_DCI)
 8003e32:	281a      	cmp	r0, #26
		return gpio_Inputs.DCI[src];
 8003e34:	bf91      	iteee	ls
 8003e36:	f814 0010 	ldrbls.w	r0, [r4, r0, lsl #1]
      {return mGlobalManagement.mCommunicationCenter;}
 8003e3a:	4b02      	ldrhi	r3, [pc, #8]	@ (8003e44 <_ZN4GPIO8IsRemoteEv+0x20>)
  inline uint8_t GetRemoteState() const {return RecivedRemote;};
 8003e3c:	699b      	ldrhi	r3, [r3, #24]
 8003e3e:	f893 085d 	ldrbhi.w	r0, [r3, #2141]	@ 0x85d
	return SystemManagement::getCommunicationCenter().GetRemoteState();
}
 8003e42:	bd10      	pop	{r4, pc}
 8003e44:	2000abe0 	.word	0x2000abe0

08003e48 <_ZN4GPIO10Get_StatusER8Dig_IO_t>:
{
 8003e48:	e92d 41f0 	stmdb	sp!, {r4, r5, r6, r7, r8, lr}
 8003e4c:	4605      	mov	r5, r0
 8003e4e:	460c      	mov	r4, r1
	IO_STATE.DCI_8to1_ORDER =0;
 8003e50:	2200      	movs	r2, #0
 8003e52:	700a      	strb	r2, [r1, #0]
	for (int i=0; i<8; i++)
 8003e54:	1e81      	subs	r1, r0, #2
		IO_STATE.DCI_8to1_ORDER |= gpio_Inputs.DCI[i] << i;
 8003e56:	f831 3f02 	ldrh.w	r3, [r1, #2]!
 8003e5a:	4093      	lsls	r3, r2
 8003e5c:	7820      	ldrb	r0, [r4, #0]
 8003e5e:	4303      	orrs	r3, r0
 8003e60:	7023      	strb	r3, [r4, #0]
	for (int i=0; i<8; i++)
 8003e62:	3201      	adds	r2, #1
 8003e64:	2a08      	cmp	r2, #8
 8003e66:	d1f6      	bne.n	8003e56 <_ZN4GPIO10Get_StatusER8Dig_IO_t+0xe>
	IO_STATE.DCI_16to9_ORDER = 0;
 8003e68:	2200      	movs	r2, #0
 8003e6a:	7062      	strb	r2, [r4, #1]
	for (int i=0; i<8; i++)
 8003e6c:	f105 010e 	add.w	r1, r5, #14
			IO_STATE.DCI_16to9_ORDER |= gpio_Inputs.DCI[i+8] << i;
 8003e70:	f831 3f02 	ldrh.w	r3, [r1, #2]!
 8003e74:	4093      	lsls	r3, r2
 8003e76:	7860      	ldrb	r0, [r4, #1]
 8003e78:	4303      	orrs	r3, r0
 8003e7a:	7063      	strb	r3, [r4, #1]
	for (int i=0; i<8; i++)
 8003e7c:	3201      	adds	r2, #1
 8003e7e:	2a08      	cmp	r2, #8
 8003e80:	d1f6      	bne.n	8003e70 <_ZN4GPIO10Get_StatusER8Dig_IO_t+0x28>
	IO_STATE.DCI_24to17_ORDER = 0;
 8003e82:	2200      	movs	r2, #0
 8003e84:	70a2      	strb	r2, [r4, #2]
	for (int i=0; i<8; i++)
 8003e86:	f105 011e 	add.w	r1, r5, #30
			IO_STATE.DCI_24to17_ORDER |= gpio_Inputs.DCI[i+16] << i;
 8003e8a:	f831 3f02 	ldrh.w	r3, [r1, #2]!
 8003e8e:	4093      	lsls	r3, r2
 8003e90:	78a0      	ldrb	r0, [r4, #2]
 8003e92:	4303      	orrs	r3, r0
 8003e94:	70a3      	strb	r3, [r4, #2]
	for (int i=0; i<8; i++)
 8003e96:	3201      	adds	r2, #1
 8003e98:	2a08      	cmp	r2, #8
 8003e9a:	d1f6      	bne.n	8003e8a <_ZN4GPIO10Get_StatusER8Dig_IO_t+0x42>
	IO_STATE.GPO_4to1_DCI_27to25_ORDER = 0;
 8003e9c:	2300      	movs	r3, #0
 8003e9e:	70e3      	strb	r3, [r4, #3]
			IO_STATE.GPO_4to1_DCI_27to25_ORDER |= gpio_Inputs.DCI[i+24] << i;
 8003ea0:	f895 2030 	ldrb.w	r2, [r5, #48]	@ 0x30
 8003ea4:	70e2      	strb	r2, [r4, #3]
 8003ea6:	8e69      	ldrh	r1, [r5, #50]	@ 0x32
 8003ea8:	ea42 0241 	orr.w	r2, r2, r1, lsl #1
 8003eac:	b2d2      	uxtb	r2, r2
 8003eae:	70e2      	strb	r2, [r4, #3]
 8003eb0:	8ea9      	ldrh	r1, [r5, #52]	@ 0x34
 8003eb2:	ea42 0281 	orr.w	r2, r2, r1, lsl #2
 8003eb6:	70e2      	strb	r2, [r4, #3]
	for (int i=0; i<3; i++)
 8003eb8:	482d      	ldr	r0, [pc, #180]	@ (8003f70 <_ZN4GPIO10Get_StatusER8Dig_IO_t+0x128>)
			IO_STATE.GPO_4to1_DCI_27to25_ORDER |= gpio_Inputs.DCI[i+24] << i;
 8003eba:	4684      	mov	ip, r0
				IO_STATE.GPO_4to1_DCI_27to25_ORDER |= (*(GPIO::GPO_MAP[i].pPort) & GPIO::GPO_MAP[i].Pin) == 0 ? 1 << (i+3) : 0;
 8003ebc:	4606      	mov	r6, r0
 8003ebe:	469e      	mov	lr, r3
 8003ec0:	2701      	movs	r7, #1
 8003ec2:	78e2      	ldrb	r2, [r4, #3]
 8003ec4:	eb03 0143 	add.w	r1, r3, r3, lsl #1
 8003ec8:	f856 8011 	ldr.w	r8, [r6, r1, lsl #1]
 8003ecc:	f8bc 1004 	ldrh.w	r1, [ip, #4]
 8003ed0:	f8b8 8000 	ldrh.w	r8, [r8]
 8003ed4:	ea18 0f01 	tst.w	r8, r1
 8003ed8:	bf03      	ittte	eq
 8003eda:	1cd9      	addeq	r1, r3, #3
 8003edc:	fa07 f101 	lsleq.w	r1, r7, r1
 8003ee0:	b249      	sxtbeq	r1, r1
 8003ee2:	4671      	movne	r1, lr
 8003ee4:	430a      	orrs	r2, r1
 8003ee6:	70e2      	strb	r2, [r4, #3]
	for (int i=0; i<5; i++)
 8003ee8:	3301      	adds	r3, #1
 8003eea:	f10c 0c06 	add.w	ip, ip, #6
 8003eee:	2b05      	cmp	r3, #5
 8003ef0:	d1e7      	bne.n	8003ec2 <_ZN4GPIO10Get_StatusER8Dig_IO_t+0x7a>
	IO_STATE.DISC1_DISC2_GPO_8to5 = 0;
 8003ef2:	2300      	movs	r3, #0
 8003ef4:	7123      	strb	r3, [r4, #4]
					IO_STATE.DISC1_DISC2_GPO_8to5 |= (*(GPIO::GPO_MAP[i+5].pPort) & GPIO::GPO_MAP[i+5].Pin) == 0 ? 1 << i : 0;
 8003ef6:	4e1e      	ldr	r6, [pc, #120]	@ (8003f70 <_ZN4GPIO10Get_StatusER8Dig_IO_t+0x128>)
 8003ef8:	469e      	mov	lr, r3
 8003efa:	f04f 0c01 	mov.w	ip, #1
 8003efe:	7921      	ldrb	r1, [r4, #4]
 8003f00:	1d5a      	adds	r2, r3, #5
 8003f02:	eb02 0242 	add.w	r2, r2, r2, lsl #1
 8003f06:	f856 7012 	ldr.w	r7, [r6, r2, lsl #1]
 8003f0a:	8c42      	ldrh	r2, [r0, #34]	@ 0x22
 8003f0c:	883f      	ldrh	r7, [r7, #0]
 8003f0e:	4217      	tst	r7, r2
 8003f10:	bf06      	itte	eq
 8003f12:	fa0c f203 	lsleq.w	r2, ip, r3
 8003f16:	b252      	sxtbeq	r2, r2
 8003f18:	4672      	movne	r2, lr
 8003f1a:	430a      	orrs	r2, r1
 8003f1c:	7122      	strb	r2, [r4, #4]
	for (int i=0; i<5; i++)
 8003f1e:	3301      	adds	r3, #1
 8003f20:	3006      	adds	r0, #6
 8003f22:	2b05      	cmp	r3, #5
 8003f24:	d1eb      	bne.n	8003efe <_ZN4GPIO10Get_StatusER8Dig_IO_t+0xb6>
	IO_STATE.FLT_LCL_RTM_RAT = GPIO_ReadInputDataBit(IO_Port,RAT_Pin);
 8003f26:	4e13      	ldr	r6, [pc, #76]	@ (8003f74 <_ZN4GPIO10Get_StatusER8Dig_IO_t+0x12c>)
 8003f28:	f44f 7180 	mov.w	r1, #256	@ 0x100
 8003f2c:	4630      	mov	r0, r6
 8003f2e:	f007 fa2a 	bl	800b386 <GPIO_ReadInputDataBit>
 8003f32:	7160      	strb	r0, [r4, #5]
	IO_STATE.FLT_LCL_RTM_RAT |= IsRemote() << 1;
 8003f34:	4628      	mov	r0, r5
 8003f36:	f7ff ff75 	bl	8003e24 <_ZN4GPIO8IsRemoteEv>
 8003f3a:	7963      	ldrb	r3, [r4, #5]
 8003f3c:	ea43 0340 	orr.w	r3, r3, r0, lsl #1
 8003f40:	7163      	strb	r3, [r4, #5]
	IO_STATE.FLT_LCL_RTM_RAT |= !GPIO_ReadInputDataBit(IO_Port,FAULT_Pin) << 2;
 8003f42:	f44f 7100 	mov.w	r1, #512	@ 0x200
 8003f46:	4630      	mov	r0, r6
 8003f48:	f007 fa1d 	bl	800b386 <GPIO_ReadInputDataBit>
 8003f4c:	fab0 f080 	clz	r0, r0
 8003f50:	0940      	lsrs	r0, r0, #5
 8003f52:	7963      	ldrb	r3, [r4, #5]
 8003f54:	ea43 0380 	orr.w	r3, r3, r0, lsl #2
 8003f58:	7163      	strb	r3, [r4, #5]
	IO_STATE.FLT_LCL_RTM_RAT |= !gpio_Inputs.WP_MCU << 3;
 8003f5a:	f895 2037 	ldrb.w	r2, [r5, #55]	@ 0x37
 8003f5e:	fab2 f282 	clz	r2, r2
 8003f62:	0952      	lsrs	r2, r2, #5
 8003f64:	ea43 03c2 	orr.w	r3, r3, r2, lsl #3
 8003f68:	7163      	strb	r3, [r4, #5]
}
 8003f6a:	e8bd 81f0 	ldmia.w	sp!, {r4, r5, r6, r7, r8, pc}
 8003f6e:	bf00      	nop
 8003f70:	0800c330 	.word	0x0800c330
 8003f74:	40011000 	.word	0x40011000

08003f78 <_ZN4GPIO15GetAddressFirstEv>:
{
 8003f78:	b570      	push	{r4, r5, r6, lr}
 8003f7a:	4604      	mov	r4, r0
 8003f7c:	f44f 7596 	mov.w	r5, #300	@ 0x12c
		SlavePortOut[0] |= 0x7 << 9;
 8003f80:	4e10      	ldr	r6, [pc, #64]	@ (8003fc4 <_ZN4GPIO15GetAddressFirstEv+0x4c>)
 8003f82:	8833      	ldrh	r3, [r6, #0]
 8003f84:	f443 6360 	orr.w	r3, r3, #3584	@ 0xe00
 8003f88:	8033      	strh	r3, [r6, #0]
		periodicCall();
 8003f8a:	4620      	mov	r0, r4
 8003f8c:	f7ff fe46 	bl	8003c1c <_ZN4GPIO12periodicCallEv>
  	return *(uint32_t *)(SlavePortIn +5);
  }
  uint8_t IsRemote();
  uint8_t GetAddress()
  {
	  return (((~SlavePortIn[0]) >> 8) & 0x0E) | IsRemote();
 8003f90:	4620      	mov	r0, r4
 8003f92:	f7ff ff47 	bl	8003e24 <_ZN4GPIO8IsRemoteEv>
 8003f96:	4620      	mov	r0, r4
 8003f98:	f7ff ff44 	bl	8003e24 <_ZN4GPIO8IsRemoteEv>
 8003f9c:	4620      	mov	r0, r4
 8003f9e:	f7ff ff41 	bl	8003e24 <_ZN4GPIO8IsRemoteEv>
 8003fa2:	4620      	mov	r0, r4
 8003fa4:	f7ff ff3e 	bl	8003e24 <_ZN4GPIO8IsRemoteEv>
	for (int j=0; j<300; j++)
 8003fa8:	3d01      	subs	r5, #1
 8003faa:	d1ea      	bne.n	8003f82 <_ZN4GPIO15GetAddressFirstEv+0xa>
 8003fac:	4b06      	ldr	r3, [pc, #24]	@ (8003fc8 <_ZN4GPIO15GetAddressFirstEv+0x50>)
 8003fae:	881d      	ldrh	r5, [r3, #0]
 8003fb0:	ea6f 2515 	mvn.w	r5, r5, lsr #8
 8003fb4:	f005 050e 	and.w	r5, r5, #14
 8003fb8:	4620      	mov	r0, r4
 8003fba:	f7ff ff33 	bl	8003e24 <_ZN4GPIO8IsRemoteEv>
 8003fbe:	4328      	orrs	r0, r5
}
 8003fc0:	b2c0      	uxtb	r0, r0
 8003fc2:	bd70      	pop	{r4, r5, r6, pc}
 8003fc4:	200003c0 	.word	0x200003c0
 8003fc8:	200003b0 	.word	0x200003b0

08003fcc <_ZN4GPIO15Get_GPIO_InputsEP11GPIO_Inputs>:

void GPIO::Get_GPIO_Inputs(GPIO_Inputs *res)
{
 8003fcc:	b510      	push	{r4, lr}
 8003fce:	4604      	mov	r4, r0
 8003fd0:	4608      	mov	r0, r1
  *res = gpio_Inputs;
 8003fd2:	f240 1217 	movw	r2, #279	@ 0x117
 8003fd6:	4621      	mov	r1, r4
 8003fd8:	f008 f912 	bl	800c200 <memcpy>
  gpio_Inputs.RAT_L2H_Flag = 0;
 8003fdc:	2300      	movs	r3, #0
 8003fde:	f884 3114 	strb.w	r3, [r4, #276]	@ 0x114
  gpio_Inputs.SHDN_H2L_Flag = 0;
 8003fe2:	f884 3115 	strb.w	r3, [r4, #277]	@ 0x115
  for(int j=0;j<NUM_OF_DCI;j++)
  {
    gpio_Inputs.DCI_L2H_Flag[j] = 0;
 8003fe6:	4619      	mov	r1, r3
 8003fe8:	eb04 0283 	add.w	r2, r4, r3, lsl #2
 8003fec:	f8c2 103a 	str.w	r1, [r2, #58]	@ 0x3a
    gpio_Inputs.DCI_H2L_Flag[j] = 0;
 8003ff0:	f8c2 10a6 	str.w	r1, [r2, #166]	@ 0xa6
  for(int j=0;j<NUM_OF_DCI;j++)
 8003ff4:	3301      	adds	r3, #1
 8003ff6:	2b1b      	cmp	r3, #27
 8003ff8:	d1f6      	bne.n	8003fe8 <_ZN4GPIO15Get_GPIO_InputsEP11GPIO_Inputs+0x1c>
  }
  gpio_Inputs.STATE_H2L = 0;
 8003ffa:	2300      	movs	r3, #0
 8003ffc:	f884 3113 	strb.w	r3, [r4, #275]	@ 0x113
  gpio_Inputs.STATE_L2H = 0;
 8004000:	f884 3112 	strb.w	r3, [r4, #274]	@ 0x112
}
 8004004:	bd10      	pop	{r4, pc}
	...

08004008 <_ZN4GPIO7Set_GPOEhh>:

ErrorStatus GPIO::Set_GPO(uint8_t GPO_num, uint8_t newValue)
{
	  if (GPO_num >= 10)
 8004008:	2909      	cmp	r1, #9
 800400a:	d81f      	bhi.n	800404c <_ZN4GPIO7Set_GPOEhh+0x44>
		  return ERROR;
	  if (newValue / 2 > 0)
 800400c:	2a01      	cmp	r2, #1
 800400e:	d81f      	bhi.n	8004050 <_ZN4GPIO7Set_GPOEhh+0x48>
		  return ERROR;
  if (newValue != 0)
 8004010:	b162      	cbz	r2, 800402c <_ZN4GPIO7Set_GPOEhh+0x24>
  {
	  *(GPIO::GPO_MAP[GPO_num].pPort) |=  GPIO::GPO_MAP[GPO_num].Pin;
 8004012:	4b10      	ldr	r3, [pc, #64]	@ (8004054 <_ZN4GPIO7Set_GPOEhh+0x4c>)
 8004014:	eb01 0241 	add.w	r2, r1, r1, lsl #1
 8004018:	f853 0012 	ldr.w	r0, [r3, r2, lsl #1]
 800401c:	eb03 0342 	add.w	r3, r3, r2, lsl #1
 8004020:	8802      	ldrh	r2, [r0, #0]
 8004022:	889b      	ldrh	r3, [r3, #4]
 8004024:	4313      	orrs	r3, r2
 8004026:	8003      	strh	r3, [r0, #0]
  }
  else
  {
	  *(GPIO::GPO_MAP[GPO_num].pPort) &= ~(GPIO::GPO_MAP[GPO_num].Pin);
  }
  return SUCCESS;
 8004028:	2001      	movs	r0, #1
 800402a:	4770      	bx	lr
	  *(GPIO::GPO_MAP[GPO_num].pPort) &= ~(GPIO::GPO_MAP[GPO_num].Pin);
 800402c:	4b09      	ldr	r3, [pc, #36]	@ (8004054 <_ZN4GPIO7Set_GPOEhh+0x4c>)
 800402e:	eb01 0241 	add.w	r2, r1, r1, lsl #1
 8004032:	f853 2012 	ldr.w	r2, [r3, r2, lsl #1]
 8004036:	eb01 0141 	add.w	r1, r1, r1, lsl #1
 800403a:	eb03 0341 	add.w	r3, r3, r1, lsl #1
 800403e:	8899      	ldrh	r1, [r3, #4]
 8004040:	8813      	ldrh	r3, [r2, #0]
 8004042:	ea23 0301 	bic.w	r3, r3, r1
 8004046:	8013      	strh	r3, [r2, #0]
  return SUCCESS;
 8004048:	2001      	movs	r0, #1
 800404a:	4770      	bx	lr
		  return ERROR;
 800404c:	2000      	movs	r0, #0
 800404e:	4770      	bx	lr
		  return ERROR;
 8004050:	2000      	movs	r0, #0
}
 8004052:	4770      	bx	lr
 8004054:	0800c330 	.word	0x0800c330

08004058 <_ZN4GPIO8SetFaultE15FunctionalState>:

/* This function updates the fault output */
void GPIO::SetFault(FunctionalState enable)
{
 8004058:	b508      	push	{r3, lr}
  if (enable) {
 800405a:	b129      	cbz	r1, 8004068 <_ZN4GPIO8SetFaultE15FunctionalState+0x10>
    GPIO_SetBits(IO_Port,FAULT_Pin);
 800405c:	f44f 7100 	mov.w	r1, #512	@ 0x200
 8004060:	4804      	ldr	r0, [pc, #16]	@ (8004074 <_ZN4GPIO8SetFaultE15FunctionalState+0x1c>)
 8004062:	f007 f9ce 	bl	800b402 <GPIO_SetBits>
  } else {
    GPIO_ResetBits(IO_Port,FAULT_Pin);
  }
}
 8004066:	bd08      	pop	{r3, pc}
    GPIO_ResetBits(IO_Port,FAULT_Pin);
 8004068:	f44f 7100 	mov.w	r1, #512	@ 0x200
 800406c:	4801      	ldr	r0, [pc, #4]	@ (8004074 <_ZN4GPIO8SetFaultE15FunctionalState+0x1c>)
 800406e:	f007 f9d6 	bl	800b41e <GPIO_ResetBits>
}
 8004072:	e7f8      	b.n	8004066 <_ZN4GPIO8SetFaultE15FunctionalState+0xe>
 8004074:	40011000 	.word	0x40011000

08004078 <_ZN14HardwareCenterC1Ev>:



HardwareCenter* HardwareCenter::mSingelton = NULL;

HardwareCenter::HardwareCenter():
 8004078:	b538      	push	{r3, r4, r5, lr}
 800407a:	4604      	mov	r4, r0
		CommStat(0),
 800407c:	2300      	movs	r3, #0
 800407e:	7003      	strb	r3, [r0, #0]
		OverTemp(FunctionalState::ENABLE),
 8004080:	2201      	movs	r2, #1
 8004082:	7042      	strb	r2, [r0, #1]
		TempWarning(FunctionalState::DISABLE),
 8004084:	7083      	strb	r3, [r0, #2]
    if (mSingelton == NULL)
 8004086:	4b1f      	ldr	r3, [pc, #124]	@ (8004104 <_ZN14HardwareCenterC1Ev+0x8c>)
 8004088:	681b      	ldr	r3, [r3, #0]
 800408a:	b343      	cbz	r3, 80040de <_ZN14HardwareCenterC1Ev+0x66>
    return *mSingelton; 
 800408c:	4b1d      	ldr	r3, [pc, #116]	@ (8004104 <_ZN14HardwareCenterC1Ev+0x8c>)
		IOs(GPIO::GetInstance()),
 800408e:	681b      	ldr	r3, [r3, #0]
 8004090:	6063      	str	r3, [r4, #4]
		state(0),
 8004092:	2300      	movs	r3, #0
 8004094:	f884 311f 	strb.w	r3, [r4, #287]	@ 0x11f
  int16_t				INPUT_VOLT;
  int16_t				INPUT_CURR;
  Dig_IO_t              IO_STATE;
  int16_t				TEMP;
  uint8_t				ERROR_STAT;
} Status_Msg_T;
 8004098:	f884 3160 	strb.w	r3, [r4, #352]	@ 0x160
 800409c:	2278      	movs	r2, #120	@ 0x78
 800409e:	f884 2161 	strb.w	r2, [r4, #353]	@ 0x161
 80040a2:	f884 31d7 	strb.w	r3, [r4, #471]	@ 0x1d7
 80040a6:	f884 21d8 	strb.w	r2, [r4, #472]	@ 0x1d8


class ADC_DRV {
public:
	static ADC_DRV&	Get_Instance(){
		if (!m_pInstance)   // Only allow one instance of class to be generated
 80040aa:	4b17      	ldr	r3, [pc, #92]	@ (8004108 <_ZN14HardwareCenterC1Ev+0x90>)
 80040ac:	681b      	ldr	r3, [r3, #0]
 80040ae:	b303      	cbz	r3, 80040f2 <_ZN14HardwareCenterC1Ev+0x7a>
			m_pInstance = new ADC_DRV;
		return *m_pInstance;;
 80040b0:	4b15      	ldr	r3, [pc, #84]	@ (8004108 <_ZN14HardwareCenterC1Ev+0x90>)
		ADC(ADC_DRV::Get_Instance()),
 80040b2:	681b      	ldr	r3, [r3, #0]
 80040b4:	f8c4 3250 	str.w	r3, [r4, #592]	@ 0x250
		Address(SystemManagement::getAddress())
 80040b8:	f504 7015 	add.w	r0, r4, #596	@ 0x254
 80040bc:	f000 fcb9 	bl	8004a32 <_ZN7Macro_OC1Ev>
  static uint8_t& getAddress()
  {return mGlobalManagement.mAddress;}
 80040c0:	4b12      	ldr	r3, [pc, #72]	@ (800410c <_ZN14HardwareCenterC1Ev+0x94>)
 80040c2:	6a1b      	ldr	r3, [r3, #32]
 80040c4:	f8c4 32b4 	str.w	r3, [r4, #692]	@ 0x2b4
{
  for (int i=0 ; i<NUM_OF_CB; i++)
 80040c8:	f504 738e 	add.w	r3, r4, #284	@ 0x11c
 80040cc:	f504 71ae 	add.w	r1, r4, #348	@ 0x15c
    mOutOnTime[i] = 0;
 80040d0:	2200      	movs	r2, #0
 80040d2:	f843 2f04 	str.w	r2, [r3, #4]!
  for (int i=0 ; i<NUM_OF_CB; i++)
 80040d6:	428b      	cmp	r3, r1
 80040d8:	d1fb      	bne.n	80040d2 <_ZN14HardwareCenterC1Ev+0x5a>
}
 80040da:	4620      	mov	r0, r4
 80040dc:	bd38      	pop	{r3, r4, r5, pc}
      mSingelton = new GPIO;
 80040de:	f44f 70c8 	mov.w	r0, #400	@ 0x190
 80040e2:	f007 ff09 	bl	800bef8 <_Znwj>
 80040e6:	4605      	mov	r5, r0
 80040e8:	f7ff fcfa 	bl	8003ae0 <_ZN4GPIOC1Ev>
 80040ec:	4b05      	ldr	r3, [pc, #20]	@ (8004104 <_ZN14HardwareCenterC1Ev+0x8c>)
 80040ee:	601d      	str	r5, [r3, #0]
 80040f0:	e7cc      	b.n	800408c <_ZN14HardwareCenterC1Ev+0x14>
			m_pInstance = new ADC_DRV;
 80040f2:	2006      	movs	r0, #6
 80040f4:	f007 ff00 	bl	800bef8 <_Znwj>
 80040f8:	4605      	mov	r5, r0
 80040fa:	f7fe fd25 	bl	8002b48 <_ZN7ADC_DRVC1Ev>
 80040fe:	4b02      	ldr	r3, [pc, #8]	@ (8004108 <_ZN14HardwareCenterC1Ev+0x90>)
 8004100:	601d      	str	r5, [r3, #0]
 8004102:	e7d5      	b.n	80040b0 <_ZN14HardwareCenterC1Ev+0x38>
 8004104:	200003d0 	.word	0x200003d0
 8004108:	200000ac 	.word	0x200000ac
 800410c:	2000abe0 	.word	0x2000abe0

08004110 <_ZN14HardwareCenter12GetStatusEXTER12Status_EXT_T>:
    
  return;
}

ErrorStatus HardwareCenter::GetStatusEXT(Status_EXT_T& StatusEXT)
{
 8004110:	b570      	push	{r4, r5, r6, lr}
 8004112:	4606      	mov	r6, r0
 8004114:	460c      	mov	r4, r1
	static int16_t OUT_CURRENT[NUM_OF_CB];
	CB_Int::HandleGetStatusOutCurr(OUT_CURRENT);
 8004116:	4d20      	ldr	r5, [pc, #128]	@ (8004198 <_ZN14HardwareCenter12GetStatusEXTER12Status_EXT_T+0x88>)
 8004118:	4628      	mov	r0, r5
 800411a:	f7fe fe89 	bl	8002e30 <_ZN6CB_Int22HandleGetStatusOutCurrEPs>
  	return *(uint32_t *)(SlavePortIn +5);
 800411e:	4b1f      	ldr	r3, [pc, #124]	@ (800419c <_ZN14HardwareCenter12GetStatusEXTER12Status_EXT_T+0x8c>)
 8004120:	f8d3 300a 	ldr.w	r3, [r3, #10]
	StatusEXT.ETC = GPIO::GetETC();
 8004124:	f8c4 3002 	str.w	r3, [r4, #2]
	StatusEXT.INPUT_CURR_1 = 0;
 8004128:	2300      	movs	r3, #0
 800412a:	72a3      	strb	r3, [r4, #10]
 800412c:	72e3      	strb	r3, [r4, #11]
	StatusEXT.INPUT_CURR_2 = 0;
 800412e:	7323      	strb	r3, [r4, #12]
 8004130:	7363      	strb	r3, [r4, #13]
	  for(int i = 0; i < NUM_OF_CB; ++i)
 8004132:	462a      	mov	r2, r5
 8004134:	e008      	b.n	8004148 <_ZN14HardwareCenter12GetStatusEXTER12Status_EXT_T+0x38>
		  if(i<8)
			  StatusEXT.INPUT_CURR_1 += (OUT_CURRENT[i]);
		  else
			  StatusEXT.INPUT_CURR_2 += (OUT_CURRENT[i]);
 8004136:	f9b4 100c 	ldrsh.w	r1, [r4, #12]
 800413a:	f832 0b02 	ldrh.w	r0, [r2], #2
 800413e:	4401      	add	r1, r0
 8004140:	81a1      	strh	r1, [r4, #12]
	  for(int i = 0; i < NUM_OF_CB; ++i)
 8004142:	3301      	adds	r3, #1
 8004144:	2b10      	cmp	r3, #16
 8004146:	d009      	beq.n	800415c <_ZN14HardwareCenter12GetStatusEXTER12Status_EXT_T+0x4c>
		  if(i<8)
 8004148:	2b07      	cmp	r3, #7
 800414a:	dcf4      	bgt.n	8004136 <_ZN14HardwareCenter12GetStatusEXTER12Status_EXT_T+0x26>
			  StatusEXT.INPUT_CURR_1 += (OUT_CURRENT[i]);
 800414c:	f9b4 100a 	ldrsh.w	r1, [r4, #10]
 8004150:	f832 0b02 	ldrh.w	r0, [r2], #2
 8004154:	4401      	add	r1, r0
 8004156:	8161      	strh	r1, [r4, #10]
	  for(int i = 0; i < NUM_OF_CB; ++i)
 8004158:	3301      	adds	r3, #1
 800415a:	e7f5      	b.n	8004148 <_ZN14HardwareCenter12GetStatusEXTER12Status_EXT_T+0x38>
	  StatusEXT.INPUT_VOLT_1 = ADC.Get_ADC_Specific_Input_Data(ADC_Inputs_Enum::ADC_In_Vin_Sense1);
 800415c:	2101      	movs	r1, #1
 800415e:	f8d6 0250 	ldr.w	r0, [r6, #592]	@ 0x250
 8004162:	f7fe fcfb 	bl	8002b5c <_ZN7ADC_DRV27Get_ADC_Specific_Input_DataE15ADC_Inputs_Enum>
 8004166:	80e0      	strh	r0, [r4, #6]
	  StatusEXT.INPUT_VOLT_2 = ADC.Get_ADC_Specific_Input_Data(ADC_Inputs_Enum::ADC_In_Vin_Sense2);
 8004168:	2102      	movs	r1, #2
 800416a:	f8d6 0250 	ldr.w	r0, [r6, #592]	@ 0x250
 800416e:	f7fe fcf5 	bl	8002b5c <_ZN7ADC_DRV27Get_ADC_Specific_Input_DataE15ADC_Inputs_Enum>
 8004172:	8120      	strh	r0, [r4, #8]

	  StatusEXT.TVS_STAT = ins.TVS_ERR & ((StatusEXT.INPUT_VOLT_1 > 5*16) | ((StatusEXT.INPUT_VOLT_2 > 5*16) << 1U));
 8004174:	f9b4 2006 	ldrsh.w	r2, [r4, #6]
 8004178:	2850      	cmp	r0, #80	@ 0x50
 800417a:	bfd4      	ite	le
 800417c:	2300      	movle	r3, #0
 800417e:	2301      	movgt	r3, #1
 8004180:	005b      	lsls	r3, r3, #1
 8004182:	2a50      	cmp	r2, #80	@ 0x50
 8004184:	bfc8      	it	gt
 8004186:	f043 0301 	orrgt.w	r3, r3, #1
 800418a:	f896 211e 	ldrb.w	r2, [r6, #286]	@ 0x11e
 800418e:	4013      	ands	r3, r2
 8004190:	73a3      	strb	r3, [r4, #14]
	  return ErrorStatus::SUCCESS;
}
 8004192:	2001      	movs	r0, #1
 8004194:	bd70      	pop	{r4, r5, r6, pc}
 8004196:	bf00      	nop
 8004198:	200003d4 	.word	0x200003d4
 800419c:	200003b0 	.word	0x200003b0

080041a0 <_ZN14HardwareCenter9GetStatusER12Status_Msg_T>:

ErrorStatus HardwareCenter::GetStatus(Status_Msg_T& Status)
{
 80041a0:	e92d 4ff0 	stmdb	sp!, {r4, r5, r6, r7, r8, r9, sl, fp, lr}
 80041a4:	b083      	sub	sp, #12
 80041a6:	4606      	mov	r6, r0
 80041a8:	460d      	mov	r5, r1
	int16_t INPUT_VIN[2];
  /* Initializations */
  Status.INPUT_CURR = 0;
 80041aa:	2400      	movs	r4, #0
 80041ac:	f881 406c 	strb.w	r4, [r1, #108]	@ 0x6c
 80041b0:	f881 406d 	strb.w	r4, [r1, #109]	@ 0x6d
  Status.SW_STATE = CB_Int::HandleGetStatusSWState();
 80041b4:	f7fe fdaa 	bl	8002d0c <_ZN6CB_Int22HandleGetStatusSWStateEv>
 80041b8:	8068      	strh	r0, [r5, #2]
  Status.SW_CMD   = CB_Int::HandleGetStatusSWCmd();
 80041ba:	f7fe fdb9 	bl	8002d30 <_ZN6CB_Int20HandleGetStatusSWCmdEv>
 80041be:	80a8      	strh	r0, [r5, #4]
  CB_Int::HandleGetStatusTripStat(Status.TRIP_STAT);  
 80041c0:	1da8      	adds	r0, r5, #6
 80041c2:	f7fe fdc7 	bl	8002d54 <_ZN6CB_Int23HandleGetStatusTripStatEPh>
  Status.BTL_MODE = CB_Int::HandleGetStatusBtlMode();
 80041c6:	f7fe fdf7 	bl	8002db8 <_ZN6CB_Int22HandleGetStatusBtlModeEv>
 80041ca:	82e8      	strh	r0, [r5, #22]
  CB_Int::HandleGetStatusOutVolt(Status.OUT_VOLT);
 80041cc:	f105 001a 	add.w	r0, r5, #26
 80041d0:	f7fe fe20 	bl	8002e14 <_ZN6CB_Int22HandleGetStatusOutVoltEPs>
  CB_Int::HandleGetStatusOutCurr(Status.OUT_CURR);
 80041d4:	f105 003a 	add.w	r0, r5, #58	@ 0x3a
 80041d8:	f7fe fe2a 	bl	8002e30 <_ZN6CB_Int22HandleGetStatusOutCurrEPs>
  for (int i = 0; i < NUM_OF_CB; ++i)
 80041dc:	f105 0759 	add.w	r7, r5, #89	@ 0x59
    Status.CHANNEL_GROUP[i] = CB_Int::getGroupOfSpecificCB(i);
 80041e0:	b2e0      	uxtb	r0, r4
 80041e2:	f7fe fd8b 	bl	8002cfc <_ZN6CB_Int20getGroupOfSpecificCBEh>
 80041e6:	f807 0f01 	strb.w	r0, [r7, #1]!
  for (int i = 0; i < NUM_OF_CB; ++i)
 80041ea:	3401      	adds	r4, #1
 80041ec:	2c10      	cmp	r4, #16
 80041ee:	d1f7      	bne.n	80041e0 <_ZN14HardwareCenter9GetStatusER12Status_Msg_T+0x40>
  INPUT_VIN[0] = ADC.Get_ADC_Specific_Input_Data(ADC_Inputs_Enum::ADC_In_Vin_Sense1);
 80041f0:	2101      	movs	r1, #1
 80041f2:	f8d6 0250 	ldr.w	r0, [r6, #592]	@ 0x250
 80041f6:	f7fe fcb1 	bl	8002b5c <_ZN7ADC_DRV27Get_ADC_Specific_Input_DataE15ADC_Inputs_Enum>
 80041fa:	4680      	mov	r8, r0
 80041fc:	f8ad 0004 	strh.w	r0, [sp, #4]
  INPUT_VIN[1] = ADC.Get_ADC_Specific_Input_Data(ADC_Inputs_Enum::ADC_In_Vin_Sense2);
 8004200:	2102      	movs	r1, #2
 8004202:	f8d6 0250 	ldr.w	r0, [r6, #592]	@ 0x250
 8004206:	f7fe fca9 	bl	8002b5c <_ZN7ADC_DRV27Get_ADC_Specific_Input_DataE15ADC_Inputs_Enum>
 800420a:	4681      	mov	r9, r0
 800420c:	f8ad 0006 	strh.w	r0, [sp, #6]
  Status.INPUT_VOLT = INPUT_VIN[0]>INPUT_VIN[1]?INPUT_VIN[0]:INPUT_VIN[1];
 8004210:	4643      	mov	r3, r8
 8004212:	4580      	cmp	r8, r0
 8004214:	bfb8      	it	lt
 8004216:	4603      	movlt	r3, r0
 8004218:	f8a5 306a 	strh.w	r3, [r5, #106]	@ 0x6a
  for(int i = 0; i < NUM_OF_CB; ++i)
 800421c:	f9b5 306c 	ldrsh.w	r3, [r5, #108]	@ 0x6c
 8004220:	2200      	movs	r2, #0
    Status.INPUT_CURR += (Status.OUT_CURR[i]);
 8004222:	f102 011c 	add.w	r1, r2, #28
 8004226:	eb05 0141 	add.w	r1, r5, r1, lsl #1
 800422a:	f9b1 1002 	ldrsh.w	r1, [r1, #2]
 800422e:	440b      	add	r3, r1
 8004230:	b21b      	sxth	r3, r3
  for(int i = 0; i < NUM_OF_CB; ++i)
 8004232:	3201      	adds	r2, #1
 8004234:	2a10      	cmp	r2, #16
 8004236:	d1f4      	bne.n	8004222 <_ZN14HardwareCenter9GetStatusER12Status_Msg_T+0x82>
 8004238:	f8a5 306c 	strh.w	r3, [r5, #108]	@ 0x6c
  Status.TEMP = ADC.Get_ADC_Specific_Input_Data(ADC_Inputs_Enum::ADC_In_Temp); 
 800423c:	2100      	movs	r1, #0
 800423e:	f8d6 0250 	ldr.w	r0, [r6, #592]	@ 0x250
 8004242:	f7fe fc8b 	bl	8002b5c <_ZN7ADC_DRV27Get_ADC_Specific_Input_DataE15ADC_Inputs_Enum>
 8004246:	f8a5 0074 	strh.w	r0, [r5, #116]	@ 0x74
  IOs.Get_Status(Status.IO_STATE);
 800424a:	f105 016e 	add.w	r1, r5, #110	@ 0x6e
 800424e:	6870      	ldr	r0, [r6, #4]
 8004250:	f7ff fdfa 	bl	8003e48 <_ZN4GPIO10Get_StatusER8Dig_IO_t>
  Status.BIT = 0;
 8004254:	2400      	movs	r4, #0
 8004256:	762c      	strb	r4, [r5, #24]
 8004258:	766c      	strb	r4, [r5, #25]
  for (int i=0; i < NUM_OF_CB ; i++)
 800425a:	f506 778e 	add.w	r7, r6, #284	@ 0x11c
    /* different checks to see if switch is On */
    uint8_t A = (Status.SW_STATE >> i) & 0x01; 
    uint8_t B = (INPUT_VIN[i/8] - Status.OUT_VOLT[i]) < (1.5*16);
    uint8_t C = Status.OUT_CURR[i] > (0.5*16);  
    uint8_t D = Status.OUT_VOLT[i] > (5*16); 
    Status.BIT |= ( !(A||C||D) || (A&&B)) ? 0 : 1<<i;
 800425e:	f04f 0a01 	mov.w	sl, #1
 8004262:	46a3      	mov	fp, r4
 8004264:	e010      	b.n	8004288 <_ZN14HardwareCenter9GetStatusER12Status_Msg_T+0xe8>
      mOutOnTime[i] = getTimerTicks() + 500;
 8004266:	f006 f833 	bl	800a2d0 <getTimerTicks>
 800426a:	f500 70fa 	add.w	r0, r0, #500	@ 0x1f4
 800426e:	6078      	str	r0, [r7, #4]
 8004270:	e00f      	b.n	8004292 <_ZN14HardwareCenter9GetStatusER12Status_Msg_T+0xf2>
    uint8_t B = (INPUT_VIN[i/8] - Status.OUT_VOLT[i]) < (1.5*16);
 8004272:	1a09      	subs	r1, r1, r0
    Status.BIT |= ( !(A||C||D) || (A&&B)) ? 0 : 1<<i;
 8004274:	2917      	cmp	r1, #23
 8004276:	dd2f      	ble.n	80042d8 <_ZN14HardwareCenter9GetStatusER12Status_Msg_T+0x138>
 8004278:	fa0a f204 	lsl.w	r2, sl, r4
 800427c:	b212      	sxth	r2, r2
 800427e:	4313      	orrs	r3, r2
 8004280:	832b      	strh	r3, [r5, #24]
  for (int i=0; i < NUM_OF_CB ; i++)
 8004282:	3401      	adds	r4, #1
 8004284:	2c10      	cmp	r4, #16
 8004286:	d029      	beq.n	80042dc <_ZN14HardwareCenter9GetStatusER12Status_Msg_T+0x13c>
    if (LastStatus.SW_STATE != Status.SW_STATE)
 8004288:	f8b6 21d9 	ldrh.w	r2, [r6, #473]	@ 0x1d9
 800428c:	886b      	ldrh	r3, [r5, #2]
 800428e:	429a      	cmp	r2, r3
 8004290:	d1e9      	bne.n	8004266 <_ZN14HardwareCenter9GetStatusER12Status_Msg_T+0xc6>
    if ( getTimerTicks() < mOutOnTime[i])
 8004292:	f006 f81d 	bl	800a2d0 <getTimerTicks>
 8004296:	f857 3f04 	ldr.w	r3, [r7, #4]!
 800429a:	4298      	cmp	r0, r3
 800429c:	d3f1      	bcc.n	8004282 <_ZN14HardwareCenter9GetStatusER12Status_Msg_T+0xe2>
    uint8_t B = (INPUT_VIN[i/8] - Status.OUT_VOLT[i]) < (1.5*16);
 800429e:	4623      	mov	r3, r4
 80042a0:	2c00      	cmp	r4, #0
 80042a2:	bfb8      	it	lt
 80042a4:	1de3      	addlt	r3, r4, #7
 80042a6:	10db      	asrs	r3, r3, #3
 80042a8:	aa02      	add	r2, sp, #8
 80042aa:	eb02 0343 	add.w	r3, r2, r3, lsl #1
 80042ae:	f933 1c04 	ldrsh.w	r1, [r3, #-4]
 80042b2:	eb05 0344 	add.w	r3, r5, r4, lsl #1
 80042b6:	f9b3 001a 	ldrsh.w	r0, [r3, #26]
    uint8_t C = Status.OUT_CURR[i] > (0.5*16);  
 80042ba:	f9b3 c03a 	ldrsh.w	ip, [r3, #58]	@ 0x3a
    Status.BIT |= ( !(A||C||D) || (A&&B)) ? 0 : 1<<i;
 80042be:	8b2b      	ldrh	r3, [r5, #24]
    uint8_t A = (Status.SW_STATE >> i) & 0x01; 
 80042c0:	886a      	ldrh	r2, [r5, #2]
 80042c2:	4122      	asrs	r2, r4
    Status.BIT |= ( !(A||C||D) || (A&&B)) ? 0 : 1<<i;
 80042c4:	f012 0f01 	tst.w	r2, #1
 80042c8:	d1d3      	bne.n	8004272 <_ZN14HardwareCenter9GetStatusER12Status_Msg_T+0xd2>
 80042ca:	f1bc 0f08 	cmp.w	ip, #8
 80042ce:	dcd3      	bgt.n	8004278 <_ZN14HardwareCenter9GetStatusER12Status_Msg_T+0xd8>
 80042d0:	2850      	cmp	r0, #80	@ 0x50
 80042d2:	dcd1      	bgt.n	8004278 <_ZN14HardwareCenter9GetStatusER12Status_Msg_T+0xd8>
 80042d4:	465a      	mov	r2, fp
 80042d6:	e7d2      	b.n	800427e <_ZN14HardwareCenter9GetStatusER12Status_Msg_T+0xde>
 80042d8:	465a      	mov	r2, fp
 80042da:	e7d0      	b.n	800427e <_ZN14HardwareCenter9GetStatusER12Status_Msg_T+0xde>
  }

  
  Status.ERROR_STAT = 0;
 80042dc:	2100      	movs	r1, #0
 80042de:	f885 1076 	strb.w	r1, [r5, #118]	@ 0x76
  for (int i=0; i< NUM_OF_CB; i++){
 80042e2:	1d6a      	adds	r2, r5, #5
 80042e4:	f105 0015 	add.w	r0, r5, #21
  Status.ERROR_STAT = 0;
 80042e8:	4613      	mov	r3, r2
    Status.ERROR_STAT |= Status.TRIP_STAT[i] ? 0x01 : 0 ;
 80042ea:	f813 4f01 	ldrb.w	r4, [r3, #1]!
 80042ee:	2c00      	cmp	r4, #0
 80042f0:	bf18      	it	ne
 80042f2:	f041 0101 	orrne.w	r1, r1, #1
  for (int i=0; i< NUM_OF_CB; i++){
 80042f6:	4283      	cmp	r3, r0
 80042f8:	d1f7      	bne.n	80042ea <_ZN14HardwareCenter9GetStatusER12Status_Msg_T+0x14a>
  }
  Status.ERROR_STAT |= Status.BIT ? 0x02 : 0;
 80042fa:	8b2b      	ldrh	r3, [r5, #24]
 80042fc:	3b00      	subs	r3, #0
 80042fe:	bf18      	it	ne
 8004300:	2301      	movne	r3, #1
 8004302:	ea41 0343 	orr.w	r3, r1, r3, lsl #1
 8004306:	b2db      	uxtb	r3, r3
 8004308:	f885 3076 	strb.w	r3, [r5, #118]	@ 0x76
  Status.ERROR_STAT |= (TempWarning) ? 0x04 : 0;
 800430c:	78b1      	ldrb	r1, [r6, #2]
 800430e:	3900      	subs	r1, #0
 8004310:	bf18      	it	ne
 8004312:	2101      	movne	r1, #1
 8004314:	ea43 0381 	orr.w	r3, r3, r1, lsl #2
 8004318:	f885 3076 	strb.w	r3, [r5, #118]	@ 0x76
  uint8_t TVS_STAT = ins.TVS_ERR & ((INPUT_VIN[0] > 5*16) | ((INPUT_VIN[1] > 5*16) << 1U));
 800431c:	f1b9 0f50 	cmp.w	r9, #80	@ 0x50
 8004320:	bfd4      	ite	le
 8004322:	f04f 0900 	movle.w	r9, #0
 8004326:	f04f 0901 	movgt.w	r9, #1
 800432a:	f1b8 0f50 	cmp.w	r8, #80	@ 0x50
 800432e:	bfd4      	ite	le
 8004330:	2100      	movle	r1, #0
 8004332:	2101      	movgt	r1, #1
 8004334:	ea41 0149 	orr.w	r1, r1, r9, lsl #1
 8004338:	f896 411e 	ldrb.w	r4, [r6, #286]	@ 0x11e
  Status.ERROR_STAT |= TVS_STAT ? 0x02 : 0;
 800433c:	4221      	tst	r1, r4
 800433e:	bf14      	ite	ne
 8004340:	2101      	movne	r1, #1
 8004342:	2100      	moveq	r1, #0
 8004344:	ea43 0341 	orr.w	r3, r3, r1, lsl #1
 8004348:	f885 3076 	strb.w	r3, [r5, #118]	@ 0x76
  
  for (int i=0; i<NUM_OF_CB; i++)
 800434c:	f206 1165 	addw	r1, r6, #357	@ 0x165
  {
    StatusAlert.TRIP_STAT[i] = Status.TRIP_STAT[i] & (~LastStatus.TRIP_STAT[i]);
 8004350:	f891 4078 	ldrb.w	r4, [r1, #120]	@ 0x78
 8004354:	f812 3f01 	ldrb.w	r3, [r2, #1]!
 8004358:	ea23 0304 	bic.w	r3, r3, r4
 800435c:	f801 3f01 	strb.w	r3, [r1, #1]!
  for (int i=0; i<NUM_OF_CB; i++)
 8004360:	4282      	cmp	r2, r0
 8004362:	d1f5      	bne.n	8004350 <_ZN14HardwareCenter9GetStatusER12Status_Msg_T+0x1b0>
  }
  StatusAlert.ERROR_STAT = Status.ERROR_STAT & (~LastStatus.ERROR_STAT);
 8004364:	f896 224d 	ldrb.w	r2, [r6, #589]	@ 0x24d
 8004368:	f895 3076 	ldrb.w	r3, [r5, #118]	@ 0x76
 800436c:	ea23 0302 	bic.w	r3, r3, r2
 8004370:	f886 31d6 	strb.w	r3, [r6, #470]	@ 0x1d6
  StatusAlert.BIT = Status.BIT & (~LastStatus.BIT);
 8004374:	f8b6 21ef 	ldrh.w	r2, [r6, #495]	@ 0x1ef
 8004378:	8b2b      	ldrh	r3, [r5, #24]
 800437a:	ea23 0302 	bic.w	r3, r3, r2
 800437e:	f8a6 3178 	strh.w	r3, [r6, #376]	@ 0x178
  
  for (uint32_t i=0; i<sizeof(StatusAlert); i++)
 8004382:	1e6a      	subs	r2, r5, #1
 8004384:	f206 13d7 	addw	r3, r6, #471	@ 0x1d7
 8004388:	f206 214e 	addw	r1, r6, #590	@ 0x24e
    *(((uint8_t *)(&LastStatus))+i) = *(((uint8_t *)(&Status))+i);
 800438c:	f812 cf01 	ldrb.w	ip, [r2, #1]!
 8004390:	f803 cb01 	strb.w	ip, [r3], #1
  for (uint32_t i=0; i<sizeof(StatusAlert); i++)
 8004394:	428b      	cmp	r3, r1
 8004396:	d1f9      	bne.n	800438c <_ZN14HardwareCenter9GetStatusER12Status_Msg_T+0x1ec>
  
  IOs.SetFault((Status.ERROR_STAT & 0x01) ? FunctionalState::ENABLE : FunctionalState::DISABLE);
 8004398:	f895 1076 	ldrb.w	r1, [r5, #118]	@ 0x76
 800439c:	f001 0101 	and.w	r1, r1, #1
 80043a0:	6870      	ldr	r0, [r6, #4]
 80043a2:	f7ff fe59 	bl	8004058 <_ZN4GPIO8SetFaultE15FunctionalState>
  
  return ErrorStatus::SUCCESS;
}
 80043a6:	2001      	movs	r0, #1
 80043a8:	b003      	add	sp, #12
 80043aa:	e8bd 8ff0 	ldmia.w	sp!, {r4, r5, r6, r7, r8, r9, sl, fp, pc}
	...

080043b0 <_ZN14HardwareCenter12periodicCallEv>:
void HardwareCenter::periodicCall(){
 80043b0:	e92d 41f0 	stmdb	sp!, {r4, r5, r6, r7, r8, lr}
 80043b4:	b0a2      	sub	sp, #136	@ 0x88
 80043b6:	4605      	mov	r5, r0
  int16_t Temp = ADC.Get_ADC_Specific_Input_Data(ADC_Inputs_Enum::ADC_In_Temp);
 80043b8:	2100      	movs	r1, #0
 80043ba:	f8d0 0250 	ldr.w	r0, [r0, #592]	@ 0x250
 80043be:	f7fe fbcd 	bl	8002b5c <_ZN7ADC_DRV27Get_ADC_Specific_Input_DataE15ADC_Inputs_Enum>
  OverTemp = ( Temp > (ADC_TEMP_SHUTDOWN*16) || ( Temp > (ADC_TEMP_SHUTDOWN-10)*16 && OverTemp )) ? FunctionalState::ENABLE : FunctionalState::DISABLE;
 80043c2:	f5b0 6fd2 	cmp.w	r0, #1680	@ 0x690
 80043c6:	dc40      	bgt.n	800444a <_ZN14HardwareCenter12periodicCallEv+0x9a>
 80043c8:	f5b0 6fbe 	cmp.w	r0, #1520	@ 0x5f0
 80043cc:	dd4a      	ble.n	8004464 <_ZN14HardwareCenter12periodicCallEv+0xb4>
 80043ce:	786b      	ldrb	r3, [r5, #1]
 80043d0:	3b00      	subs	r3, #0
 80043d2:	bf18      	it	ne
 80043d4:	2301      	movne	r3, #1
 80043d6:	706b      	strb	r3, [r5, #1]
  TempWarning = ( Temp > ADC_TEMP_WARNING*16 || ( Temp > (ADC_TEMP_WARNING-5)*16 && TempWarning )) ? FunctionalState::ENABLE : FunctionalState::DISABLE;
 80043d8:	2301      	movs	r3, #1
 80043da:	70ab      	strb	r3, [r5, #2]
  IOs.periodicCall();
 80043dc:	6868      	ldr	r0, [r5, #4]
 80043de:	f7ff fc1d 	bl	8003c1c <_ZN4GPIO12periodicCallEv>
  IOs.Get_GPIO_Inputs(&ins);
 80043e2:	f105 0108 	add.w	r1, r5, #8
 80043e6:	6868      	ldr	r0, [r5, #4]
 80043e8:	f7ff fdf0 	bl	8003fcc <_ZN4GPIO15Get_GPIO_InputsEP11GPIO_Inputs>
  uint8_t Address_changed = (Address ^ IOs.GetAddress()) != 0;
 80043ec:	f8d5 32b4 	ldr.w	r3, [r5, #692]	@ 0x2b4
 80043f0:	781f      	ldrb	r7, [r3, #0]
	  return (((~SlavePortIn[0]) >> 8) & 0x0E) | IsRemote();
 80043f2:	4bb3      	ldr	r3, [pc, #716]	@ (80046c0 <_ZN14HardwareCenter12periodicCallEv+0x310>)
 80043f4:	881e      	ldrh	r6, [r3, #0]
 80043f6:	ea6f 2616 	mvn.w	r6, r6, lsr #8
 80043fa:	f006 060e 	and.w	r6, r6, #14
 80043fe:	6868      	ldr	r0, [r5, #4]
 8004400:	f7ff fd10 	bl	8003e24 <_ZN4GPIO8IsRemoteEv>
 8004404:	ea40 0406 	orr.w	r4, r0, r6
 8004408:	b2e4      	uxtb	r4, r4
  Address &= 0x0E;
 800440a:	f8d5 22b4 	ldr.w	r2, [r5, #692]	@ 0x2b4
 800440e:	7813      	ldrb	r3, [r2, #0]
 8004410:	f003 030e 	and.w	r3, r3, #14
 8004414:	7013      	strb	r3, [r2, #0]
 8004416:	6868      	ldr	r0, [r5, #4]
 8004418:	f7ff fd04 	bl	8003e24 <_ZN4GPIO8IsRemoteEv>
  Address |= IOs.GetAddress() & 0x01;
 800441c:	f8d5 22b4 	ldr.w	r2, [r5, #692]	@ 0x2b4
 8004420:	f000 0301 	and.w	r3, r0, #1
 8004424:	7811      	ldrb	r1, [r2, #0]
 8004426:	430b      	orrs	r3, r1
 8004428:	7013      	strb	r3, [r2, #0]
  CB_Int::shutdown_CBs(ins.SHDN ? FunctionalState::ENABLE : FunctionalState::DISABLE);
 800442a:	f895 0041 	ldrb.w	r0, [r5, #65]	@ 0x41
 800442e:	3800      	subs	r0, #0
 8004430:	bf18      	it	ne
 8004432:	2001      	movne	r0, #1
 8004434:	f7ff faba 	bl	80039ac <_ZN6CB_Int12shutdown_CBsE15FunctionalState>
  if (Address_changed)
 8004438:	42a7      	cmp	r7, r4
 800443a:	d119      	bne.n	8004470 <_ZN14HardwareCenter12periodicCallEv+0xc0>
  TempWarning = ( Temp > ADC_TEMP_WARNING*16 || ( Temp > (ADC_TEMP_WARNING-5)*16 && TempWarning )) ? FunctionalState::ENABLE : FunctionalState::DISABLE;
 800443c:	2400      	movs	r4, #0
        Macro.Start(MacroType::DCI_H2L,i);
 800443e:	f505 7615 	add.w	r6, r5, #596	@ 0x254
 8004442:	f04f 0802 	mov.w	r8, #2
        Macro.Start(MacroType::DCI_L2H,i);
 8004446:	2701      	movs	r7, #1
 8004448:	e01d      	b.n	8004486 <_ZN14HardwareCenter12periodicCallEv+0xd6>
  OverTemp = ( Temp > (ADC_TEMP_SHUTDOWN*16) || ( Temp > (ADC_TEMP_SHUTDOWN-10)*16 && OverTemp )) ? FunctionalState::ENABLE : FunctionalState::DISABLE;
 800444a:	2301      	movs	r3, #1
 800444c:	706b      	strb	r3, [r5, #1]
  TempWarning = ( Temp > ADC_TEMP_WARNING*16 || ( Temp > (ADC_TEMP_WARNING-5)*16 && TempWarning )) ? FunctionalState::ENABLE : FunctionalState::DISABLE;
 800444e:	f5b0 6faa 	cmp.w	r0, #1360	@ 0x550
 8004452:	dc09      	bgt.n	8004468 <_ZN14HardwareCenter12periodicCallEv+0xb8>
 8004454:	f5b0 6fa0 	cmp.w	r0, #1280	@ 0x500
 8004458:	dd08      	ble.n	800446c <_ZN14HardwareCenter12periodicCallEv+0xbc>
 800445a:	78ab      	ldrb	r3, [r5, #2]
 800445c:	3b00      	subs	r3, #0
 800445e:	bf18      	it	ne
 8004460:	2301      	movne	r3, #1
 8004462:	e7ba      	b.n	80043da <_ZN14HardwareCenter12periodicCallEv+0x2a>
  OverTemp = ( Temp > (ADC_TEMP_SHUTDOWN*16) || ( Temp > (ADC_TEMP_SHUTDOWN-10)*16 && OverTemp )) ? FunctionalState::ENABLE : FunctionalState::DISABLE;
 8004464:	2300      	movs	r3, #0
 8004466:	e7f1      	b.n	800444c <_ZN14HardwareCenter12periodicCallEv+0x9c>
  TempWarning = ( Temp > ADC_TEMP_WARNING*16 || ( Temp > (ADC_TEMP_WARNING-5)*16 && TempWarning )) ? FunctionalState::ENABLE : FunctionalState::DISABLE;
 8004468:	2301      	movs	r3, #1
 800446a:	e7b6      	b.n	80043da <_ZN14HardwareCenter12periodicCallEv+0x2a>
 800446c:	2300      	movs	r3, #0
 800446e:	e7b4      	b.n	80043da <_ZN14HardwareCenter12periodicCallEv+0x2a>
	  CB_Int::ReInit();
 8004470:	f7fe fdf2 	bl	8003058 <_ZN6CB_Int6ReInitEv>
 8004474:	e7e2      	b.n	800443c <_ZN14HardwareCenter12periodicCallEv+0x8c>
        Macro.Start(MacroType::DCI_L2H,i);
 8004476:	b2e2      	uxtb	r2, r4
 8004478:	4639      	mov	r1, r7
 800447a:	4630      	mov	r0, r6
 800447c:	f000 fae6 	bl	8004a4c <_ZN7Macro_O5StartE9MacroTypeh>
  for(int i=0;i<NUM_OF_DCI;i++)
 8004480:	3401      	adds	r4, #1
 8004482:	2c1b      	cmp	r4, #27
 8004484:	d00f      	beq.n	80044a6 <_ZN14HardwareCenter12periodicCallEv+0xf6>
      if (ins.DCI_L2H_Flag[i])
 8004486:	eb05 0384 	add.w	r3, r5, r4, lsl #2
 800448a:	f8d3 2042 	ldr.w	r2, [r3, #66]	@ 0x42
 800448e:	2a00      	cmp	r2, #0
 8004490:	d1f1      	bne.n	8004476 <_ZN14HardwareCenter12periodicCallEv+0xc6>
      else if(ins.DCI_H2L_Flag[i])
 8004492:	f8d3 30ae 	ldr.w	r3, [r3, #174]	@ 0xae
 8004496:	2b00      	cmp	r3, #0
 8004498:	d0f2      	beq.n	8004480 <_ZN14HardwareCenter12periodicCallEv+0xd0>
        Macro.Start(MacroType::DCI_H2L,i);
 800449a:	b2e2      	uxtb	r2, r4
 800449c:	4641      	mov	r1, r8
 800449e:	4630      	mov	r0, r6
 80044a0:	f000 fad4 	bl	8004a4c <_ZN7Macro_O5StartE9MacroTypeh>
 80044a4:	e7ec      	b.n	8004480 <_ZN14HardwareCenter12periodicCallEv+0xd0>
  if (ins.STATE_H2L)
 80044a6:	f895 311b 	ldrb.w	r3, [r5, #283]	@ 0x11b
 80044aa:	b953      	cbnz	r3, 80044c2 <_ZN14HardwareCenter12periodicCallEv+0x112>
  else if (ins.STATE_L2H)
 80044ac:	f895 311a 	ldrb.w	r3, [r5, #282]	@ 0x11a
 80044b0:	b973      	cbnz	r3, 80044d0 <_ZN14HardwareCenter12periodicCallEv+0x120>
      {return mGlobalManagement.mPersistentDataCenter;}
 80044b2:	4b84      	ldr	r3, [pc, #528]	@ (80046c4 <_ZN14HardwareCenter12periodicCallEv+0x314>)
 80044b4:	69d8      	ldr	r0, [r3, #28]
  const OutLinkDCI_t* OutLink = SystemManagement::getPersistentDataCenter().Get_OutputLinkSettings();
 80044b6:	6803      	ldr	r3, [r0, #0]
 80044b8:	6a5b      	ldr	r3, [r3, #36]	@ 0x24
 80044ba:	4798      	blx	r3
 80044bc:	4604      	mov	r4, r0
  for (int i=0 ; i< NUM_OF_CB; i++)
 80044be:	2600      	movs	r6, #0
 80044c0:	e011      	b.n	80044e6 <_ZN14HardwareCenter12periodicCallEv+0x136>
    Macro.Start(MacroType::STATE_H2L,0);
 80044c2:	2200      	movs	r2, #0
 80044c4:	2103      	movs	r1, #3
 80044c6:	f505 7015 	add.w	r0, r5, #596	@ 0x254
 80044ca:	f000 fabf 	bl	8004a4c <_ZN7Macro_O5StartE9MacroTypeh>
 80044ce:	e7f0      	b.n	80044b2 <_ZN14HardwareCenter12periodicCallEv+0x102>
    Macro.Start(MacroType::STATE_L2H,0);
 80044d0:	2200      	movs	r2, #0
 80044d2:	2104      	movs	r1, #4
 80044d4:	f505 7015 	add.w	r0, r5, #596	@ 0x254
 80044d8:	f000 fab8 	bl	8004a4c <_ZN7Macro_O5StartE9MacroTypeh>
 80044dc:	e7e9      	b.n	80044b2 <_ZN14HardwareCenter12periodicCallEv+0x102>
  for (int i=0 ; i< NUM_OF_CB; i++)
 80044de:	3601      	adds	r6, #1
 80044e0:	3402      	adds	r4, #2
 80044e2:	2e10      	cmp	r6, #16
 80044e4:	d018      	beq.n	8004518 <_ZN14HardwareCenter12periodicCallEv+0x168>
	  if (OutLink[i].DCI_num !=0)
 80044e6:	7863      	ldrb	r3, [r4, #1]
 80044e8:	2b00      	cmp	r3, #0
 80044ea:	d0f8      	beq.n	80044de <_ZN14HardwareCenter12periodicCallEv+0x12e>
		  if (OutLink[i].Trigger == 1 && ins.DCI_H2L_Flag[OutLink[i].DCI_num-1])
 80044ec:	7822      	ldrb	r2, [r4, #0]
 80044ee:	f002 01f0 	and.w	r1, r2, #240	@ 0xf0
 80044f2:	2910      	cmp	r1, #16
 80044f4:	d1f3      	bne.n	80044de <_ZN14HardwareCenter12periodicCallEv+0x12e>
 80044f6:	3329      	adds	r3, #41	@ 0x29
 80044f8:	eb05 0383 	add.w	r3, r5, r3, lsl #2
 80044fc:	f8d3 3006 	ldr.w	r3, [r3, #6]
 8004500:	2b00      	cmp	r3, #0
 8004502:	d0ec      	beq.n	80044de <_ZN14HardwareCenter12periodicCallEv+0x12e>
			  if (OutLink[i].Operation == 1)
 8004504:	f002 020f 	and.w	r2, r2, #15
 8004508:	2a01      	cmp	r2, #1
 800450a:	d1e8      	bne.n	80044de <_ZN14HardwareCenter12periodicCallEv+0x12e>
				  CB_Int::Select(i)->ToggelOutput();
 800450c:	b2f0      	uxtb	r0, r6
 800450e:	f7fe fba5 	bl	8002c5c <_ZN6CB_Int6SelectEh>
 8004512:	f7fe fca9 	bl	8002e68 <_ZN6CB_Int12ToggelOutputEv>
 8004516:	e7e2      	b.n	80044de <_ZN14HardwareCenter12periodicCallEv+0x12e>
 8004518:	4b6a      	ldr	r3, [pc, #424]	@ (80046c4 <_ZN14HardwareCenter12periodicCallEv+0x314>)
 800451a:	69d8      	ldr	r0, [r3, #28]
  const GpoLink_t* GPOLink = SystemManagement::getPersistentDataCenter().Get_GPOLinkSettings();
 800451c:	6803      	ldr	r3, [r0, #0]
 800451e:	6a9b      	ldr	r3, [r3, #40]	@ 0x28
 8004520:	4798      	blx	r3
 8004522:	4604      	mov	r4, r0
  for (int i=0; i< NUM_OF_GPO; i++)
 8004524:	2700      	movs	r7, #0
 8004526:	e012      	b.n	800454e <_ZN14HardwareCenter12periodicCallEv+0x19e>
	  if ((GPOLink[i].LinkType == GPOLINK_TYPE_OUTPUT) && (CB_Int::SelectOutput(GPOLink[i].TypeIndex)->GetOnTime() >= GPOLink[i].Delay))
 8004528:	7833      	ldrb	r3, [r6, #0]
 800452a:	f003 030f 	and.w	r3, r3, #15
 800452e:	2b01      	cmp	r3, #1
 8004530:	d022      	beq.n	8004578 <_ZN14HardwareCenter12periodicCallEv+0x1c8>
	  if ((GPOLink[i].LinkType == GPOLINK_TYPE_GROUP) && (CB_Int::SelectOutput(GPOLink[i].TypeIndex)->GetGroupOnTime() >= GPOLink[i].Delay))
 8004532:	7833      	ldrb	r3, [r6, #0]
 8004534:	f003 030f 	and.w	r3, r3, #15
 8004538:	2b02      	cmp	r3, #2
 800453a:	d041      	beq.n	80045c0 <_ZN14HardwareCenter12periodicCallEv+0x210>
	  if(GPOLink[i].LinkType == GPOLINK_TYPE_REMOTE)
 800453c:	7833      	ldrb	r3, [r6, #0]
 800453e:	f003 030f 	and.w	r3, r3, #15
 8004542:	2b03      	cmp	r3, #3
 8004544:	d063      	beq.n	800460e <_ZN14HardwareCenter12periodicCallEv+0x25e>
  for (int i=0; i< NUM_OF_GPO; i++)
 8004546:	3701      	adds	r7, #1
 8004548:	3402      	adds	r4, #2
 800454a:	2f0a      	cmp	r7, #10
 800454c:	d071      	beq.n	8004632 <_ZN14HardwareCenter12periodicCallEv+0x282>
	  if (GPOLink[i].Operation == GPOLINK_OPERATION_NONE)
 800454e:	4626      	mov	r6, r4
 8004550:	7823      	ldrb	r3, [r4, #0]
 8004552:	f013 0130 	ands.w	r1, r3, #48	@ 0x30
 8004556:	d0f6      	beq.n	8004546 <_ZN14HardwareCenter12periodicCallEv+0x196>
	  if (GPOLink[i].LinkType == GPOLINK_TYPE_DCI)
 8004558:	f013 0f0f 	tst.w	r3, #15
 800455c:	d1e4      	bne.n	8004528 <_ZN14HardwareCenter12periodicCallEv+0x178>
		  IOs.Set_GPO(i,ins.DCI[GPOLink[i].TypeIndex-1] ^ (GPOLink[i].Operation == GPOLINK_OPERATION_NORM ? 0 : 1));
 800455e:	7863      	ldrb	r3, [r4, #1]
 8004560:	3303      	adds	r3, #3
 8004562:	f815 2013 	ldrb.w	r2, [r5, r3, lsl #1]
 8004566:	2910      	cmp	r1, #16
 8004568:	bf18      	it	ne
 800456a:	f082 0201 	eorne.w	r2, r2, #1
 800456e:	b2f9      	uxtb	r1, r7
 8004570:	6868      	ldr	r0, [r5, #4]
 8004572:	f7ff fd49 	bl	8004008 <_ZN4GPIO7Set_GPOEhh>
 8004576:	e7d7      	b.n	8004528 <_ZN14HardwareCenter12periodicCallEv+0x178>
	  if ((GPOLink[i].LinkType == GPOLINK_TYPE_OUTPUT) && (CB_Int::SelectOutput(GPOLink[i].TypeIndex)->GetOnTime() >= GPOLink[i].Delay))
 8004578:	7870      	ldrb	r0, [r6, #1]
 800457a:	f7fe fb8f 	bl	8002c9c <_ZN6CB_Int12SelectOutputEh>
 800457e:	f7ff fa69 	bl	8003a54 <_ZN6CB_Int9GetOnTimeEv>
 8004582:	7833      	ldrb	r3, [r6, #0]
 8004584:	ebb0 1f93 	cmp.w	r0, r3, lsr #6
 8004588:	d3d3      	bcc.n	8004532 <_ZN14HardwareCenter12periodicCallEv+0x182>
	  		  IOs.Set_GPO(i,CB_Int::SelectOutput(GPOLink[i].TypeIndex)->getCbData()->Meas_Status.SW ^ (GPOLink[i].Operation == GPOLINK_OPERATION_NORM ? 0 : 1));
 800458a:	f8d5 8004 	ldr.w	r8, [r5, #4]
 800458e:	7870      	ldrb	r0, [r6, #1]
 8004590:	f7fe fb84 	bl	8002c9c <_ZN6CB_Int12SelectOutputEh>
 8004594:	7833      	ldrb	r3, [r6, #0]
 8004596:	f003 0330 	and.w	r3, r3, #48	@ 0x30
  CB_Data* getCbData() { return &CBs[CB_Index];}
 800459a:	4a4b      	ldr	r2, [pc, #300]	@ (80046c8 <_ZN14HardwareCenter12periodicCallEv+0x318>)
 800459c:	7811      	ldrb	r1, [r2, #0]
 800459e:	4a4b      	ldr	r2, [pc, #300]	@ (80046cc <_ZN14HardwareCenter12periodicCallEv+0x31c>)
 80045a0:	eb02 1241 	add.w	r2, r2, r1, lsl #5
 80045a4:	7a12      	ldrb	r2, [r2, #8]
 80045a6:	f3c2 0240 	ubfx	r2, r2, #1, #1
 80045aa:	2b10      	cmp	r3, #16
 80045ac:	bf18      	it	ne
 80045ae:	f082 0201 	eorne.w	r2, r2, #1
 80045b2:	f002 0201 	and.w	r2, r2, #1
 80045b6:	b2f9      	uxtb	r1, r7
 80045b8:	4640      	mov	r0, r8
 80045ba:	f7ff fd25 	bl	8004008 <_ZN4GPIO7Set_GPOEhh>
 80045be:	e7b8      	b.n	8004532 <_ZN14HardwareCenter12periodicCallEv+0x182>
	  if ((GPOLink[i].LinkType == GPOLINK_TYPE_GROUP) && (CB_Int::SelectOutput(GPOLink[i].TypeIndex)->GetGroupOnTime() >= GPOLink[i].Delay))
 80045c0:	7870      	ldrb	r0, [r6, #1]
 80045c2:	f7fe fb6b 	bl	8002c9c <_ZN6CB_Int12SelectOutputEh>
 80045c6:	f7ff fa5f 	bl	8003a88 <_ZN6CB_Int14GetGroupOnTimeEv>
 80045ca:	7833      	ldrb	r3, [r6, #0]
 80045cc:	ebb0 1f93 	cmp.w	r0, r3, lsr #6
 80045d0:	d3b4      	bcc.n	800453c <_ZN14HardwareCenter12periodicCallEv+0x18c>
	  	  		  IOs.Set_GPO(i,CB_Int::SelectOutput(GPOLink[i].TypeIndex)->getGroupData()->Meas_Status.SW ^ (GPOLink[i].Operation == GPOLINK_OPERATION_NORM ? 0 : 1));
 80045d2:	f8d5 8004 	ldr.w	r8, [r5, #4]
 80045d6:	7870      	ldrb	r0, [r6, #1]
 80045d8:	f7fe fb60 	bl	8002c9c <_ZN6CB_Int12SelectOutputEh>
  Group_Data* getGroupData() { return &Groups[CB_Index-1];}
 80045dc:	4b3a      	ldr	r3, [pc, #232]	@ (80046c8 <_ZN14HardwareCenter12periodicCallEv+0x318>)
 80045de:	781b      	ldrb	r3, [r3, #0]
 80045e0:	3b01      	subs	r3, #1
 80045e2:	ebc3 03c3 	rsb	r3, r3, r3, lsl #3
 80045e6:	4a3a      	ldr	r2, [pc, #232]	@ (80046d0 <_ZN14HardwareCenter12periodicCallEv+0x320>)
 80045e8:	eb02 0383 	add.w	r3, r2, r3, lsl #2
 80045ec:	799a      	ldrb	r2, [r3, #6]
 80045ee:	f3c2 0240 	ubfx	r2, r2, #1, #1
 80045f2:	7833      	ldrb	r3, [r6, #0]
 80045f4:	f003 0330 	and.w	r3, r3, #48	@ 0x30
 80045f8:	2b10      	cmp	r3, #16
 80045fa:	bf18      	it	ne
 80045fc:	f082 0201 	eorne.w	r2, r2, #1
 8004600:	f002 0201 	and.w	r2, r2, #1
 8004604:	b2f9      	uxtb	r1, r7
 8004606:	4640      	mov	r0, r8
 8004608:	f7ff fcfe 	bl	8004008 <_ZN4GPIO7Set_GPOEhh>
 800460c:	e796      	b.n	800453c <_ZN14HardwareCenter12periodicCallEv+0x18c>
		  IOs.Set_GPO(i,IOs.IsRemote() ^ (GPOLink[i].Operation == GPOLINK_OPERATION_NORM ? 0 : 1));
 800460e:	f8d5 8004 	ldr.w	r8, [r5, #4]
 8004612:	4640      	mov	r0, r8
 8004614:	f7ff fc06 	bl	8003e24 <_ZN4GPIO8IsRemoteEv>
 8004618:	7833      	ldrb	r3, [r6, #0]
 800461a:	f003 0330 	and.w	r3, r3, #48	@ 0x30
 800461e:	2b10      	cmp	r3, #16
 8004620:	bf18      	it	ne
 8004622:	f080 0001 	eorne.w	r0, r0, #1
 8004626:	b2c2      	uxtb	r2, r0
 8004628:	b2f9      	uxtb	r1, r7
 800462a:	4640      	mov	r0, r8
 800462c:	f7ff fcec 	bl	8004008 <_ZN4GPIO7Set_GPOEhh>
 8004630:	e789      	b.n	8004546 <_ZN14HardwareCenter12periodicCallEv+0x196>
  if (ins.SHDN_H2L_Flag)
 8004632:	f895 311d 	ldrb.w	r3, [r5, #285]	@ 0x11d
 8004636:	bb63      	cbnz	r3, 8004692 <_ZN14HardwareCenter12periodicCallEv+0x2e2>
  Macro.periodicCall();
 8004638:	f505 7015 	add.w	r0, r5, #596	@ 0x254
 800463c:	f000 fa44 	bl	8004ac8 <_ZN7Macro_O12periodicCallEv>
  CB_Int::Hold = OverTemp;
 8004640:	786a      	ldrb	r2, [r5, #1]
 8004642:	4b24      	ldr	r3, [pc, #144]	@ (80046d4 <_ZN14HardwareCenter12periodicCallEv+0x324>)
 8004644:	701a      	strb	r2, [r3, #0]
  CB_Int::periodicCall(ADC.Get_ADC_Specific_Input_Data(ADC_Inputs_Enum::ADC_In_Vin_Sense1),
 8004646:	2101      	movs	r1, #1
 8004648:	f8d5 0250 	ldr.w	r0, [r5, #592]	@ 0x250
 800464c:	f7fe fa86 	bl	8002b5c <_ZN7ADC_DRV27Get_ADC_Specific_Input_DataE15ADC_Inputs_Enum>
 8004650:	4604      	mov	r4, r0
		  	  	  	  ADC.Get_ADC_Specific_Input_Data(ADC_Inputs_Enum::ADC_In_Vin_Sense2));
 8004652:	2102      	movs	r1, #2
 8004654:	f8d5 0250 	ldr.w	r0, [r5, #592]	@ 0x250
 8004658:	f7fe fa80 	bl	8002b5c <_ZN7ADC_DRV27Get_ADC_Specific_Input_DataE15ADC_Inputs_Enum>
  CB_Int::periodicCall(ADC.Get_ADC_Specific_Input_Data(ADC_Inputs_Enum::ADC_In_Vin_Sense1),
 800465c:	b281      	uxth	r1, r0
 800465e:	b2a0      	uxth	r0, r4
 8004660:	f7fe fdfe 	bl	8003260 <_ZN6CB_Int12periodicCallEtt>
 8004664:	f44f 43f0 	mov.w	r3, #30720	@ 0x7800
 8004668:	f8ad 3010 	strh.w	r3, [sp, #16]
  int16_t INPUT_VOLT_1;
  int16_t INPUT_VOLT_2;
  int16_t INPUT_CURR_1;
  int16_t INPUT_CURR_2;
  uint8_t  TVS_STAT;
} Status_EXT_T;
 800466c:	f44f 5380 	mov.w	r3, #4096	@ 0x1000
 8004670:	f8ad 3000 	strh.w	r3, [sp]
  GetStatus(Status);
 8004674:	a904      	add	r1, sp, #16
 8004676:	4628      	mov	r0, r5
 8004678:	f7ff fd92 	bl	80041a0 <_ZN14HardwareCenter9GetStatusER12Status_Msg_T>
  GetStatusEXT(Status_EXT);
 800467c:	4669      	mov	r1, sp
 800467e:	4628      	mov	r0, r5
 8004680:	f7ff fd46 	bl	8004110 <_ZN14HardwareCenter12GetStatusEXTER12Status_EXT_T>
  if (ins.RAT_L2H_Flag)
 8004684:	f895 311c 	ldrb.w	r3, [r5, #284]	@ 0x11c
 8004688:	b1bb      	cbz	r3, 80046ba <_ZN14HardwareCenter12periodicCallEv+0x30a>
 800468a:	f10d 0515 	add.w	r5, sp, #21
    for (int i=0; i< NUM_OF_CB; ++i)
 800468e:	2400      	movs	r4, #0
 8004690:	e009      	b.n	80046a6 <_ZN14HardwareCenter12periodicCallEv+0x2f6>
      Macro.Start(MacroType::POR,0);
 8004692:	2200      	movs	r2, #0
 8004694:	4611      	mov	r1, r2
 8004696:	f505 7015 	add.w	r0, r5, #596	@ 0x254
 800469a:	f000 f9d7 	bl	8004a4c <_ZN7Macro_O5StartE9MacroTypeh>
 800469e:	e7cb      	b.n	8004638 <_ZN14HardwareCenter12periodicCallEv+0x288>
    for (int i=0; i< NUM_OF_CB; ++i)
 80046a0:	3401      	adds	r4, #1
 80046a2:	2c10      	cmp	r4, #16
 80046a4:	d009      	beq.n	80046ba <_ZN14HardwareCenter12periodicCallEv+0x30a>
      if (Status.TRIP_STAT[i])
 80046a6:	f815 3f01 	ldrb.w	r3, [r5, #1]!
 80046aa:	2b00      	cmp	r3, #0
 80046ac:	d0f8      	beq.n	80046a0 <_ZN14HardwareCenter12periodicCallEv+0x2f0>
        CB_Int::Select(i)->HandleSingleTripReset();
 80046ae:	b2e0      	uxtb	r0, r4
 80046b0:	f7fe fad4 	bl	8002c5c <_ZN6CB_Int6SelectEh>
 80046b4:	f7fe fc38 	bl	8002f28 <_ZN6CB_Int21HandleSingleTripResetEv>
 80046b8:	e7f2      	b.n	80046a0 <_ZN14HardwareCenter12periodicCallEv+0x2f0>
}
 80046ba:	b022      	add	sp, #136	@ 0x88
 80046bc:	e8bd 81f0 	ldmia.w	sp!, {r4, r5, r6, r7, r8, pc}
 80046c0:	200003b0 	.word	0x200003b0
 80046c4:	2000abe0 	.word	0x2000abe0
 80046c8:	200003a0 	.word	0x200003a0
 80046cc:	200001a0 	.word	0x200001a0
 80046d0:	200000c0 	.word	0x200000c0
 80046d4:	200000b8 	.word	0x200000b8

080046d8 <_ZNK14HardwareCenter8GetAlertEv>:

FlagStatus HardwareCenter::GetAlert() const
{
  for (uint32_t i=0; i<sizeof(StatusAlert); i++)
 80046d8:	f200 135f 	addw	r3, r0, #351	@ 0x15f
 80046dc:	f500 72eb 	add.w	r2, r0, #470	@ 0x1d6
    if (*((uint8_t *)(&StatusAlert)+i) != 0)
 80046e0:	f813 0f01 	ldrb.w	r0, [r3, #1]!
 80046e4:	b910      	cbnz	r0, 80046ec <_ZNK14HardwareCenter8GetAlertEv+0x14>
  for (uint32_t i=0; i<sizeof(StatusAlert); i++)
 80046e6:	4293      	cmp	r3, r2
 80046e8:	d1fa      	bne.n	80046e0 <_ZNK14HardwareCenter8GetAlertEv+0x8>
 80046ea:	4770      	bx	lr
      return SET;
 80046ec:	2001      	movs	r0, #1
  return FlagStatus::RESET;
}
 80046ee:	4770      	bx	lr

080046f0 <_ZN14HardwareCenter15AlertAcknoledgeEv>:
void HardwareCenter::AlertAcknoledge(){
  for (uint32_t i=0; i<sizeof(StatusAlert); i++)
 80046f0:	f200 135f 	addw	r3, r0, #351	@ 0x15f
 80046f4:	f500 72eb 	add.w	r2, r0, #470	@ 0x1d6
    *((uint8_t *)(&StatusAlert)+i) = 0; 
 80046f8:	2100      	movs	r1, #0
 80046fa:	f803 1f01 	strb.w	r1, [r3, #1]!
  for (uint32_t i=0; i<sizeof(StatusAlert); i++)
 80046fe:	4293      	cmp	r3, r2
 8004700:	d1fb      	bne.n	80046fa <_ZN14HardwareCenter15AlertAcknoledgeEv+0xa>
}
 8004702:	4770      	bx	lr

08004704 <_ZN14HardwareCenter12handleSetGPOER6Buffer>:
  uint8_t Output = DataIn.readChar();
  uint8_t Value = DataIn.readChar();
  return handleSetOutput(Output,Value) == SUCCESS ? ACK : NACK;
}

COMMAND_SUCCESS HardwareCenter::handleSetGPO(Buffer& DataIn){
 8004704:	b570      	push	{r4, r5, r6, lr}
 8004706:	4605      	mov	r5, r0
 8004708:	460c      	mov	r4, r1
  if (DataIn.readShort() != 5)
 800470a:	4608      	mov	r0, r1
 800470c:	f000 fc1e 	bl	8004f4c <_ZN6Buffer9readShortEv>
 8004710:	2805      	cmp	r0, #5
 8004712:	d001      	beq.n	8004718 <_ZN14HardwareCenter12handleSetGPOER6Buffer+0x14>
    return NACK;
 8004714:	2001      	movs	r0, #1
  uint8_t GPO = DataIn.readChar() - 1;
  uint8_t Value = DataIn.readChar();
  return IOs.Set_GPO(GPO, Value) == SUCCESS ? ACK : NACK;
}
 8004716:	bd70      	pop	{r4, r5, r6, pc}
  uint8_t GPO = DataIn.readChar() - 1;
 8004718:	4620      	mov	r0, r4
 800471a:	f000 fbfd 	bl	8004f18 <_ZN6Buffer8readCharEv>
 800471e:	4606      	mov	r6, r0
  uint8_t Value = DataIn.readChar();
 8004720:	4620      	mov	r0, r4
 8004722:	f000 fbf9 	bl	8004f18 <_ZN6Buffer8readCharEv>
  uint8_t GPO = DataIn.readChar() - 1;
 8004726:	1e71      	subs	r1, r6, #1
  return IOs.Set_GPO(GPO, Value) == SUCCESS ? ACK : NACK;
 8004728:	b2c2      	uxtb	r2, r0
 800472a:	b2c9      	uxtb	r1, r1
 800472c:	6868      	ldr	r0, [r5, #4]
 800472e:	f7ff fc6b 	bl	8004008 <_ZN4GPIO7Set_GPOEhh>
 8004732:	3801      	subs	r0, #1
 8004734:	bf18      	it	ne
 8004736:	2001      	movne	r0, #1
 8004738:	e7ed      	b.n	8004716 <_ZN14HardwareCenter12handleSetGPOER6Buffer+0x12>

0800473a <_ZN14HardwareCenter17handelGetOutsTempER6Buffer>:
    return COMMAND_SUCCESS::EEPROM_ERROR;
  return (Macro.handleMacroSet(DataIn));
}

void HardwareCenter::handelGetOutsTemp(Buffer& DataOut)
{
 800473a:	b538      	push	{r3, r4, r5, lr}
 800473c:	460d      	mov	r5, r1
  for (int i=0; i< NUM_OF_CB ; ++i)
 800473e:	2400      	movs	r4, #0
    DataOut.writeShort( CB_Int::Select(i)->Get_CB_Temperature());
 8004740:	b2e0      	uxtb	r0, r4
 8004742:	f7fe fa8b 	bl	8002c5c <_ZN6CB_Int6SelectEh>
 8004746:	f7ff f9bf 	bl	8003ac8 <_ZN6CB_Int18Get_CB_TemperatureEv>
 800474a:	4601      	mov	r1, r0
 800474c:	4628      	mov	r0, r5
 800474e:	f000 fba1 	bl	8004e94 <_ZN6Buffer10writeShortEt>
  for (int i=0; i< NUM_OF_CB ; ++i)
 8004752:	3401      	adds	r4, #1
 8004754:	2c10      	cmp	r4, #16
 8004756:	d1f3      	bne.n	8004740 <_ZN14HardwareCenter17handelGetOutsTempER6Buffer+0x6>
}
 8004758:	bd38      	pop	{r3, r4, r5, pc}

0800475a <_ZN14HardwareCenter13SetMacroDelayEt>:

void HardwareCenter::SetMacroDelay(uint16_t Delay)
{
 800475a:	b538      	push	{r3, r4, r5, lr}
 800475c:	4605      	mov	r5, r0
 800475e:	460c      	mov	r4, r1
  ErrorStatus SaveMacro(Macro_cmd* cmds, MacroType macro,uint8_t index = 0);
  COMMAND_SUCCESS handleMacroSet(Buffer& DataIn);
  
  inline void SetDelay(uint16_t Delay)
  {     
    NextOperation = getTimerTicks() + Delay;
 8004760:	f005 fdb6 	bl	800a2d0 <getTimerTicks>
 8004764:	4404      	add	r4, r0
 8004766:	f8c5 42b0 	str.w	r4, [r5, #688]	@ 0x2b0
  Macro.SetDelay(Delay); 
}
 800476a:	bd38      	pop	{r3, r4, r5, pc}

0800476c <_Z12DelayWrapperPKh>:
		  HardwareCenter::GetInstance().handleSetOutput(i+1,0);
  return RESET;
}

BusyStatus DelayWrapper(const uint8_t* Param)
{
 800476c:	b538      	push	{r3, r4, r5, lr}
  uint16_t Delay = *(uint16_t *)Param;
 800476e:	8804      	ldrh	r4, [r0, #0]

class HardwareCenter{
public:
  static HardwareCenter& GetInstance()
  { 
    if (mSingelton == NULL)
 8004770:	4b09      	ldr	r3, [pc, #36]	@ (8004798 <_Z12DelayWrapperPKh+0x2c>)
 8004772:	681b      	ldr	r3, [r3, #0]
 8004774:	b133      	cbz	r3, 8004784 <_Z12DelayWrapperPKh+0x18>
  HardwareCenter::GetInstance().SetMacroDelay(Delay);
 8004776:	4621      	mov	r1, r4
 8004778:	4b07      	ldr	r3, [pc, #28]	@ (8004798 <_Z12DelayWrapperPKh+0x2c>)
 800477a:	6818      	ldr	r0, [r3, #0]
 800477c:	f7ff ffed 	bl	800475a <_ZN14HardwareCenter13SetMacroDelayEt>
  return RESET;
}
 8004780:	2000      	movs	r0, #0
 8004782:	bd38      	pop	{r3, r4, r5, pc}
      mSingelton = new HardwareCenter;
 8004784:	f44f 702e 	mov.w	r0, #696	@ 0x2b8
 8004788:	f007 fbb6 	bl	800bef8 <_Znwj>
 800478c:	4605      	mov	r5, r0
 800478e:	f7ff fc73 	bl	8004078 <_ZN14HardwareCenterC1Ev>
 8004792:	4b01      	ldr	r3, [pc, #4]	@ (8004798 <_Z12DelayWrapperPKh+0x2c>)
 8004794:	601d      	str	r5, [r3, #0]
 8004796:	e7ee      	b.n	8004776 <_Z12DelayWrapperPKh+0xa>
 8004798:	200003f4 	.word	0x200003f4

0800479c <_Z13GPOSetWrapperPKh>:

BusyStatus GPOSetWrapper(const uint8_t* Param)
{
 800479c:	e92d 41f0 	stmdb	sp!, {r4, r5, r6, r7, r8, lr}
  uint16_t GPO_num = *(uint16_t *)Param;
 80047a0:	8805      	ldrh	r5, [r0, #0]
  for (int i=0; i< NUM_OF_GPO; i++)
 80047a2:	2400      	movs	r4, #0
    if (mSingelton == NULL)
 80047a4:	4e10      	ldr	r6, [pc, #64]	@ (80047e8 <_Z13GPOSetWrapperPKh+0x4c>)
  	  if (GPO_num & (1U << i))
  HardwareCenter::GetInstance().IOs.Set_GPO(i, 1);
 80047a6:	2701      	movs	r7, #1
 80047a8:	e008      	b.n	80047bc <_Z13GPOSetWrapperPKh+0x20>
 80047aa:	6833      	ldr	r3, [r6, #0]
 80047ac:	463a      	mov	r2, r7
 80047ae:	b2e1      	uxtb	r1, r4
 80047b0:	6858      	ldr	r0, [r3, #4]
 80047b2:	f7ff fc29 	bl	8004008 <_ZN4GPIO7Set_GPOEhh>
  for (int i=0; i< NUM_OF_GPO; i++)
 80047b6:	3401      	adds	r4, #1
 80047b8:	2c0a      	cmp	r4, #10
 80047ba:	d012      	beq.n	80047e2 <_Z13GPOSetWrapperPKh+0x46>
  	  if (GPO_num & (1U << i))
 80047bc:	fa25 f304 	lsr.w	r3, r5, r4
 80047c0:	f013 0f01 	tst.w	r3, #1
 80047c4:	d0f7      	beq.n	80047b6 <_Z13GPOSetWrapperPKh+0x1a>
 80047c6:	6833      	ldr	r3, [r6, #0]
 80047c8:	2b00      	cmp	r3, #0
 80047ca:	d1ee      	bne.n	80047aa <_Z13GPOSetWrapperPKh+0xe>
      mSingelton = new HardwareCenter;
 80047cc:	f44f 702e 	mov.w	r0, #696	@ 0x2b8
 80047d0:	f007 fb92 	bl	800bef8 <_Znwj>
 80047d4:	4680      	mov	r8, r0
 80047d6:	f7ff fc4f 	bl	8004078 <_ZN14HardwareCenterC1Ev>
 80047da:	4b03      	ldr	r3, [pc, #12]	@ (80047e8 <_Z13GPOSetWrapperPKh+0x4c>)
 80047dc:	f8c3 8000 	str.w	r8, [r3]
 80047e0:	e7e3      	b.n	80047aa <_Z13GPOSetWrapperPKh+0xe>
  return RESET;
}
 80047e2:	2000      	movs	r0, #0
 80047e4:	e8bd 81f0 	ldmia.w	sp!, {r4, r5, r6, r7, r8, pc}
 80047e8:	200003f4 	.word	0x200003f4

080047ec <_Z15GPOClearWrapperPKh>:

BusyStatus GPOClearWrapper(const uint8_t* Param)
{
 80047ec:	e92d 41f0 	stmdb	sp!, {r4, r5, r6, r7, r8, lr}
  uint16_t GPO_num = *(uint16_t *)Param;
 80047f0:	8805      	ldrh	r5, [r0, #0]
  for (int i=0; i< NUM_OF_GPO; i++)
 80047f2:	2400      	movs	r4, #0
    if (mSingelton == NULL)
 80047f4:	4e10      	ldr	r6, [pc, #64]	@ (8004838 <_Z15GPOClearWrapperPKh+0x4c>)
  	  if (GPO_num & (1U << i))
  HardwareCenter::GetInstance().IOs.Set_GPO(i, 0);
 80047f6:	4627      	mov	r7, r4
 80047f8:	e008      	b.n	800480c <_Z15GPOClearWrapperPKh+0x20>
 80047fa:	6833      	ldr	r3, [r6, #0]
 80047fc:	463a      	mov	r2, r7
 80047fe:	b2e1      	uxtb	r1, r4
 8004800:	6858      	ldr	r0, [r3, #4]
 8004802:	f7ff fc01 	bl	8004008 <_ZN4GPIO7Set_GPOEhh>
  for (int i=0; i< NUM_OF_GPO; i++)
 8004806:	3401      	adds	r4, #1
 8004808:	2c0a      	cmp	r4, #10
 800480a:	d012      	beq.n	8004832 <_Z15GPOClearWrapperPKh+0x46>
  	  if (GPO_num & (1U << i))
 800480c:	fa25 f304 	lsr.w	r3, r5, r4
 8004810:	f013 0f01 	tst.w	r3, #1
 8004814:	d0f7      	beq.n	8004806 <_Z15GPOClearWrapperPKh+0x1a>
 8004816:	6833      	ldr	r3, [r6, #0]
 8004818:	2b00      	cmp	r3, #0
 800481a:	d1ee      	bne.n	80047fa <_Z15GPOClearWrapperPKh+0xe>
      mSingelton = new HardwareCenter;
 800481c:	f44f 702e 	mov.w	r0, #696	@ 0x2b8
 8004820:	f007 fb6a 	bl	800bef8 <_Znwj>
 8004824:	4680      	mov	r8, r0
 8004826:	f7ff fc27 	bl	8004078 <_ZN14HardwareCenterC1Ev>
 800482a:	4b03      	ldr	r3, [pc, #12]	@ (8004838 <_Z15GPOClearWrapperPKh+0x4c>)
 800482c:	f8c3 8000 	str.w	r8, [r3]
 8004830:	e7e3      	b.n	80047fa <_Z15GPOClearWrapperPKh+0xe>
  return RESET;
}
 8004832:	2000      	movs	r0, #0
 8004834:	e8bd 81f0 	ldmia.w	sp!, {r4, r5, r6, r7, r8, pc}
 8004838:	200003f4 	.word	0x200003f4

0800483c <_Z16SendStateWrapperPKh>:

BusyStatus SendStateWrapper(const uint8_t* Param)
{
 800483c:	b508      	push	{r3, lr}
      {return mGlobalManagement.mCommunicationCenter;}
 800483e:	4b05      	ldr	r3, [pc, #20]	@ (8004854 <_Z16SendStateWrapperPKh+0x18>)
  uint32_t getIPAddr() const {return mIPData.mAddr; }
  const IPData& getIPData() const { return mIPData; }
  upgradeManager& getUpgradeMan();
  void SetState(uint8_t nState, uint32_t Ip)
  {
    mController.SetState(nState, Ip);
 8004840:	699b      	ldr	r3, [r3, #24]
 8004842:	6802      	ldr	r2, [r0, #0]
 8004844:	7901      	ldrb	r1, [r0, #4]
 8004846:	f503 6001 	add.w	r0, r3, #2064	@ 0x810
 800484a:	f002 fabd 	bl	8006dc8 <_ZN10Controller8SetStateEhm>
  SystemManagement::getCommunicationCenter().SetState(Param[4], *(uint32_t *)Param);
  return RESET;
}
 800484e:	2000      	movs	r0, #0
 8004850:	bd08      	pop	{r3, pc}
 8004852:	bf00      	nop
 8004854:	2000abe0 	.word	0x2000abe0

08004858 <_ZN14HardwareCenter19IsValidOutputNumberEh>:


/* This function gets an integer and determine whether it could be considered as a legal output (1-16) or group (129-136) number */
COMMAND_SUCCESS HardwareCenter::IsValidOutputNumber(uint8_t group)
{
  if( (uint8_t)(group - 129) < NUM_OF_GROUPS)
 8004858:	f101 037f 	add.w	r3, r1, #127	@ 0x7f
 800485c:	b2db      	uxtb	r3, r3
 800485e:	2b07      	cmp	r3, #7
 8004860:	d906      	bls.n	8004870 <_ZN14HardwareCenter19IsValidOutputNumberEh+0x18>
    return ACK;
  if ((uint8_t)(group -1)  < NUM_OF_CB)
 8004862:	1e48      	subs	r0, r1, #1
 8004864:	b2c0      	uxtb	r0, r0
 8004866:	280f      	cmp	r0, #15
 8004868:	bf94      	ite	ls
 800486a:	2000      	movls	r0, #0
 800486c:	2001      	movhi	r0, #1
 800486e:	4770      	bx	lr
    return ACK;
 8004870:	2000      	movs	r0, #0
    return ACK;
  return NACK;
}
 8004872:	4770      	bx	lr

08004874 <_ZN14HardwareCenter15handleSetOutputEhh>:
ErrorStatus HardwareCenter::handleSetOutput(uint8_t output, uint8_t operation){
 8004874:	b538      	push	{r3, r4, r5, lr}
 8004876:	460c      	mov	r4, r1
 8004878:	4615      	mov	r5, r2
  if(IsValidOutputNumber(output) == NACK) 
 800487a:	f7ff ffed 	bl	8004858 <_ZN14HardwareCenter19IsValidOutputNumberEh>
 800487e:	2801      	cmp	r0, #1
 8004880:	d00c      	beq.n	800489c <_ZN14HardwareCenter15handleSetOutputEhh+0x28>
  if(output > 128)
 8004882:	2c80      	cmp	r4, #128	@ 0x80
 8004884:	d90c      	bls.n	80048a0 <_ZN14HardwareCenter15handleSetOutputEhh+0x2c>
    CB_Int::Select(output)->HandleSetGroupOutput(val);
 8004886:	f084 0080 	eor.w	r0, r4, #128	@ 0x80
 800488a:	f7fe f9e7 	bl	8002c5c <_ZN6CB_Int6SelectEh>
 800488e:	1e29      	subs	r1, r5, #0
 8004890:	bf18      	it	ne
 8004892:	2101      	movne	r1, #1
 8004894:	f7fe fafc 	bl	8002e90 <_ZN6CB_Int20HandleSetGroupOutputE7CB_En_t>
  return SUCCESS;
 8004898:	2001      	movs	r0, #1
 800489a:	e00a      	b.n	80048b2 <_ZN14HardwareCenter15handleSetOutputEhh+0x3e>
    return ERROR;
 800489c:	2000      	movs	r0, #0
 800489e:	e008      	b.n	80048b2 <_ZN14HardwareCenter15handleSetOutputEhh+0x3e>
    CB_Int::SelectOutput(output)->HandleSetSingleOutput(val);
 80048a0:	4620      	mov	r0, r4
 80048a2:	f7fe f9fb 	bl	8002c9c <_ZN6CB_Int12SelectOutputEh>
 80048a6:	1e29      	subs	r1, r5, #0
 80048a8:	bf18      	it	ne
 80048aa:	2101      	movne	r1, #1
 80048ac:	f7fe face 	bl	8002e4c <_ZN6CB_Int21HandleSetSingleOutputE7CB_En_t>
  return SUCCESS;
 80048b0:	2001      	movs	r0, #1
}
 80048b2:	bd38      	pop	{r3, r4, r5, pc}

080048b4 <_ZN14HardwareCenter15handleSetOutputER6Buffer>:
COMMAND_SUCCESS HardwareCenter::handleSetOutput(Buffer& DataIn){
 80048b4:	b570      	push	{r4, r5, r6, lr}
 80048b6:	4605      	mov	r5, r0
 80048b8:	460c      	mov	r4, r1
  if (DataIn.readShort() != 5)
 80048ba:	4608      	mov	r0, r1
 80048bc:	f000 fb46 	bl	8004f4c <_ZN6Buffer9readShortEv>
 80048c0:	2805      	cmp	r0, #5
 80048c2:	d001      	beq.n	80048c8 <_ZN14HardwareCenter15handleSetOutputER6Buffer+0x14>
    return NACK;
 80048c4:	2001      	movs	r0, #1
}
 80048c6:	bd70      	pop	{r4, r5, r6, pc}
  uint8_t Output = DataIn.readChar();
 80048c8:	4620      	mov	r0, r4
 80048ca:	f000 fb25 	bl	8004f18 <_ZN6Buffer8readCharEv>
 80048ce:	4606      	mov	r6, r0
  uint8_t Value = DataIn.readChar();
 80048d0:	4620      	mov	r0, r4
 80048d2:	f000 fb21 	bl	8004f18 <_ZN6Buffer8readCharEv>
  return handleSetOutput(Output,Value) == SUCCESS ? ACK : NACK;
 80048d6:	b2c2      	uxtb	r2, r0
 80048d8:	b2f1      	uxtb	r1, r6
 80048da:	4628      	mov	r0, r5
 80048dc:	f7ff ffca 	bl	8004874 <_ZN14HardwareCenter15handleSetOutputEhh>
 80048e0:	3801      	subs	r0, #1
 80048e2:	bf18      	it	ne
 80048e4:	2001      	movne	r0, #1
 80048e6:	e7ee      	b.n	80048c6 <_ZN14HardwareCenter15handleSetOutputER6Buffer+0x12>

080048e8 <_Z15OutputOnWrapperPKh>:
{
 80048e8:	e92d 41f0 	stmdb	sp!, {r4, r5, r6, r7, r8, lr}
uint_cb output = *(uint_cb *)Param;
 80048ec:	8805      	ldrh	r5, [r0, #0]
  for (int i=0; i< NUM_OF_CB; i++)
 80048ee:	2400      	movs	r4, #0
    if (mSingelton == NULL)
 80048f0:	4e10      	ldr	r6, [pc, #64]	@ (8004934 <_Z15OutputOnWrapperPKh+0x4c>)
		  HardwareCenter::GetInstance().handleSetOutput(i+1,1);
 80048f2:	2701      	movs	r7, #1
 80048f4:	e008      	b.n	8004908 <_Z15OutputOnWrapperPKh+0x20>
 80048f6:	1c61      	adds	r1, r4, #1
 80048f8:	463a      	mov	r2, r7
 80048fa:	b2c9      	uxtb	r1, r1
 80048fc:	6830      	ldr	r0, [r6, #0]
 80048fe:	f7ff ffb9 	bl	8004874 <_ZN14HardwareCenter15handleSetOutputEhh>
  for (int i=0; i< NUM_OF_CB; i++)
 8004902:	3401      	adds	r4, #1
 8004904:	2c10      	cmp	r4, #16
 8004906:	d012      	beq.n	800492e <_Z15OutputOnWrapperPKh+0x46>
	  if (output & (1U << i))
 8004908:	fa25 f304 	lsr.w	r3, r5, r4
 800490c:	f013 0f01 	tst.w	r3, #1
 8004910:	d0f7      	beq.n	8004902 <_Z15OutputOnWrapperPKh+0x1a>
 8004912:	6833      	ldr	r3, [r6, #0]
 8004914:	2b00      	cmp	r3, #0
 8004916:	d1ee      	bne.n	80048f6 <_Z15OutputOnWrapperPKh+0xe>
      mSingelton = new HardwareCenter;
 8004918:	f44f 702e 	mov.w	r0, #696	@ 0x2b8
 800491c:	f007 faec 	bl	800bef8 <_Znwj>
 8004920:	4680      	mov	r8, r0
 8004922:	f7ff fba9 	bl	8004078 <_ZN14HardwareCenterC1Ev>
 8004926:	4b03      	ldr	r3, [pc, #12]	@ (8004934 <_Z15OutputOnWrapperPKh+0x4c>)
 8004928:	f8c3 8000 	str.w	r8, [r3]
 800492c:	e7e3      	b.n	80048f6 <_Z15OutputOnWrapperPKh+0xe>
}
 800492e:	2000      	movs	r0, #0
 8004930:	e8bd 81f0 	ldmia.w	sp!, {r4, r5, r6, r7, r8, pc}
 8004934:	200003f4 	.word	0x200003f4

08004938 <_Z16OutputOffWrapperPKh>:
{
 8004938:	e92d 41f0 	stmdb	sp!, {r4, r5, r6, r7, r8, lr}
  uint_cb output = *(uint_cb *)Param;
 800493c:	8805      	ldrh	r5, [r0, #0]
  for (int i=0; i< NUM_OF_CB; i++)
 800493e:	2400      	movs	r4, #0
    if (mSingelton == NULL)
 8004940:	4e10      	ldr	r6, [pc, #64]	@ (8004984 <_Z16OutputOffWrapperPKh+0x4c>)
		  HardwareCenter::GetInstance().handleSetOutput(i+1,0);
 8004942:	4627      	mov	r7, r4
 8004944:	e008      	b.n	8004958 <_Z16OutputOffWrapperPKh+0x20>
 8004946:	1c61      	adds	r1, r4, #1
 8004948:	463a      	mov	r2, r7
 800494a:	b2c9      	uxtb	r1, r1
 800494c:	6830      	ldr	r0, [r6, #0]
 800494e:	f7ff ff91 	bl	8004874 <_ZN14HardwareCenter15handleSetOutputEhh>
  for (int i=0; i< NUM_OF_CB; i++)
 8004952:	3401      	adds	r4, #1
 8004954:	2c10      	cmp	r4, #16
 8004956:	d012      	beq.n	800497e <_Z16OutputOffWrapperPKh+0x46>
	  if (output & (1U << i))
 8004958:	fa25 f304 	lsr.w	r3, r5, r4
 800495c:	f013 0f01 	tst.w	r3, #1
 8004960:	d0f7      	beq.n	8004952 <_Z16OutputOffWrapperPKh+0x1a>
 8004962:	6833      	ldr	r3, [r6, #0]
 8004964:	2b00      	cmp	r3, #0
 8004966:	d1ee      	bne.n	8004946 <_Z16OutputOffWrapperPKh+0xe>
      mSingelton = new HardwareCenter;
 8004968:	f44f 702e 	mov.w	r0, #696	@ 0x2b8
 800496c:	f007 fac4 	bl	800bef8 <_Znwj>
 8004970:	4680      	mov	r8, r0
 8004972:	f7ff fb81 	bl	8004078 <_ZN14HardwareCenterC1Ev>
 8004976:	4b03      	ldr	r3, [pc, #12]	@ (8004984 <_Z16OutputOffWrapperPKh+0x4c>)
 8004978:	f8c3 8000 	str.w	r8, [r3]
 800497c:	e7e3      	b.n	8004946 <_Z16OutputOffWrapperPKh+0xe>
}
 800497e:	2000      	movs	r0, #0
 8004980:	e8bd 81f0 	ldmia.w	sp!, {r4, r5, r6, r7, r8, pc}
 8004984:	200003f4 	.word	0x200003f4

08004988 <_ZN14HardwareCenter15handleSetBattleER6Buffer>:
COMMAND_SUCCESS HardwareCenter::handleSetBattle(Buffer& DataIn){
 8004988:	b570      	push	{r4, r5, r6, lr}
 800498a:	4605      	mov	r5, r0
 800498c:	460c      	mov	r4, r1
  if (DataIn.readShort() != 5)
 800498e:	4608      	mov	r0, r1
 8004990:	f000 fadc 	bl	8004f4c <_ZN6Buffer9readShortEv>
 8004994:	2805      	cmp	r0, #5
 8004996:	d001      	beq.n	800499c <_ZN14HardwareCenter15handleSetBattleER6Buffer+0x14>
    return NACK;
 8004998:	2001      	movs	r0, #1
}
 800499a:	bd70      	pop	{r4, r5, r6, pc}
  uint8_t Output = DataIn.readChar();
 800499c:	4620      	mov	r0, r4
 800499e:	f000 fabb 	bl	8004f18 <_ZN6Buffer8readCharEv>
 80049a2:	b2c6      	uxtb	r6, r0
  uint8_t Value = DataIn.readChar() == 1 ? 0xD : 0x0;
 80049a4:	4620      	mov	r0, r4
 80049a6:	f000 fab7 	bl	8004f18 <_ZN6Buffer8readCharEv>
 80049aa:	2801      	cmp	r0, #1
 80049ac:	bf14      	ite	ne
 80049ae:	2400      	movne	r4, #0
 80049b0:	240d      	moveq	r4, #13
  if(IsValidOutputNumber(Output) == NACK) 
 80049b2:	4631      	mov	r1, r6
 80049b4:	4628      	mov	r0, r5
 80049b6:	f7ff ff4f 	bl	8004858 <_ZN14HardwareCenter19IsValidOutputNumberEh>
 80049ba:	2801      	cmp	r0, #1
 80049bc:	d0ed      	beq.n	800499a <_ZN14HardwareCenter15handleSetBattleER6Buffer+0x12>
  if(Output > 128)
 80049be:	2e80      	cmp	r6, #128	@ 0x80
 80049c0:	d807      	bhi.n	80049d2 <_ZN14HardwareCenter15handleSetBattleER6Buffer+0x4a>
    CB_Int::SelectOutput(Output)->HandleSetSingleBattle(Value);
 80049c2:	4630      	mov	r0, r6
 80049c4:	f7fe f96a 	bl	8002c9c <_ZN6CB_Int12SelectOutputEh>
 80049c8:	4621      	mov	r1, r4
 80049ca:	f7fe fadb 	bl	8002f84 <_ZN6CB_Int21HandleSetSingleBattleEh>
  return ACK;
 80049ce:	2000      	movs	r0, #0
 80049d0:	e7e3      	b.n	800499a <_ZN14HardwareCenter15handleSetBattleER6Buffer+0x12>
    CB_Int::Select(Output)->HandleSetGroupBattle(Value);
 80049d2:	f086 0080 	eor.w	r0, r6, #128	@ 0x80
 80049d6:	f7fe f941 	bl	8002c5c <_ZN6CB_Int6SelectEh>
 80049da:	4621      	mov	r1, r4
 80049dc:	f7fe fae0 	bl	8002fa0 <_ZN6CB_Int20HandleSetGroupBattleEh>
  return ACK;
 80049e0:	2000      	movs	r0, #0
 80049e2:	e7da      	b.n	800499a <_ZN14HardwareCenter15handleSetBattleER6Buffer+0x12>

080049e4 <_ZN14HardwareCenter14handleTripRestER6Buffer>:
{
 80049e4:	b570      	push	{r4, r5, r6, lr}
 80049e6:	4605      	mov	r5, r0
 80049e8:	460c      	mov	r4, r1
  if (DataIn.readShort() != 4)
 80049ea:	4608      	mov	r0, r1
 80049ec:	f000 faae 	bl	8004f4c <_ZN6Buffer9readShortEv>
 80049f0:	2804      	cmp	r0, #4
 80049f2:	d001      	beq.n	80049f8 <_ZN14HardwareCenter14handleTripRestER6Buffer+0x14>
    return NACK;
 80049f4:	2001      	movs	r0, #1
}
 80049f6:	bd70      	pop	{r4, r5, r6, pc}
  uint16_t Output = DataIn.readChar();
 80049f8:	4620      	mov	r0, r4
 80049fa:	f000 fa8d 	bl	8004f18 <_ZN6Buffer8readCharEv>
 80049fe:	b286      	uxth	r6, r0
  if(IsValidOutputNumber(Output) == NACK) 
 8004a00:	b2c4      	uxtb	r4, r0
 8004a02:	4621      	mov	r1, r4
 8004a04:	4628      	mov	r0, r5
 8004a06:	f7ff ff27 	bl	8004858 <_ZN14HardwareCenter19IsValidOutputNumberEh>
 8004a0a:	2801      	cmp	r0, #1
 8004a0c:	d0f3      	beq.n	80049f6 <_ZN14HardwareCenter14handleTripRestER6Buffer+0x12>
  if(Output > 128)
 8004a0e:	2e80      	cmp	r6, #128	@ 0x80
 8004a10:	d806      	bhi.n	8004a20 <_ZN14HardwareCenter14handleTripRestER6Buffer+0x3c>
    CB_Int::SelectOutput(Output)->HandleSingleTripReset();
 8004a12:	4620      	mov	r0, r4
 8004a14:	f7fe f942 	bl	8002c9c <_ZN6CB_Int12SelectOutputEh>
 8004a18:	f7fe fa86 	bl	8002f28 <_ZN6CB_Int21HandleSingleTripResetEv>
  return ACK;
 8004a1c:	2000      	movs	r0, #0
 8004a1e:	e7ea      	b.n	80049f6 <_ZN14HardwareCenter14handleTripRestER6Buffer+0x12>
    Output -= 128;
 8004a20:	f1a6 0080 	sub.w	r0, r6, #128	@ 0x80
    CB_Int::Select(Output)->HandleGroupTripReset();
 8004a24:	b2c0      	uxtb	r0, r0
 8004a26:	f7fe f919 	bl	8002c5c <_ZN6CB_Int6SelectEh>
 8004a2a:	f7fe fa93 	bl	8002f54 <_ZN6CB_Int20HandleGroupTripResetEv>
  return ACK;
 8004a2e:	2000      	movs	r0, #0
 8004a30:	e7e1      	b.n	80049f6 <_ZN14HardwareCenter14handleTripRestER6Buffer+0x12>

08004a32 <_ZN7Macro_OC1Ev>:
  GPOSetWrapper,
  GPOClearWrapper,
  SendStateWrapper  
};

Macro_O::Macro_O() : NextOperation(0)
 8004a32:	2300      	movs	r3, #0
 8004a34:	65c3      	str	r3, [r0, #92]	@ 0x5c
{
  pNext = NULL;
 8004a36:	6143      	str	r3, [r0, #20]
  for (int i=0;i<NUM_OF_MACROS;i++)
 8004a38:	1cc3      	adds	r3, r0, #3
 8004a3a:	f100 0113 	add.w	r1, r0, #19
    PendingMacro[i] = 0;
 8004a3e:	2200      	movs	r2, #0
 8004a40:	f803 2f01 	strb.w	r2, [r3, #1]!
  for (int i=0;i<NUM_OF_MACROS;i++)
 8004a44:	428b      	cmp	r3, r1
 8004a46:	d1fb      	bne.n	8004a40 <_ZN7Macro_OC1Ev+0xe>
}
 8004a48:	4770      	bx	lr
	...

08004a4c <_ZN7Macro_O5StartE9MacroTypeh>:

ErrorStatus Macro_O::Start(MacroType macro, uint8_t index){
 8004a4c:	b538      	push	{r3, r4, r5, lr}
 8004a4e:	4605      	mov	r5, r0
 8004a50:	4614      	mov	r4, r2
  uint8_t macroNum = 255;
  switch (macro)
 8004a52:	2905      	cmp	r1, #5
 8004a54:	d831      	bhi.n	8004aba <_ZN7Macro_O5StartE9MacroTypeh+0x6e>
 8004a56:	e8df f001 	tbb	[pc, r1]
 8004a5a:	1905      	.short	0x1905
 8004a5c:	03292211 	.word	0x03292211
    break;
  case STATE_L2H:
    macroNum = SystemManagement::getPersistentDataCenter().Get_StateLinkSettings()->L2H_Macro;
    break;
  case None:
	  return SUCCESS;
 8004a60:	2001      	movs	r0, #1
 8004a62:	e00a      	b.n	8004a7a <_ZN7Macro_O5StartE9MacroTypeh+0x2e>
      {return mGlobalManagement.mPersistentDataCenter;}
 8004a64:	4b17      	ldr	r3, [pc, #92]	@ (8004ac4 <_ZN7Macro_O5StartE9MacroTypeh+0x78>)
 8004a66:	69d8      	ldr	r0, [r3, #28]
    macroNum = SystemManagement::getPersistentDataCenter().Get_PorLinkSettings()->H2L_Macro;
 8004a68:	6803      	ldr	r3, [r0, #0]
 8004a6a:	6b5b      	ldr	r3, [r3, #52]	@ 0x34
 8004a6c:	4798      	blx	r3
 8004a6e:	7803      	ldrb	r3, [r0, #0]
  }
  if (macroNum >= NUM_OF_MACROS )
 8004a70:	2b0f      	cmp	r3, #15
 8004a72:	d824      	bhi.n	8004abe <_ZN7Macro_O5StartE9MacroTypeh+0x72>
    return ERROR;
  PendingMacro[macroNum] = 1;
 8004a74:	442b      	add	r3, r5
 8004a76:	2001      	movs	r0, #1
 8004a78:	7118      	strb	r0, [r3, #4]
  return SUCCESS;
}
 8004a7a:	bd38      	pop	{r3, r4, r5, pc}
 8004a7c:	4b11      	ldr	r3, [pc, #68]	@ (8004ac4 <_ZN7Macro_O5StartE9MacroTypeh+0x78>)
 8004a7e:	69d8      	ldr	r0, [r3, #28]
    macroNum = SystemManagement::getPersistentDataCenter().Get_MacroLinkSettings()[index].H2L_Macro;
 8004a80:	6803      	ldr	r3, [r0, #0]
 8004a82:	6b9b      	ldr	r3, [r3, #56]	@ 0x38
 8004a84:	4798      	blx	r3
 8004a86:	f810 3014 	ldrb.w	r3, [r0, r4, lsl #1]
    break;
 8004a8a:	e7f1      	b.n	8004a70 <_ZN7Macro_O5StartE9MacroTypeh+0x24>
 8004a8c:	4b0d      	ldr	r3, [pc, #52]	@ (8004ac4 <_ZN7Macro_O5StartE9MacroTypeh+0x78>)
 8004a8e:	69d8      	ldr	r0, [r3, #28]
    macroNum = SystemManagement::getPersistentDataCenter().Get_MacroLinkSettings()[index].L2H_Macro;
 8004a90:	6803      	ldr	r3, [r0, #0]
 8004a92:	6b9b      	ldr	r3, [r3, #56]	@ 0x38
 8004a94:	4798      	blx	r3
 8004a96:	eb00 0044 	add.w	r0, r0, r4, lsl #1
 8004a9a:	7843      	ldrb	r3, [r0, #1]
    break;
 8004a9c:	e7e8      	b.n	8004a70 <_ZN7Macro_O5StartE9MacroTypeh+0x24>
 8004a9e:	4b09      	ldr	r3, [pc, #36]	@ (8004ac4 <_ZN7Macro_O5StartE9MacroTypeh+0x78>)
 8004aa0:	69d8      	ldr	r0, [r3, #28]
    macroNum = SystemManagement::getPersistentDataCenter().Get_StateLinkSettings()->H2L_Macro;
 8004aa2:	6803      	ldr	r3, [r0, #0]
 8004aa4:	6bdb      	ldr	r3, [r3, #60]	@ 0x3c
 8004aa6:	4798      	blx	r3
 8004aa8:	7803      	ldrb	r3, [r0, #0]
    break;
 8004aaa:	e7e1      	b.n	8004a70 <_ZN7Macro_O5StartE9MacroTypeh+0x24>
 8004aac:	4b05      	ldr	r3, [pc, #20]	@ (8004ac4 <_ZN7Macro_O5StartE9MacroTypeh+0x78>)
 8004aae:	69d8      	ldr	r0, [r3, #28]
    macroNum = SystemManagement::getPersistentDataCenter().Get_StateLinkSettings()->L2H_Macro;
 8004ab0:	6803      	ldr	r3, [r0, #0]
 8004ab2:	6bdb      	ldr	r3, [r3, #60]	@ 0x3c
 8004ab4:	4798      	blx	r3
 8004ab6:	7843      	ldrb	r3, [r0, #1]
    break;
 8004ab8:	e7da      	b.n	8004a70 <_ZN7Macro_O5StartE9MacroTypeh+0x24>
  switch (macro)
 8004aba:	2000      	movs	r0, #0
 8004abc:	e7dd      	b.n	8004a7a <_ZN7Macro_O5StartE9MacroTypeh+0x2e>
    return ERROR;
 8004abe:	2000      	movs	r0, #0
 8004ac0:	e7db      	b.n	8004a7a <_ZN7Macro_O5StartE9MacroTypeh+0x2e>
 8004ac2:	bf00      	nop
 8004ac4:	2000abe0 	.word	0x2000abe0

08004ac8 <_ZN7Macro_O12periodicCallEv>:

void Macro_O::periodicCall(){
 8004ac8:	e92d 43f8 	stmdb	sp!, {r3, r4, r5, r6, r7, r8, r9, lr}
 8004acc:	4605      	mov	r5, r0
  if (pNext != NULL)
 8004ace:	6943      	ldr	r3, [r0, #20]
 8004ad0:	b1c3      	cbz	r3, 8004b04 <_ZN7Macro_O12periodicCallEv+0x3c>
  {
	if (pNext->cmdNum > 6)
 8004ad2:	781b      	ldrb	r3, [r3, #0]
 8004ad4:	2b06      	cmp	r3, #6
 8004ad6:	d903      	bls.n	8004ae0 <_ZN7Macro_O12periodicCallEv+0x18>
	{
		  pNext = NULL;
 8004ad8:	2300      	movs	r3, #0
 8004ada:	6143      	str	r3, [r0, #20]
  {
    if (!PendingMacro[i]) continue;
    PendingMacro[i] = 0;
    pNext = SystemManagement::getPersistentDataCenter().Get_MacroAddress(i);
  }
}
 8004adc:	e8bd 83f8 	ldmia.w	sp!, {r3, r4, r5, r6, r7, r8, r9, pc}
    if ((int32_t)getTimerTicks() < (int32_t)NextOperation)
 8004ae0:	f005 fbf6 	bl	800a2d0 <getTimerTicks>
 8004ae4:	6deb      	ldr	r3, [r5, #92]	@ 0x5c
 8004ae6:	4298      	cmp	r0, r3
 8004ae8:	dbf8      	blt.n	8004adc <_ZN7Macro_O12periodicCallEv+0x14>
    if (Macro_function_Map[pNext->cmdNum](pNext->Param) == BusyStatus::SET)
 8004aea:	6968      	ldr	r0, [r5, #20]
 8004aec:	f810 2b01 	ldrb.w	r2, [r0], #1
 8004af0:	4b12      	ldr	r3, [pc, #72]	@ (8004b3c <_ZN7Macro_O12periodicCallEv+0x74>)
 8004af2:	f853 3022 	ldr.w	r3, [r3, r2, lsl #2]
 8004af6:	4798      	blx	r3
 8004af8:	2801      	cmp	r0, #1
 8004afa:	d0ef      	beq.n	8004adc <_ZN7Macro_O12periodicCallEv+0x14>
    pNext++;
 8004afc:	696b      	ldr	r3, [r5, #20]
 8004afe:	3309      	adds	r3, #9
 8004b00:	616b      	str	r3, [r5, #20]
   return; 
 8004b02:	e7eb      	b.n	8004adc <_ZN7Macro_O12periodicCallEv+0x14>
 8004b04:	1cc7      	adds	r7, r0, #3
 8004b06:	f100 0613 	add.w	r6, r0, #19
  if (pNext != NULL)
 8004b0a:	463c      	mov	r4, r7
    PendingMacro[i] = 0;
 8004b0c:	f04f 0900 	mov.w	r9, #0
 8004b10:	f8df 802c 	ldr.w	r8, [pc, #44]	@ 8004b40 <_ZN7Macro_O12periodicCallEv+0x78>
 8004b14:	e001      	b.n	8004b1a <_ZN7Macro_O12periodicCallEv+0x52>
  for (int i = 0; i<NUM_OF_MACROS; i++)
 8004b16:	42b4      	cmp	r4, r6
 8004b18:	d0e0      	beq.n	8004adc <_ZN7Macro_O12periodicCallEv+0x14>
    if (!PendingMacro[i]) continue;
 8004b1a:	f814 3f01 	ldrb.w	r3, [r4, #1]!
 8004b1e:	2b00      	cmp	r3, #0
 8004b20:	d0f9      	beq.n	8004b16 <_ZN7Macro_O12periodicCallEv+0x4e>
    PendingMacro[i] = 0;
 8004b22:	4621      	mov	r1, r4
 8004b24:	f801 9901 	strb.w	r9, [r1], #-1
 8004b28:	f8d8 001c 	ldr.w	r0, [r8, #28]
    pNext = SystemManagement::getPersistentDataCenter().Get_MacroAddress(i);
 8004b2c:	1bc9      	subs	r1, r1, r7
 8004b2e:	6803      	ldr	r3, [r0, #0]
 8004b30:	6c1b      	ldr	r3, [r3, #64]	@ 0x40
 8004b32:	b2c9      	uxtb	r1, r1
 8004b34:	4798      	blx	r3
 8004b36:	6168      	str	r0, [r5, #20]
 8004b38:	e7ed      	b.n	8004b16 <_ZN7Macro_O12periodicCallEv+0x4e>
 8004b3a:	bf00      	nop
 8004b3c:	0800c410 	.word	0x0800c410
 8004b40:	2000abe0 	.word	0x2000abe0

08004b44 <_ZN10Thermistor6FormatEt>:
#include "Thermistor.h"

constexpr uint16_t Thermistor::MeasIn[];
constexpr int16_t Thermistor::MeasOut[];

int16_t Thermistor::Format(uint16_t raw){
 8004b44:	e92d 47f0 	stmdb	sp!, {r4, r5, r6, r7, r8, r9, sl, lr}
 8004b48:	4605      	mov	r5, r0
        int pStart=0;
        int pStop = 150;
 8004b4a:	2496      	movs	r4, #150	@ 0x96
        int pStart=0;
 8004b4c:	2200      	movs	r2, #0
        int mid;
        while (pStop - pStart > 1)
        {
          mid = (pStop + pStart)/2;
          if (MeasIn[mid] > raw)
 8004b4e:	4824      	ldr	r0, [pc, #144]	@ (8004be0 <_ZN10Thermistor6FormatEt+0x9c>)
        while (pStop - pStart > 1)
 8004b50:	e009      	b.n	8004b66 <_ZN10Thermistor6FormatEt+0x22>
          mid = (pStop + pStart)/2;
 8004b52:	1913      	adds	r3, r2, r4
 8004b54:	eb03 73d3 	add.w	r3, r3, r3, lsr #31
 8004b58:	105b      	asrs	r3, r3, #1
          if (MeasIn[mid] > raw)
 8004b5a:	f830 1013 	ldrh.w	r1, [r0, r3, lsl #1]
 8004b5e:	42a9      	cmp	r1, r5
          mid = (pStop + pStart)/2;
 8004b60:	bf94      	ite	ls
 8004b62:	461a      	movls	r2, r3
 8004b64:	461c      	movhi	r4, r3
        while (pStop - pStart > 1)
 8004b66:	1aa3      	subs	r3, r4, r2
 8004b68:	2b01      	cmp	r3, #1
 8004b6a:	dcf2      	bgt.n	8004b52 <_ZN10Thermistor6FormatEt+0xe>
            pStop = mid;
          else
            pStart = mid;
        }
        if (pStop == pStart)
 8004b6c:	42a2      	cmp	r2, r4
 8004b6e:	d033      	beq.n	8004bd8 <_ZN10Thermistor6FormatEt+0x94>
          return MeasOut[pStop];
        return (int16_t)((MeasOut[pStop] - MeasOut[pStart])/(double)((MeasIn[pStop] - MeasIn[pStart])) * (raw - MeasIn[pStart]) + MeasOut[pStart]);
 8004b70:	4b1c      	ldr	r3, [pc, #112]	@ (8004be4 <_ZN10Thermistor6FormatEt+0xa0>)
 8004b72:	f933 6012 	ldrsh.w	r6, [r3, r2, lsl #1]
 8004b76:	f8df a068 	ldr.w	sl, [pc, #104]	@ 8004be0 <_ZN10Thermistor6FormatEt+0x9c>
 8004b7a:	f83a 7012 	ldrh.w	r7, [sl, r2, lsl #1]
 8004b7e:	f933 0014 	ldrsh.w	r0, [r3, r4, lsl #1]
 8004b82:	1b80      	subs	r0, r0, r6
 8004b84:	f7fd fc72 	bl	800246c <__aeabi_i2d>
 8004b88:	4680      	mov	r8, r0
 8004b8a:	4689      	mov	r9, r1
 8004b8c:	f83a 0014 	ldrh.w	r0, [sl, r4, lsl #1]
 8004b90:	1bc0      	subs	r0, r0, r7
 8004b92:	f7fd fc6b 	bl	800246c <__aeabi_i2d>
 8004b96:	4602      	mov	r2, r0
 8004b98:	460b      	mov	r3, r1
 8004b9a:	4640      	mov	r0, r8
 8004b9c:	4649      	mov	r1, r9
 8004b9e:	f7fd fdf9 	bl	8002794 <__aeabi_ddiv>
 8004ba2:	4680      	mov	r8, r0
 8004ba4:	4689      	mov	r9, r1
 8004ba6:	1be8      	subs	r0, r5, r7
 8004ba8:	f7fd fc60 	bl	800246c <__aeabi_i2d>
 8004bac:	4602      	mov	r2, r0
 8004bae:	460b      	mov	r3, r1
 8004bb0:	4640      	mov	r0, r8
 8004bb2:	4649      	mov	r1, r9
 8004bb4:	f7fd fcc4 	bl	8002540 <__aeabi_dmul>
 8004bb8:	4604      	mov	r4, r0
 8004bba:	460d      	mov	r5, r1
 8004bbc:	4630      	mov	r0, r6
 8004bbe:	f7fd fc55 	bl	800246c <__aeabi_i2d>
 8004bc2:	4602      	mov	r2, r0
 8004bc4:	460b      	mov	r3, r1
 8004bc6:	4620      	mov	r0, r4
 8004bc8:	4629      	mov	r1, r5
 8004bca:	f7fd fb03 	bl	80021d4 <__adddf3>
 8004bce:	f7fd fec9 	bl	8002964 <__aeabi_d2iz>
 8004bd2:	b200      	sxth	r0, r0
}
 8004bd4:	e8bd 87f0 	ldmia.w	sp!, {r4, r5, r6, r7, r8, r9, sl, pc}
          return MeasOut[pStop];
 8004bd8:	4b02      	ldr	r3, [pc, #8]	@ (8004be4 <_ZN10Thermistor6FormatEt+0xa0>)
 8004bda:	f933 0014 	ldrsh.w	r0, [r3, r4, lsl #1]
 8004bde:	e7f9      	b.n	8004bd4 <_ZN10Thermistor6FormatEt+0x90>
 8004be0:	0800c558 	.word	0x0800c558
 8004be4:	0800c428 	.word	0x0800c428

08004be8 <_ZN15SlaveMasterCommC1Ev>:

#include "SlaveMasterComm.h"
#include "constants.h"


SlaveMasterComm::SlaveMasterComm() : mSPI(SPI_DRV::Get_Instance())
 8004be8:	b510      	push	{r4, lr}
 8004bea:	4604      	mov	r4, r0
  
  
  
  static SPI_DRV&	Get_Instance()
  {
    if (!spi_m_pInstance)   // Only allow one instance of class to be generated
 8004bec:	4b06      	ldr	r3, [pc, #24]	@ (8004c08 <_ZN15SlaveMasterCommC1Ev+0x20>)
 8004bee:	681b      	ldr	r3, [r3, #0]
 8004bf0:	b123      	cbz	r3, 8004bfc <_ZN15SlaveMasterCommC1Ev+0x14>
      spi_m_pInstance = new SPI_DRV;
    return *spi_m_pInstance;
 8004bf2:	4b05      	ldr	r3, [pc, #20]	@ (8004c08 <_ZN15SlaveMasterCommC1Ev+0x20>)
 8004bf4:	681b      	ldr	r3, [r3, #0]
 8004bf6:	6023      	str	r3, [r4, #0]
{
}
 8004bf8:	4620      	mov	r0, r4
 8004bfa:	bd10      	pop	{r4, pc}
      spi_m_pInstance = new SPI_DRV;
 8004bfc:	2001      	movs	r0, #1
 8004bfe:	f007 f97b 	bl	800bef8 <_Znwj>
 8004c02:	4b01      	ldr	r3, [pc, #4]	@ (8004c08 <_ZN15SlaveMasterCommC1Ev+0x20>)
 8004c04:	6018      	str	r0, [r3, #0]
 8004c06:	e7f4      	b.n	8004bf2 <_ZN15SlaveMasterCommC1Ev+0xa>
 8004c08:	2000b498 	.word	0x2000b498

08004c0c <_ZN15SlaveMasterComm14xfetIoDataWaitEPvS0_>:
{
  return mSPI.SPI_TransmitReceiveMessage(dataIn, (NUM_OF_Slave_Ports *2) , dataOut, (NUM_OF_Slave_Ports *2) );
}

ErrorStatus SlaveMasterComm::xfetIoDataWait(void* dataIn, void* dataOut)
{
 8004c0c:	b570      	push	{r4, r5, r6, lr}
 8004c0e:	b082      	sub	sp, #8
 8004c10:	4613      	mov	r3, r2
  if (mSPI.SPI_TransmitReceiveMessage(dataIn, (NUM_OF_Slave_Ports *2)+4, dataOut, (NUM_OF_Slave_Ports *2)+4) != SUCCESS)
 8004c12:	6800      	ldr	r0, [r0, #0]
 8004c14:	220e      	movs	r2, #14
 8004c16:	9200      	str	r2, [sp, #0]
 8004c18:	f005 f98e 	bl	8009f38 <_ZN7SPI_DRV26SPI_TransmitReceiveMessageEPvhS0_h>
 8004c1c:	2801      	cmp	r0, #1
 8004c1e:	d10b      	bne.n	8004c38 <_ZN15SlaveMasterComm14xfetIoDataWaitEPvS0_+0x2c>
 8004c20:	4604      	mov	r4, r0
  
  ErrorStatus Init(void);
  ErrorStatus SPI_TransmitReceiveMessage(void* dataRcv, uint8_t RcvLen, void* dataTx, uint8_t TxLen);
  inline BusyStatus SPI_Busy(){
    
    return (GPIO_ReadInputDataBit(SPI_CS_Port, MSTRB_Pin) == 0) ? SET : RESET;
 8004c22:	4e06      	ldr	r6, [pc, #24]	@ (8004c3c <_ZN15SlaveMasterComm14xfetIoDataWaitEPvS0_+0x30>)
 8004c24:	2501      	movs	r5, #1
 8004c26:	4629      	mov	r1, r5
 8004c28:	4630      	mov	r0, r6
 8004c2a:	f006 fbac 	bl	800b386 <GPIO_ReadInputDataBit>
	  return ERROR;
  while (mSPI.SPI_Busy());
 8004c2e:	2800      	cmp	r0, #0
 8004c30:	d0f9      	beq.n	8004c26 <_ZN15SlaveMasterComm14xfetIoDataWaitEPvS0_+0x1a>
  return SUCCESS;
}
 8004c32:	4620      	mov	r0, r4
 8004c34:	b002      	add	sp, #8
 8004c36:	bd70      	pop	{r4, r5, r6, pc}
	  return ERROR;
 8004c38:	2400      	movs	r4, #0
 8004c3a:	e7fa      	b.n	8004c32 <_ZN15SlaveMasterComm14xfetIoDataWaitEPvS0_+0x26>
 8004c3c:	40010c00 	.word	0x40010c00

08004c40 <_ZN19CommunicationCenterC1Ev>:
// **********************************************************************

// **************************************************************
// constructor
// **************************************************************
CommunicationCenter::CommunicationCenter() :
 8004c40:	b570      	push	{r4, r5, r6, lr}
 8004c42:	4604      	mov	r4, r0
  mTCPLayer(*this),
 8004c44:	4601      	mov	r1, r0
 8004c46:	f000 faa0 	bl	800518a <_ZN6Layer3C1ER19CommunicationCenter>
  mUDPLayer(*this),
 8004c4a:	f104 0568 	add.w	r5, r4, #104	@ 0x68
 8004c4e:	4621      	mov	r1, r4
 8004c50:	4628      	mov	r0, r5
 8004c52:	f000 fa9a 	bl	800518a <_ZN6Layer3C1ER19CommunicationCenter>
  mIPLayer(mTCPLayer, mUDPLayer, *this),
 8004c56:	4623      	mov	r3, r4
 8004c58:	462a      	mov	r2, r5
 8004c5a:	4621      	mov	r1, r4
 8004c5c:	f104 00d0 	add.w	r0, r4, #208	@ 0xd0
 8004c60:	f001 fb95 	bl	800638e <_ZN7IPLayerC1ER6Layer3S1_R19CommunicationCenter>
  LB_Address(),
 8004c64:	f504 60e0 	add.w	r0, r4, #1792	@ 0x700
 8004c68:	f000 fb33 	bl	80052d2 <_ZN8ArpEntryC1Ev>
  mIPData(),
 8004c6c:	f204 761c 	addw	r6, r4, #1820	@ 0x71c
 8004c70:	4630      	mov	r0, r6
 8004c72:	f001 fc51 	bl	8006518 <_ZN6IPDataC1Ev>
  mDHCPClient(mIPData,mUDPLayer),
 8004c76:	462a      	mov	r2, r5
 8004c78:	4631      	mov	r1, r6
 8004c7a:	f504 60e5 	add.w	r0, r4, #1832	@ 0x728
 8004c7e:	f002 fc15 	bl	80074ac <_ZN10DHCPClientC1ER6IPDataR6Layer3>
  mUpgradeManager(mUDPLayer),
 8004c82:	4629      	mov	r1, r5
 8004c84:	f504 60f1 	add.w	r0, r4, #1928	@ 0x788
 8004c88:	f003 f9b4 	bl	8007ff4 <_ZN14upgradeManagerC1ER6Layer3>
  mController(mUDPLayer, *this)/*
 8004c8c:	4622      	mov	r2, r4
 8004c8e:	4629      	mov	r1, r5
 8004c90:	f504 6001 	add.w	r0, r4, #2064	@ 0x810
 8004c94:	f001 ffc0 	bl	8006c18 <_ZN10ControllerC1ER6Layer3R19CommunicationCenter>
  mUpgradeAgent(mUDPLayer, *this)*/
{
}
 8004c98:	4620      	mov	r0, r4
 8004c9a:	bd70      	pop	{r4, r5, r6, pc}

08004c9c <_ZN19CommunicationCenter10openCenterEv>:

// **************************************************************
// constructor
// **************************************************************
void CommunicationCenter::openCenter()
{
 8004c9c:	b510      	push	{r4, lr}
 8004c9e:	4604      	mov	r4, r0
 8004ca0:	4b0d      	ldr	r3, [pc, #52]	@ (8004cd8 <_ZN19CommunicationCenter10openCenterEv+0x3c>)
 8004ca2:	69d8      	ldr	r0, [r3, #28]
  IpSettings_t Ips;
  Ips = *SystemManagement::getPersistentDataCenter().Get_IpSetting(); 
 8004ca4:	6803      	ldr	r3, [r0, #0]
 8004ca6:	699b      	ldr	r3, [r3, #24]
 8004ca8:	4798      	blx	r3
 8004caa:	6801      	ldr	r1, [r0, #0]
 8004cac:	6842      	ldr	r2, [r0, #4]
  if (Ips.IpType == 0)
 8004cae:	7a03      	ldrb	r3, [r0, #8]
 8004cb0:	b163      	cbz	r3, 8004ccc <_ZN19CommunicationCenter10openCenterEv+0x30>
    mDHCPClient.openSocket();
  else
  {
    mIPData.mAddr = Ips.IP;
 8004cb2:	f8c4 171c 	str.w	r1, [r4, #1820]	@ 0x71c
    mIPData.mMask = Ips.IpMask;
 8004cb6:	f8c4 2720 	str.w	r2, [r4, #1824]	@ 0x720
  upgradeManager(Layer3& udpLayer);
  
  // upper layers requests
  void periodicCall(){  /*mFTPFWClient.periodicCall();*/ mFTPSWClient.periodicCall();  }
  void closeSocket(){  /*mFTPFWClient.closeSocket();*/ mFTPSWClient.closeSocket();  }
  void openSocket(){  /*mFTPFWClient.openSocket();*/ mFTPSWClient.openSocket();  }
 8004cba:	f204 708c 	addw	r0, r4, #1932	@ 0x78c
 8004cbe:	f002 fedd 	bl	8007a7c <_ZN9FTPClient10openSocketEv>
  }
  mUpgradeManager.openSocket();
  mController.openSocket();
 8004cc2:	f504 6001 	add.w	r0, r4, #2064	@ 0x810
 8004cc6:	f001 ffbe 	bl	8006c46 <_ZN10Controller10openSocketEv>
}
 8004cca:	bd10      	pop	{r4, pc}
    mDHCPClient.openSocket();
 8004ccc:	f504 60e5 	add.w	r0, r4, #1832	@ 0x728
 8004cd0:	f002 fc06 	bl	80074e0 <_ZN10DHCPClient10openSocketEv>
 8004cd4:	e7f1      	b.n	8004cba <_ZN19CommunicationCenter10openCenterEv+0x1e>
 8004cd6:	bf00      	nop
 8004cd8:	2000abe0 	.word	0x2000abe0

08004cdc <_ZN19CommunicationCenter12periodicCallEi>:

// **************************************************************
// Communication center periodic call
// **************************************************************
void CommunicationCenter::periodicCall(int priority)
{
 8004cdc:	b510      	push	{r4, lr}
 8004cde:	4604      	mov	r4, r0
  // let telnet server come first, as it may have commands for the serial ports.
  // telnet and http servers are lower priority
  if (priority >= 2) {
 8004ce0:	2901      	cmp	r1, #1
 8004ce2:	dc0a      	bgt.n	8004cfa <_ZN19CommunicationCenter12periodicCallEi+0x1e>
    }
    return;
  }

  // Layer2 periodic call
  mIPLayer.periodicCall();
 8004ce4:	30d0      	adds	r0, #208	@ 0xd0
 8004ce6:	f001 fbd5 	bl	8006494 <_ZN7IPLayer12periodicCallEv>

  // handle the tcp and udp layers last, so they will send current answers.
  mTCPLayer.periodicCall();
 8004cea:	4620      	mov	r0, r4
 8004cec:	f000 fa78 	bl	80051e0 <_ZN6Layer312periodicCallEv>
  mUDPLayer.periodicCall();
 8004cf0:	f104 0068 	add.w	r0, r4, #104	@ 0x68
 8004cf4:	f000 fa74 	bl	80051e0 <_ZN6Layer312periodicCallEv>
}
 8004cf8:	bd10      	pop	{r4, pc}
    mDHCPClient.periodicCall();
 8004cfa:	f500 60e5 	add.w	r0, r0, #1832	@ 0x728
 8004cfe:	f002 fdff 	bl	8007900 <_ZN10DHCPClient12periodicCallEv>
    if (mIPData.mAddr != 0){
 8004d02:	f8d4 371c 	ldr.w	r3, [r4, #1820]	@ 0x71c
 8004d06:	2b00      	cmp	r3, #0
 8004d08:	d0f6      	beq.n	8004cf8 <_ZN19CommunicationCenter12periodicCallEi+0x1c>
  void periodicCall(){  /*mFTPFWClient.periodicCall();*/ mFTPSWClient.periodicCall();  }
 8004d0a:	f204 708c 	addw	r0, r4, #1932	@ 0x78c
 8004d0e:	f003 f8c7 	bl	8007ea0 <_ZN9FTPClient12periodicCallEv>
      mController.periodicCall();
 8004d12:	f504 6001 	add.w	r0, r4, #2064	@ 0x810
 8004d16:	f002 fb0b 	bl	8007330 <_ZN10Controller12periodicCallEv>
 8004d1a:	e7ed      	b.n	8004cf8 <_ZN19CommunicationCenter12periodicCallEi+0x1c>

08004d1c <_ZN19CommunicationCenter17handleLeyer2FrameER7InFrame>:

// **************************************************************
// mediators
// **************************************************************
int CommunicationCenter::handleLeyer2Frame(InFrame& frame)
{
 8004d1c:	b508      	push	{r3, lr}
  return mIPLayer.handleFrame(frame);
 8004d1e:	30d0      	adds	r0, #208	@ 0xd0
 8004d20:	f001 fba2 	bl	8006468 <_ZN7IPLayer11handleFrameER7InFrame>
}
 8004d24:	bd08      	pop	{r3, pc}

08004d26 <_ZN19CommunicationCenter10getMacAddrEm>:

// **************************************************************
// mediators
// **************************************************************
const MACAddr& CommunicationCenter::getMacAddr(uint32_t ipAddr)
{
 8004d26:	b508      	push	{r3, lr}
  return mIPLayer.getMacAddr(ipAddr);
 8004d28:	30d0      	adds	r0, #208	@ 0xd0
 8004d2a:	f001 fbb7 	bl	800649c <_ZN7IPLayer10getMacAddrEm>
}
 8004d2e:	bd08      	pop	{r3, pc}

08004d30 <_ZNK19CommunicationCenter12allAreClosedEv>:

// **************************************************************
// Checks if all connections are closed
// **************************************************************
bool CommunicationCenter::allAreClosed() const
{
 8004d30:	b508      	push	{r3, lr}
    if (!mDHCPClient.isClosed()) {
 8004d32:	f500 60e5 	add.w	r0, r0, #1832	@ 0x728
 8004d36:	f002 fddd 	bl	80078f4 <_ZNK10DHCPClient8isClosedEv>
    return false;
  }
  // do not test 'mUpgradeAgent' as it is always open.

  return true;
}
 8004d3a:	bd08      	pop	{r3, pc}

08004d3c <_ZN19CommunicationCenter11closeCenterEv>:

// **************************************************************
// Notifies all connections to close
// **************************************************************
void CommunicationCenter::closeCenter()
{
 8004d3c:	b508      	push	{r3, lr}
  mDHCPClient.closeSocket();
 8004d3e:	f500 60e5 	add.w	r0, r0, #1832	@ 0x728
 8004d42:	f002 fbd8 	bl	80074f6 <_ZN10DHCPClient11closeSocketEv>
  
}
 8004d46:	bd08      	pop	{r3, pc}

08004d48 <_ZN19CommunicationCenter13getUpgradeManEv>:

//Upgrade Manager
upgradeManager& CommunicationCenter::getUpgradeMan()
{
  return mUpgradeManager;
}
 8004d48:	f500 60f1 	add.w	r0, r0, #1928	@ 0x788
 8004d4c:	4770      	bx	lr

08004d4e <_ZN19BidirectionalBuffer14advanceReadTopEv>:
// **************************************************************
// advances the read top marker to point to the end of buffer data
// **************************************************************
void Buffer::advanceReadTop()
{
  mBufferReadTop = mBufferWrite;
 8004d4e:	6883      	ldr	r3, [r0, #8]
 8004d50:	6043      	str	r3, [r0, #4]
 8004d52:	6983      	ldr	r3, [r0, #24]
 8004d54:	6143      	str	r3, [r0, #20]
}
 8004d56:	4770      	bx	lr

08004d58 <_ZN6BufferC1EPcb>:
  mBufferReadBase(base),
 8004d58:	6001      	str	r1, [r0, #0]
  mBufferReadTop(base),
 8004d5a:	6041      	str	r1, [r0, #4]
  mBufferWrite(base),
 8004d5c:	6081      	str	r1, [r0, #8]
  mLargeBuffer(isLargeBuffer)
 8004d5e:	7302      	strb	r2, [r0, #12]
}
 8004d60:	4770      	bx	lr
	...

08004d64 <_ZN19BidirectionalBufferC1E12TCPPortTypes>:
BidirectionalBuffer::BidirectionalBuffer(TCPPortTypes portType) :
 8004d64:	b538      	push	{r3, r4, r5, lr}
 8004d66:	4605      	mov	r5, r0
  switch (portType) {
 8004d68:	2904      	cmp	r1, #4
 8004d6a:	d837      	bhi.n	8004ddc <_ZN19BidirectionalBufferC1E12TCPPortTypes+0x78>
 8004d6c:	e8df f001 	tbb	[pc, r1]
 8004d70:	261e1603 	.word	0x261e1603
 8004d74:	2e          	.byte	0x2e
 8004d75:	00          	.byte	0x00
  base = base - (((unsigned int)base) & SMALL_BUFFER_MASK);
 8004d76:	4c1a      	ldr	r4, [pc, #104]	@ (8004de0 <_ZN19BidirectionalBufferC1E12TCPPortTypes+0x7c>)
 8004d78:	f424 64ff 	bic.w	r4, r4, #2040	@ 0x7f8
 8004d7c:	f024 0407 	bic.w	r4, r4, #7
  mBufferIn(getBufferBase(portType), false),
 8004d80:	2200      	movs	r2, #0
 8004d82:	4621      	mov	r1, r4
 8004d84:	4628      	mov	r0, r5
 8004d86:	f7ff ffe7 	bl	8004d58 <_ZN6BufferC1EPcb>
  mBufferOut((getBufferBase(portType) + SMALL_BUFFER_SIZE), false)
 8004d8a:	2200      	movs	r2, #0
 8004d8c:	f504 6100 	add.w	r1, r4, #2048	@ 0x800
 8004d90:	f105 0010 	add.w	r0, r5, #16
 8004d94:	f7ff ffe0 	bl	8004d58 <_ZN6BufferC1EPcb>
}
 8004d98:	4628      	mov	r0, r5
 8004d9a:	bd38      	pop	{r3, r4, r5, pc}
  base = base - (((unsigned int)base) & SMALL_BUFFER_MASK);
 8004d9c:	4c10      	ldr	r4, [pc, #64]	@ (8004de0 <_ZN19BidirectionalBufferC1E12TCPPortTypes+0x7c>)
 8004d9e:	f424 64ff 	bic.w	r4, r4, #2040	@ 0x7f8
 8004da2:	f024 0407 	bic.w	r4, r4, #7
    return (getAllignedBase() + (2 * SMALL_BUFFER_SIZE));
 8004da6:	f504 5480 	add.w	r4, r4, #4096	@ 0x1000
 8004daa:	e7e9      	b.n	8004d80 <_ZN19BidirectionalBufferC1E12TCPPortTypes+0x1c>
  base = base - (((unsigned int)base) & SMALL_BUFFER_MASK);
 8004dac:	4c0c      	ldr	r4, [pc, #48]	@ (8004de0 <_ZN19BidirectionalBufferC1E12TCPPortTypes+0x7c>)
 8004dae:	f424 64ff 	bic.w	r4, r4, #2040	@ 0x7f8
 8004db2:	f024 0407 	bic.w	r4, r4, #7
    return (getAllignedBase() + (4 * SMALL_BUFFER_SIZE));
 8004db6:	f504 5400 	add.w	r4, r4, #8192	@ 0x2000
 8004dba:	e7e1      	b.n	8004d80 <_ZN19BidirectionalBufferC1E12TCPPortTypes+0x1c>
  base = base - (((unsigned int)base) & SMALL_BUFFER_MASK);
 8004dbc:	4c08      	ldr	r4, [pc, #32]	@ (8004de0 <_ZN19BidirectionalBufferC1E12TCPPortTypes+0x7c>)
 8004dbe:	f424 64ff 	bic.w	r4, r4, #2040	@ 0x7f8
 8004dc2:	f024 0407 	bic.w	r4, r4, #7
    return (getAllignedBase() + (6 * SMALL_BUFFER_SIZE));
 8004dc6:	f504 5440 	add.w	r4, r4, #12288	@ 0x3000
 8004dca:	e7d9      	b.n	8004d80 <_ZN19BidirectionalBufferC1E12TCPPortTypes+0x1c>
  base = base - (((unsigned int)base) & SMALL_BUFFER_MASK);
 8004dcc:	4c04      	ldr	r4, [pc, #16]	@ (8004de0 <_ZN19BidirectionalBufferC1E12TCPPortTypes+0x7c>)
 8004dce:	f424 64ff 	bic.w	r4, r4, #2040	@ 0x7f8
 8004dd2:	f024 0407 	bic.w	r4, r4, #7
    return (getAllignedBase() + (8 * SMALL_BUFFER_SIZE));
 8004dd6:	f504 4480 	add.w	r4, r4, #16384	@ 0x4000
 8004dda:	e7d1      	b.n	8004d80 <_ZN19BidirectionalBufferC1E12TCPPortTypes+0x1c>
  switch (portType) {
 8004ddc:	2400      	movs	r4, #0
 8004dde:	e7cf      	b.n	8004d80 <_ZN19BidirectionalBufferC1E12TCPPortTypes+0x1c>
 8004de0:	20000bf7 	.word	0x20000bf7

08004de4 <_ZNK6Buffer11getFreeSizeEv>:
  const char* nextRead = mBufferReadBase;
 8004de4:	6802      	ldr	r2, [r0, #0]
  const char* nextWrite = mBufferWrite;
 8004de6:	6883      	ldr	r3, [r0, #8]
  unsigned int dataSize = ((unsigned int)(nextWrite - nextRead)) & GetBufferMask();
 8004de8:	1a9b      	subs	r3, r3, r2
 8004dea:	7b01      	ldrb	r1, [r0, #12]
 8004dec:	f240 70ff 	movw	r0, #2047	@ 0x7ff
 8004df0:	f640 72ff 	movw	r2, #4095	@ 0xfff
 8004df4:	2900      	cmp	r1, #0
 8004df6:	bf18      	it	ne
 8004df8:	4610      	movne	r0, r2
}
 8004dfa:	ea20 0003 	bic.w	r0, r0, r3
 8004dfe:	4770      	bx	lr

08004e00 <_ZNK6Buffer13getUnreadSizeEv>:
  const char* readTop = mBufferReadTop;
 8004e00:	6842      	ldr	r2, [r0, #4]
  const char* nextWrite = mBufferWrite;
 8004e02:	6883      	ldr	r3, [r0, #8]
  unsigned int dataSize = ((unsigned int)(nextWrite - readTop)) & GetBufferMask();
 8004e04:	1a9b      	subs	r3, r3, r2
 8004e06:	7b01      	ldrb	r1, [r0, #12]
 8004e08:	f240 70ff 	movw	r0, #2047	@ 0x7ff
 8004e0c:	f640 72ff 	movw	r2, #4095	@ 0xfff
 8004e10:	2900      	cmp	r1, #0
 8004e12:	bf18      	it	ne
 8004e14:	4610      	movne	r0, r2
}
 8004e16:	4018      	ands	r0, r3
 8004e18:	4770      	bx	lr

08004e1a <_ZNK6Buffer11getDataSizeEv>:
  const char* readTop = mBufferReadTop;
 8004e1a:	6843      	ldr	r3, [r0, #4]
  const char* readBase = mBufferReadBase;
 8004e1c:	6802      	ldr	r2, [r0, #0]
  unsigned int dataSize = ((unsigned int)(readTop - readBase)) & GetBufferMask();
 8004e1e:	1a9b      	subs	r3, r3, r2
 8004e20:	7b01      	ldrb	r1, [r0, #12]
 8004e22:	f240 70ff 	movw	r0, #2047	@ 0x7ff
 8004e26:	f640 72ff 	movw	r2, #4095	@ 0xfff
 8004e2a:	2900      	cmp	r1, #0
 8004e2c:	bf18      	it	ne
 8004e2e:	4610      	movne	r0, r2
}
 8004e30:	4018      	ands	r0, r3
 8004e32:	4770      	bx	lr

08004e34 <_ZN6Buffer14writeLargeCharEc>:
  char* nextRead = mBufferReadBase;
 8004e34:	6802      	ldr	r2, [r0, #0]
  char* nextWrite = mBufferWrite;
 8004e36:	6883      	ldr	r3, [r0, #8]
  unsigned int diff = nextWrite - nextRead;
 8004e38:	1a9a      	subs	r2, r3, r2
  if ((diff & LARGE_BUFFER_MASK) == LARGE_BUFFER_MASK) {
 8004e3a:	f3c2 020b 	ubfx	r2, r2, #0, #12
 8004e3e:	f640 7cff 	movw	ip, #4095	@ 0xfff
 8004e42:	4562      	cmp	r2, ip
 8004e44:	d00a      	beq.n	8004e5c <_ZN6Buffer14writeLargeCharEc+0x28>
  *nextWrite = ch;
 8004e46:	461a      	mov	r2, r3
 8004e48:	f802 1b01 	strb.w	r1, [r2], #1
  mBufferWrite = GetLargeBufferNewAddr(nextWrite, 1);
 8004e4c:	f3c2 020b 	ubfx	r2, r2, #0, #12
 8004e50:	f423 637f 	bic.w	r3, r3, #4080	@ 0xff0
 8004e54:	f023 030f 	bic.w	r3, r3, #15
 8004e58:	431a      	orrs	r2, r3
 8004e5a:	6082      	str	r2, [r0, #8]
}
 8004e5c:	4770      	bx	lr

08004e5e <_ZN6Buffer9writeCharEc>:
{
 8004e5e:	b508      	push	{r3, lr}
  if (mLargeBuffer) {
 8004e60:	7b03      	ldrb	r3, [r0, #12]
 8004e62:	b9a3      	cbnz	r3, 8004e8e <_ZN6Buffer9writeCharEc+0x30>
  char* nextRead = mBufferReadBase;
 8004e64:	6802      	ldr	r2, [r0, #0]
  char* nextWrite = mBufferWrite;
 8004e66:	6883      	ldr	r3, [r0, #8]
  unsigned int diff = nextWrite - nextRead;
 8004e68:	1a9a      	subs	r2, r3, r2
  if ((diff & SMALL_BUFFER_MASK) == SMALL_BUFFER_MASK) {
 8004e6a:	f3c2 020a 	ubfx	r2, r2, #0, #11
 8004e6e:	f240 7cff 	movw	ip, #2047	@ 0x7ff
 8004e72:	4562      	cmp	r2, ip
 8004e74:	d00a      	beq.n	8004e8c <_ZN6Buffer9writeCharEc+0x2e>
  *nextWrite = ch;
 8004e76:	461a      	mov	r2, r3
 8004e78:	f802 1b01 	strb.w	r1, [r2], #1
  mBufferWrite = GetSmallBufferNewAddr(nextWrite, 1);
 8004e7c:	f3c2 020a 	ubfx	r2, r2, #0, #11
 8004e80:	f423 63ff 	bic.w	r3, r3, #2040	@ 0x7f8
 8004e84:	f023 0307 	bic.w	r3, r3, #7
 8004e88:	431a      	orrs	r2, r3
 8004e8a:	6082      	str	r2, [r0, #8]
}
 8004e8c:	bd08      	pop	{r3, pc}
    return writeLargeChar(ch);
 8004e8e:	f7ff ffd1 	bl	8004e34 <_ZN6Buffer14writeLargeCharEc>
 8004e92:	e7fb      	b.n	8004e8c <_ZN6Buffer9writeCharEc+0x2e>

08004e94 <_ZN6Buffer10writeShortEt>:
{
 8004e94:	b538      	push	{r3, r4, r5, lr}
 8004e96:	4605      	mov	r5, r0
 8004e98:	460c      	mov	r4, r1
  writeChar((sh >> 8)&0xFF);
 8004e9a:	0a09      	lsrs	r1, r1, #8
 8004e9c:	f7ff ffdf 	bl	8004e5e <_ZN6Buffer9writeCharEc>
  writeChar(sh & 0xFF);
 8004ea0:	b2e1      	uxtb	r1, r4
 8004ea2:	4628      	mov	r0, r5
 8004ea4:	f7ff ffdb 	bl	8004e5e <_ZN6Buffer9writeCharEc>
}
 8004ea8:	bd38      	pop	{r3, r4, r5, pc}

08004eaa <_ZN6Buffer10writeNCharEci>:
{
 8004eaa:	b5f8      	push	{r3, r4, r5, r6, r7, lr}
  if (len == 0) {
 8004eac:	4616      	mov	r6, r2
 8004eae:	b1d2      	cbz	r2, 8004ee6 <_ZN6Buffer10writeNCharEci+0x3c>
 8004eb0:	4605      	mov	r5, r0
 8004eb2:	460f      	mov	r7, r1
  char* nextRead = mBufferReadBase;
 8004eb4:	6802      	ldr	r2, [r0, #0]
  char* nextWrite = mBufferWrite;
 8004eb6:	6883      	ldr	r3, [r0, #8]
  unsigned int dataSize = (nextWrite - nextRead) & GetBufferMask();
 8004eb8:	1a9b      	subs	r3, r3, r2
 8004eba:	7b00      	ldrb	r0, [r0, #12]
 8004ebc:	f240 72ff 	movw	r2, #2047	@ 0x7ff
 8004ec0:	f640 71ff 	movw	r1, #4095	@ 0xfff
 8004ec4:	2800      	cmp	r0, #0
 8004ec6:	bf18      	it	ne
 8004ec8:	460a      	movne	r2, r1
 8004eca:	4013      	ands	r3, r2
  if (dataSize + len > GetBufferMask()) {
 8004ecc:	4433      	add	r3, r6
 8004ece:	4293      	cmp	r3, r2
 8004ed0:	d80b      	bhi.n	8004eea <_ZN6Buffer10writeNCharEci+0x40>
  for (int i =0; i < len; i++)
 8004ed2:	2e00      	cmp	r6, #0
 8004ed4:	dd07      	ble.n	8004ee6 <_ZN6Buffer10writeNCharEci+0x3c>
 8004ed6:	2400      	movs	r4, #0
    writeChar(ch);
 8004ed8:	4639      	mov	r1, r7
 8004eda:	4628      	mov	r0, r5
 8004edc:	f7ff ffbf 	bl	8004e5e <_ZN6Buffer9writeCharEc>
  for (int i =0; i < len; i++)
 8004ee0:	3401      	adds	r4, #1
 8004ee2:	42a6      	cmp	r6, r4
 8004ee4:	d1f8      	bne.n	8004ed8 <_ZN6Buffer10writeNCharEci+0x2e>
}
 8004ee6:	4630      	mov	r0, r6
 8004ee8:	bdf8      	pop	{r3, r4, r5, r6, r7, pc}
    return -1;
 8004eea:	f04f 36ff 	mov.w	r6, #4294967295
 8004eee:	e7fa      	b.n	8004ee6 <_ZN6Buffer10writeNCharEci+0x3c>

08004ef0 <_ZN6Buffer13readSmallCharEv>:
{
 8004ef0:	4601      	mov	r1, r0
  char* readBase = mBufferReadBase;
 8004ef2:	6803      	ldr	r3, [r0, #0]
  char* readTop = mBufferReadTop;
 8004ef4:	6842      	ldr	r2, [r0, #4]
  if (readBase == readTop) {
 8004ef6:	4293      	cmp	r3, r2
 8004ef8:	d00b      	beq.n	8004f12 <_ZN6Buffer13readSmallCharEv+0x22>
  int retVal = *readBase;
 8004efa:	461a      	mov	r2, r3
 8004efc:	f812 0b01 	ldrb.w	r0, [r2], #1
  mBufferReadBase = GetSmallBufferNewAddr(readBase, 1);
 8004f00:	f3c2 020a 	ubfx	r2, r2, #0, #11
 8004f04:	f423 63ff 	bic.w	r3, r3, #2040	@ 0x7f8
 8004f08:	f023 0307 	bic.w	r3, r3, #7
 8004f0c:	431a      	orrs	r2, r3
 8004f0e:	600a      	str	r2, [r1, #0]
  return retVal;
 8004f10:	4770      	bx	lr
    return -1;
 8004f12:	f04f 30ff 	mov.w	r0, #4294967295
}
 8004f16:	4770      	bx	lr

08004f18 <_ZN6Buffer8readCharEv>:
{
 8004f18:	b508      	push	{r3, lr}
 8004f1a:	4603      	mov	r3, r0
  if (!mLargeBuffer) {
 8004f1c:	7b02      	ldrb	r2, [r0, #12]
 8004f1e:	b17a      	cbz	r2, 8004f40 <_ZN6Buffer8readCharEv+0x28>
  char* readBase = mBufferReadBase;
 8004f20:	6802      	ldr	r2, [r0, #0]
  char* readTop = mBufferReadTop;
 8004f22:	6841      	ldr	r1, [r0, #4]
  if (readBase == readTop) {
 8004f24:	428a      	cmp	r2, r1
 8004f26:	d00e      	beq.n	8004f46 <_ZN6Buffer8readCharEv+0x2e>
  int retVal = *readBase;
 8004f28:	4611      	mov	r1, r2
 8004f2a:	f811 0b01 	ldrb.w	r0, [r1], #1
  mBufferReadBase = GetLargeBufferNewAddr(readBase, 1);
 8004f2e:	f3c1 010b 	ubfx	r1, r1, #0, #12
 8004f32:	f422 627f 	bic.w	r2, r2, #4080	@ 0xff0
 8004f36:	f022 020f 	bic.w	r2, r2, #15
 8004f3a:	4311      	orrs	r1, r2
 8004f3c:	6019      	str	r1, [r3, #0]
}
 8004f3e:	bd08      	pop	{r3, pc}
    return readSmallChar();
 8004f40:	f7ff ffd6 	bl	8004ef0 <_ZN6Buffer13readSmallCharEv>
 8004f44:	e7fb      	b.n	8004f3e <_ZN6Buffer8readCharEv+0x26>
    return -1;
 8004f46:	f04f 30ff 	mov.w	r0, #4294967295
 8004f4a:	e7f8      	b.n	8004f3e <_ZN6Buffer8readCharEv+0x26>

08004f4c <_ZN6Buffer9readShortEv>:
{
 8004f4c:	b538      	push	{r3, r4, r5, lr}
 8004f4e:	4605      	mov	r5, r0
  int c1 = readChar();
 8004f50:	f7ff ffe2 	bl	8004f18 <_ZN6Buffer8readCharEv>
  if (c1 < 0) return -1;
 8004f54:	1e04      	subs	r4, r0, #0
 8004f56:	db09      	blt.n	8004f6c <_ZN6Buffer9readShortEv+0x20>
  int c2 = readChar();
 8004f58:	4628      	mov	r0, r5
 8004f5a:	f7ff ffdd 	bl	8004f18 <_ZN6Buffer8readCharEv>
  if (c2 < 0) return -1;
 8004f5e:	1e03      	subs	r3, r0, #0
 8004f60:	db07      	blt.n	8004f72 <_ZN6Buffer9readShortEv+0x26>
  return  ((c2 & 0xFF) + ((c1 & 0xFF) << 8));
 8004f62:	0220      	lsls	r0, r4, #8
 8004f64:	b280      	uxth	r0, r0
 8004f66:	b2db      	uxtb	r3, r3
 8004f68:	4418      	add	r0, r3
}
 8004f6a:	bd38      	pop	{r3, r4, r5, pc}
  if (c1 < 0) return -1;
 8004f6c:	f04f 30ff 	mov.w	r0, #4294967295
 8004f70:	e7fb      	b.n	8004f6a <_ZN6Buffer9readShortEv+0x1e>
  if (c2 < 0) return -1;
 8004f72:	f04f 30ff 	mov.w	r0, #4294967295
 8004f76:	e7f8      	b.n	8004f6a <_ZN6Buffer9readShortEv+0x1e>

08004f78 <_ZN6Buffer10writeBlockEPKvj>:
  if (len == 0) {
 8004f78:	b35a      	cbz	r2, 8004fd2 <_ZN6Buffer10writeBlockEPKvj+0x5a>
{
 8004f7a:	e92d 47f0 	stmdb	sp!, {r4, r5, r6, r7, r8, r9, sl, lr}
 8004f7e:	4605      	mov	r5, r0
 8004f80:	460f      	mov	r7, r1
 8004f82:	4614      	mov	r4, r2
  char* nextRead = mBufferReadBase;
 8004f84:	6803      	ldr	r3, [r0, #0]
  char* nextWrite = mBufferWrite;
 8004f86:	6886      	ldr	r6, [r0, #8]
  unsigned int dataSize = (nextWrite - nextRead) & GetBufferMask();
 8004f88:	1af3      	subs	r3, r6, r3
 8004f8a:	7b02      	ldrb	r2, [r0, #12]
 8004f8c:	bb4a      	cbnz	r2, 8004fe2 <_ZN6Buffer10writeBlockEPKvj+0x6a>
 8004f8e:	f3c3 030a 	ubfx	r3, r3, #0, #11
  if (dataSize + len > GetBufferMask()) {
 8004f92:	4423      	add	r3, r4
 8004f94:	f5b3 6f00 	cmp.w	r3, #2048	@ 0x800
 8004f98:	d220      	bcs.n	8004fdc <_ZN6Buffer10writeBlockEPKvj+0x64>
  unsigned int writeOffset = ((unsigned int)nextWrite) & GetBufferMask();
 8004f9a:	f3c6 080a 	ubfx	r8, r6, #0, #11
  if ((writeOffset + len) < GetBufferSize()) {    // single block copy
 8004f9e:	eb04 0308 	add.w	r3, r4, r8
 8004fa2:	f44f 6900 	mov.w	r9, #2048	@ 0x800
 8004fa6:	e028      	b.n	8004ffa <_ZN6Buffer10writeBlockEPKvj+0x82>
    unsigned int dataWrite = GetBufferSize() - writeOffset;
 8004fa8:	eba9 0a08 	sub.w	sl, r9, r8
    memcpy(nextWrite, source, dataWrite);
 8004fac:	4652      	mov	r2, sl
 8004fae:	4639      	mov	r1, r7
 8004fb0:	4630      	mov	r0, r6
 8004fb2:	f007 f925 	bl	800c200 <memcpy>
    nextWrite = nextWrite - writeOffset;
 8004fb6:	eba6 0608 	sub.w	r6, r6, r8
    memcpy(nextWrite, ((const char *)source) + dataWrite, len - dataWrite);
 8004fba:	44a0      	add	r8, r4
 8004fbc:	eba8 0809 	sub.w	r8, r8, r9
 8004fc0:	4642      	mov	r2, r8
 8004fc2:	eb07 010a 	add.w	r1, r7, sl
 8004fc6:	4630      	mov	r0, r6
 8004fc8:	f007 f91a 	bl	800c200 <memcpy>
    mBufferWrite = nextWrite + len - dataWrite;
 8004fcc:	4446      	add	r6, r8
 8004fce:	60ae      	str	r6, [r5, #8]
 8004fd0:	e01c      	b.n	800500c <_ZN6Buffer10writeBlockEPKvj+0x94>
    return 0;
 8004fd2:	2000      	movs	r0, #0
}
 8004fd4:	4770      	bx	lr
    return -1;
 8004fd6:	f04f 30ff 	mov.w	r0, #4294967295
 8004fda:	e018      	b.n	800500e <_ZN6Buffer10writeBlockEPKvj+0x96>
 8004fdc:	f04f 30ff 	mov.w	r0, #4294967295
 8004fe0:	e015      	b.n	800500e <_ZN6Buffer10writeBlockEPKvj+0x96>
  unsigned int dataSize = (nextWrite - nextRead) & GetBufferMask();
 8004fe2:	f3c3 030b 	ubfx	r3, r3, #0, #12
  if (dataSize + len > GetBufferMask()) {
 8004fe6:	4423      	add	r3, r4
 8004fe8:	f5b3 5f80 	cmp.w	r3, #4096	@ 0x1000
 8004fec:	d2f3      	bcs.n	8004fd6 <_ZN6Buffer10writeBlockEPKvj+0x5e>
  unsigned int writeOffset = ((unsigned int)nextWrite) & GetBufferMask();
 8004fee:	f3c6 080b 	ubfx	r8, r6, #0, #12
  if ((writeOffset + len) < GetBufferSize()) {    // single block copy
 8004ff2:	eb04 0308 	add.w	r3, r4, r8
 8004ff6:	f44f 5980 	mov.w	r9, #4096	@ 0x1000
 8004ffa:	4599      	cmp	r9, r3
 8004ffc:	d9d4      	bls.n	8004fa8 <_ZN6Buffer10writeBlockEPKvj+0x30>
    memcpy(nextWrite, source, len);
 8004ffe:	4622      	mov	r2, r4
 8005000:	4639      	mov	r1, r7
 8005002:	4630      	mov	r0, r6
 8005004:	f007 f8fc 	bl	800c200 <memcpy>
    mBufferWrite = nextWrite + len;
 8005008:	4426      	add	r6, r4
 800500a:	60ae      	str	r6, [r5, #8]
  return len;
 800500c:	4620      	mov	r0, r4
}
 800500e:	e8bd 87f0 	ldmia.w	sp!, {r4, r5, r6, r7, r8, r9, sl, pc}

08005012 <_ZNK6Buffer9readBlockEPcjj>:
  if (len == 0) {
 8005012:	b353      	cbz	r3, 800506a <_ZNK6Buffer9readBlockEPcjj+0x58>
{
 8005014:	e92d 43f8 	stmdb	sp!, {r3, r4, r5, r6, r7, r8, r9, lr}
 8005018:	460d      	mov	r5, r1
 800501a:	461e      	mov	r6, r3
  const char* readTop = mBufferReadTop;
 800501c:	6843      	ldr	r3, [r0, #4]
  const char* readBase = mBufferReadBase;
 800501e:	6801      	ldr	r1, [r0, #0]
  unsigned int dataSize = (readTop - readBase) & GetBufferMask();
 8005020:	1a5b      	subs	r3, r3, r1
 8005022:	7b00      	ldrb	r0, [r0, #12]
 8005024:	bb48      	cbnz	r0, 800507a <_ZNK6Buffer9readBlockEPcjj+0x68>
 8005026:	f3c3 030a 	ubfx	r3, r3, #0, #11
  if (dataSize < (len + bufferOffset)) {
 800502a:	18b0      	adds	r0, r6, r2
 800502c:	4283      	cmp	r3, r0
 800502e:	d321      	bcc.n	8005074 <_ZNK6Buffer9readBlockEPcjj+0x62>
  readBase = GetBufferNewAddr(readBase, bufferOffset);
 8005030:	188c      	adds	r4, r1, r2
 8005032:	f3c4 040a 	ubfx	r4, r4, #0, #11
 8005036:	f421 61ff 	bic.w	r1, r1, #2040	@ 0x7f8
 800503a:	f021 0107 	bic.w	r1, r1, #7
 800503e:	ea44 0701 	orr.w	r7, r4, r1
  if ((readOffset + len) < GetBufferSize()) {     // single block operation
 8005042:	1933      	adds	r3, r6, r4
 8005044:	f44f 6800 	mov.w	r8, #2048	@ 0x800
 8005048:	e028      	b.n	800509c <_ZNK6Buffer9readBlockEPcjj+0x8a>
    unsigned int dataRead = GetBufferSize() - readOffset;
 800504a:	eba8 0904 	sub.w	r9, r8, r4
    memcpy(target, readBase, dataRead);
 800504e:	464a      	mov	r2, r9
 8005050:	4639      	mov	r1, r7
 8005052:	4628      	mov	r0, r5
 8005054:	f007 f8d4 	bl	800c200 <memcpy>
    memcpy(target + dataRead, readBase - readOffset, len - dataRead);
 8005058:	1932      	adds	r2, r6, r4
 800505a:	eba2 0208 	sub.w	r2, r2, r8
 800505e:	1b39      	subs	r1, r7, r4
 8005060:	eb05 0009 	add.w	r0, r5, r9
 8005064:	f007 f8cc 	bl	800c200 <memcpy>
 8005068:	e01f      	b.n	80050aa <_ZNK6Buffer9readBlockEPcjj+0x98>
    return 0;
 800506a:	2000      	movs	r0, #0
}
 800506c:	4770      	bx	lr
    return -1;
 800506e:	f04f 30ff 	mov.w	r0, #4294967295
 8005072:	e01b      	b.n	80050ac <_ZNK6Buffer9readBlockEPcjj+0x9a>
 8005074:	f04f 30ff 	mov.w	r0, #4294967295
 8005078:	e018      	b.n	80050ac <_ZNK6Buffer9readBlockEPcjj+0x9a>
  unsigned int dataSize = (readTop - readBase) & GetBufferMask();
 800507a:	f3c3 030b 	ubfx	r3, r3, #0, #12
  if (dataSize < (len + bufferOffset)) {
 800507e:	18b0      	adds	r0, r6, r2
 8005080:	4283      	cmp	r3, r0
 8005082:	d3f4      	bcc.n	800506e <_ZNK6Buffer9readBlockEPcjj+0x5c>
  readBase = GetBufferNewAddr(readBase, bufferOffset);
 8005084:	188c      	adds	r4, r1, r2
 8005086:	f3c4 040b 	ubfx	r4, r4, #0, #12
 800508a:	f421 617f 	bic.w	r1, r1, #4080	@ 0xff0
 800508e:	f021 010f 	bic.w	r1, r1, #15
 8005092:	ea44 0701 	orr.w	r7, r4, r1
  if ((readOffset + len) < GetBufferSize()) {     // single block operation
 8005096:	1933      	adds	r3, r6, r4
 8005098:	f44f 5880 	mov.w	r8, #4096	@ 0x1000
 800509c:	4598      	cmp	r8, r3
 800509e:	d9d4      	bls.n	800504a <_ZNK6Buffer9readBlockEPcjj+0x38>
    memcpy(target, readBase, len);
 80050a0:	4632      	mov	r2, r6
 80050a2:	4639      	mov	r1, r7
 80050a4:	4628      	mov	r0, r5
 80050a6:	f007 f8ab 	bl	800c200 <memcpy>
  return len;
 80050aa:	4630      	mov	r0, r6
}
 80050ac:	e8bd 83f8 	ldmia.w	sp!, {r3, r4, r5, r6, r7, r8, r9, pc}

080050b0 <_ZNK6Buffer9readBlockEPcj>:
{
 80050b0:	b508      	push	{r3, lr}
 80050b2:	4613      	mov	r3, r2
  return readBlock(target, 0, len);
 80050b4:	2200      	movs	r2, #0
 80050b6:	f7ff ffac 	bl	8005012 <_ZNK6Buffer9readBlockEPcjj>
}
 80050ba:	bd08      	pop	{r3, pc}

080050bc <_ZN6Buffer11advanceReadEj>:
{
 80050bc:	b410      	push	{r4}
  const char* readTop = mBufferReadTop;
 80050be:	6843      	ldr	r3, [r0, #4]
  const char* readBase = mBufferReadBase;
 80050c0:	6802      	ldr	r2, [r0, #0]
  unsigned int dataSize = (readTop - readBase) & GetBufferMask();
 80050c2:	1a9b      	subs	r3, r3, r2
 80050c4:	7b04      	ldrb	r4, [r0, #12]
 80050c6:	b964      	cbnz	r4, 80050e2 <_ZN6Buffer11advanceReadEj+0x26>
 80050c8:	f3c3 030a 	ubfx	r3, r3, #0, #11
  if (dataSize < len) {
 80050cc:	4299      	cmp	r1, r3
 80050ce:	d815      	bhi.n	80050fc <_ZN6Buffer11advanceReadEj+0x40>
  mBufferReadBase = GetBufferNewAddr(readBase, len);
 80050d0:	4411      	add	r1, r2
 80050d2:	f3c1 010a 	ubfx	r1, r1, #0, #11
 80050d6:	f422 62ff 	bic.w	r2, r2, #2040	@ 0x7f8
 80050da:	f022 0207 	bic.w	r2, r2, #7
 80050de:	4311      	orrs	r1, r2
 80050e0:	e00b      	b.n	80050fa <_ZN6Buffer11advanceReadEj+0x3e>
  unsigned int dataSize = (readTop - readBase) & GetBufferMask();
 80050e2:	f3c3 030b 	ubfx	r3, r3, #0, #12
  if (dataSize < len) {
 80050e6:	4299      	cmp	r1, r3
 80050e8:	d808      	bhi.n	80050fc <_ZN6Buffer11advanceReadEj+0x40>
  mBufferReadBase = GetBufferNewAddr(readBase, len);
 80050ea:	4411      	add	r1, r2
 80050ec:	f3c1 010b 	ubfx	r1, r1, #0, #12
 80050f0:	f422 627f 	bic.w	r2, r2, #4080	@ 0xff0
 80050f4:	f022 020f 	bic.w	r2, r2, #15
 80050f8:	4311      	orrs	r1, r2
 80050fa:	6001      	str	r1, [r0, #0]
}
 80050fc:	bc10      	pop	{r4}
 80050fe:	4770      	bx	lr

08005100 <_ZN6Buffer14advanceReadTopEv>:
  mBufferReadTop = mBufferWrite;
 8005100:	6883      	ldr	r3, [r0, #8]
 8005102:	6043      	str	r3, [r0, #4]
}
 8005104:	4770      	bx	lr

08005106 <_ZN6Buffer14advanceReadTopEj>:

// **************************************************************
// advances the read top marker to point to the end of buffer data
// **************************************************************
void Buffer::advanceReadTop(unsigned int len)
{
 8005106:	b410      	push	{r4}
  // use local for multithread race.
  const char* readTop = mBufferWrite;
 8005108:	6882      	ldr	r2, [r0, #8]
  const char* readBase = mBufferReadTop;
 800510a:	6843      	ldr	r3, [r0, #4]

  unsigned int dataSize = (readTop - readBase) & GetBufferMask();
 800510c:	1ad2      	subs	r2, r2, r3
 800510e:	7b04      	ldrb	r4, [r0, #12]
 8005110:	b974      	cbnz	r4, 8005130 <_ZN6Buffer14advanceReadTopEj+0x2a>
 8005112:	f3c2 0c0a 	ubfx	ip, r2, #0, #11
  if (dataSize < len) {
    // advance as much as possible
    len = dataSize;
  }

  mBufferReadTop = GetBufferNewAddr(readBase, len);
 8005116:	458c      	cmp	ip, r1
 8005118:	bf94      	ite	ls
 800511a:	eb03 020c 	addls.w	r2, r3, ip
 800511e:	185a      	addhi	r2, r3, r1
 8005120:	f3c2 020a 	ubfx	r2, r2, #0, #11
 8005124:	f423 63ff 	bic.w	r3, r3, #2040	@ 0x7f8
 8005128:	f023 0307 	bic.w	r3, r3, #7
 800512c:	4313      	orrs	r3, r2
 800512e:	e00d      	b.n	800514c <_ZN6Buffer14advanceReadTopEj+0x46>
  unsigned int dataSize = (readTop - readBase) & GetBufferMask();
 8005130:	f3c2 0c0b 	ubfx	ip, r2, #0, #12
  mBufferReadTop = GetBufferNewAddr(readBase, len);
 8005134:	458c      	cmp	ip, r1
 8005136:	bf94      	ite	ls
 8005138:	eb03 020c 	addls.w	r2, r3, ip
 800513c:	185a      	addhi	r2, r3, r1
 800513e:	f3c2 020b 	ubfx	r2, r2, #0, #12
 8005142:	f423 637f 	bic.w	r3, r3, #4080	@ 0xff0
 8005146:	f023 030f 	bic.w	r3, r3, #15
 800514a:	4313      	orrs	r3, r2
 800514c:	6043      	str	r3, [r0, #4]
}
 800514e:	bc10      	pop	{r4}
 8005150:	4770      	bx	lr

08005152 <_ZN16Layer3Connection16calcBaseChecksumEmmb>:
// **************************************************************
// Calculates the virtual layer3 header CRC.
// fits both incoming and outbound messages, udp and tcp.
// **************************************************************
uint32_t Layer3Connection::calcBaseChecksum(uint32_t srcIP, uint32_t dstIP, bool isTCP)
{
 8005152:	b500      	push	{lr}
 8005154:	b085      	sub	sp, #20
 
  char dummy[10];
  *(uint32_t*)dummy = dstIP;
 8005156:	9101      	str	r1, [sp, #4]
  *(uint32_t*)(dummy + 4) = srcIP;
 8005158:	9002      	str	r0, [sp, #8]
  dummy[8] = 0;
 800515a:	2300      	movs	r3, #0
 800515c:	f88d 300c 	strb.w	r3, [sp, #12]
  if (isTCP) {
    // tcp identifier
    dummy[9] = 0x06;
 8005160:	429a      	cmp	r2, r3
 8005162:	bf0c      	ite	eq
 8005164:	2311      	moveq	r3, #17
 8005166:	2306      	movne	r3, #6
 8005168:	f88d 300d 	strb.w	r3, [sp, #13]
  else {
    // udp identifier
    dummy[9] = 0x11;
  }

  uint32_t checksum = calcChecksum(dummy, 10, 0, 0);
 800516c:	2300      	movs	r3, #0
 800516e:	461a      	mov	r2, r3
 8005170:	210a      	movs	r1, #10
 8005172:	a801      	add	r0, sp, #4
 8005174:	f000 fbd0 	bl	8005918 <calcChecksum>
  checksum = ~checksum;
 8005178:	43c3      	mvns	r3, r0
  checksum = ntohs(checksum);
 800517a:	0218      	lsls	r0, r3, #8
 800517c:	b280      	uxth	r0, r0
 800517e:	f3c3 2307 	ubfx	r3, r3, #8, #8
  return checksum;

}
 8005182:	4318      	orrs	r0, r3
 8005184:	b005      	add	sp, #20
 8005186:	f85d fb04 	ldr.w	pc, [sp], #4

0800518a <_ZN6Layer3C1ER19CommunicationCenter>:

// **************************************************************
// Constructor
// **************************************************************
Layer3::Layer3(CommunicationCenter& communicationCenter) :
  mPeriodicIndex(0),
 800518a:	2300      	movs	r3, #0
 800518c:	6003      	str	r3, [r0, #0]
  mCommunicationCenter(communicationCenter)
 800518e:	6641      	str	r1, [r0, #100]	@ 0x64
{
  int i;
  for (i=0; i<PORT_TYPES_COUNT; i++) {
 8005190:	4603      	mov	r3, r0
 8005192:	f100 0160 	add.w	r1, r0, #96	@ 0x60
    mListener[i].mSocket = 0;
 8005196:	2200      	movs	r2, #0
 8005198:	809a      	strh	r2, [r3, #4]
    mListener[i].mConnection = NULL;
 800519a:	609a      	str	r2, [r3, #8]
  for (i=0; i<PORT_TYPES_COUNT; i++) {
 800519c:	3310      	adds	r3, #16
 800519e:	428b      	cmp	r3, r1
 80051a0:	d1fa      	bne.n	8005198 <_ZN6Layer3C1ER19CommunicationCenter+0xe>
  }
}
 80051a2:	4770      	bx	lr

080051a4 <_ZN6Layer314removeListenerEt>:
// Removes an existing listener from layer3.
// will return 'false' on failure
// **************************************************************
bool Layer3::removeListener(uint16_t socket)
{
  if (socket == 0) {
 80051a4:	b1d1      	cbz	r1, 80051dc <_ZN6Layer314removeListenerEt+0x38>
{
 80051a6:	b510      	push	{r4, lr}
 80051a8:	460c      	mov	r4, r1
 80051aa:	4602      	mov	r2, r0
    return false;
  }

  int i;
  for (i=0; i<PORT_TYPES_COUNT; i++) {
 80051ac:	2300      	movs	r3, #0
    if (mListener[i].mSocket == socket)  {
 80051ae:	8891      	ldrh	r1, [r2, #4]
 80051b0:	42a1      	cmp	r1, r4
 80051b2:	d005      	beq.n	80051c0 <_ZN6Layer314removeListenerEt+0x1c>
  for (i=0; i<PORT_TYPES_COUNT; i++) {
 80051b4:	3301      	adds	r3, #1
 80051b6:	3210      	adds	r2, #16
 80051b8:	2b06      	cmp	r3, #6
 80051ba:	d1f8      	bne.n	80051ae <_ZN6Layer314removeListenerEt+0xa>
      mListener[i].mConnection = NULL;
      return true;
    }
  }

  return false;
 80051bc:	2000      	movs	r0, #0
}
 80051be:	bd10      	pop	{r4, pc}
      if ((mListener[i].mConnection != NULL) &&
 80051c0:	eb00 1403 	add.w	r4, r0, r3, lsl #4
 80051c4:	68a0      	ldr	r0, [r4, #8]
 80051c6:	b120      	cbz	r0, 80051d2 <_ZN6Layer314removeListenerEt+0x2e>
          (!mListener[i].mConnection->isClosed()))
 80051c8:	6803      	ldr	r3, [r0, #0]
 80051ca:	689b      	ldr	r3, [r3, #8]
 80051cc:	4798      	blx	r3
      if ((mListener[i].mConnection != NULL) &&
 80051ce:	2800      	cmp	r0, #0
 80051d0:	d0f5      	beq.n	80051be <_ZN6Layer314removeListenerEt+0x1a>
      mListener[i].mSocket = 0;
 80051d2:	2300      	movs	r3, #0
 80051d4:	80a3      	strh	r3, [r4, #4]
      mListener[i].mConnection = NULL;
 80051d6:	60a3      	str	r3, [r4, #8]
      return true;
 80051d8:	2001      	movs	r0, #1
 80051da:	e7f0      	b.n	80051be <_ZN6Layer314removeListenerEt+0x1a>
    return false;
 80051dc:	2000      	movs	r0, #0
}
 80051de:	4770      	bx	lr

080051e0 <_ZN6Layer312periodicCallEv>:
// **************************************************************
// activates periodic call for all connections
// handles one connection each time it is invoked.
// **************************************************************
void Layer3::periodicCall()
{
 80051e0:	b510      	push	{r4, lr}
 80051e2:	4604      	mov	r4, r0
  if (mListener[mPeriodicIndex].mConnection != NULL) {
 80051e4:	6803      	ldr	r3, [r0, #0]
 80051e6:	eb00 1303 	add.w	r3, r0, r3, lsl #4
 80051ea:	6898      	ldr	r0, [r3, #8]
 80051ec:	b110      	cbz	r0, 80051f4 <_ZN6Layer312periodicCallEv+0x14>
    Layer3Connection& connection = *(mListener[mPeriodicIndex].mConnection);

    connection.periodicCall();
 80051ee:	6803      	ldr	r3, [r0, #0]
 80051f0:	685b      	ldr	r3, [r3, #4]
 80051f2:	4798      	blx	r3
    //refreshArpEntry(mListener[mPeriodicIndex]);
  }

  mPeriodicIndex = (mPeriodicIndex + 1) % PORT_TYPES_COUNT;
 80051f4:	6822      	ldr	r2, [r4, #0]
 80051f6:	3201      	adds	r2, #1
 80051f8:	4b05      	ldr	r3, [pc, #20]	@ (8005210 <_ZN6Layer312periodicCallEv+0x30>)
 80051fa:	fb83 1302 	smull	r1, r3, r3, r2
 80051fe:	eba3 73e2 	sub.w	r3, r3, r2, asr #31
 8005202:	eb03 0343 	add.w	r3, r3, r3, lsl #1
 8005206:	eba2 0243 	sub.w	r2, r2, r3, lsl #1
 800520a:	6022      	str	r2, [r4, #0]
}
 800520c:	bd10      	pop	{r4, pc}
 800520e:	bf00      	nop
 8005210:	2aaaaaab 	.word	0x2aaaaaab

08005214 <_ZN6Layer314getSocketIndexEt>:
// Returns 'targetPort' index in 'mConnections'.
// Returns 'PORT_TYPES_COUNT' if not found.
// **************************************************************
int Layer3::getSocketIndex(uint16_t targetSocket)
{
  if (targetSocket == 0) {
 8005214:	468c      	mov	ip, r1
 8005216:	b149      	cbz	r1, 800522c <_ZN6Layer314getSocketIndexEt+0x18>
 8005218:	4603      	mov	r3, r0
    return PORT_TYPES_COUNT;
  }

  int i;
  for (i=0; i<PORT_TYPES_COUNT; i++) {
 800521a:	2000      	movs	r0, #0
    if (mListener[i].mSocket == targetSocket) {
 800521c:	889a      	ldrh	r2, [r3, #4]
 800521e:	4562      	cmp	r2, ip
 8005220:	d005      	beq.n	800522e <_ZN6Layer314getSocketIndexEt+0x1a>
  for (i=0; i<PORT_TYPES_COUNT; i++) {
 8005222:	3001      	adds	r0, #1
 8005224:	3310      	adds	r3, #16
 8005226:	2806      	cmp	r0, #6
 8005228:	d1f8      	bne.n	800521c <_ZN6Layer314getSocketIndexEt+0x8>
 800522a:	4770      	bx	lr
    return PORT_TYPES_COUNT;
 800522c:	2006      	movs	r0, #6
      break;
    }
  }

  return i;
}
 800522e:	4770      	bx	lr

08005230 <_ZN6Layer311handleFrameERK7IPFrame>:
{
 8005230:	b5f0      	push	{r4, r5, r6, r7, lr}
 8005232:	b083      	sub	sp, #12
  uint32_t getSrcIP() const
    {return mSrcIP;}
  uint32_t getDstIP() const
    {return mDstIP;}
  unsigned int getMsgLen() const
    {return mDataLen - mOffset;}
 8005234:	69cb      	ldr	r3, [r1, #28]
 8005236:	68cf      	ldr	r7, [r1, #12]
 8005238:	1aff      	subs	r7, r7, r3
  const char* getCurDataPtr() const
    {return (mBase + mOffset);}
 800523a:	698e      	ldr	r6, [r1, #24]
 800523c:	441e      	add	r6, r3
  if (msgLen < 4) {
 800523e:	2f03      	cmp	r7, #3
 8005240:	d912      	bls.n	8005268 <_ZN6Layer311handleFrameERK7IPFrame+0x38>
 8005242:	4605      	mov	r5, r0
 8005244:	460c      	mov	r4, r1
  int targetPortIndex = getSocketIndex(targetSocket);
 8005246:	8871      	ldrh	r1, [r6, #2]
 8005248:	f7ff ffe4 	bl	8005214 <_ZN6Layer314getSocketIndexEt>
  if (targetPortIndex < PORT_TYPES_COUNT) {
 800524c:	2805      	cmp	r0, #5
 800524e:	dc0e      	bgt.n	800526e <_ZN6Layer311handleFrameERK7IPFrame+0x3e>
    Layer3Connection& connection = *(mListener[targetPortIndex].mConnection);
 8005250:	eb05 1500 	add.w	r5, r5, r0, lsl #4
 8005254:	68a8      	ldr	r0, [r5, #8]
    return connection.handleIncomingMsg(ipFrame.getSrcIP(), ipFrame.getDstIP(),
 8005256:	6803      	ldr	r3, [r0, #0]
 8005258:	9700      	str	r7, [sp, #0]
 800525a:	681d      	ldr	r5, [r3, #0]
 800525c:	4633      	mov	r3, r6
 800525e:	6862      	ldr	r2, [r4, #4]
 8005260:	6821      	ldr	r1, [r4, #0]
 8005262:	47a8      	blx	r5
}
 8005264:	b003      	add	sp, #12
 8005266:	bdf0      	pop	{r4, r5, r6, r7, pc}
    return -1;
 8005268:	f04f 30ff 	mov.w	r0, #4294967295
 800526c:	e7fa      	b.n	8005264 <_ZN6Layer311handleFrameERK7IPFrame+0x34>
  return -2;
 800526e:	f06f 0001 	mvn.w	r0, #1
 8005272:	e7f7      	b.n	8005264 <_ZN6Layer311handleFrameERK7IPFrame+0x34>

08005274 <_ZN6Layer313hasConnectionEt>:
{
 8005274:	b508      	push	{r3, lr}
  return (getSocketIndex(targetSocket) < PORT_TYPES_COUNT);
 8005276:	f7ff ffcd 	bl	8005214 <_ZN6Layer314getSocketIndexEt>
}
 800527a:	2805      	cmp	r0, #5
 800527c:	bfcc      	ite	gt
 800527e:	2000      	movgt	r0, #0
 8005280:	2001      	movle	r0, #1
 8005282:	bd08      	pop	{r3, pc}

08005284 <_ZN6Layer311initArpDataER22Layer3SocketConnection>:
// **************************************************************
// refreshes ARP entry.
// verifies that the ARP will hold target (IP) entry
// **************************************************************
void Layer3::initArpData(Layer3SocketConnection& listener)
{
 8005284:	b510      	push	{r4, lr}
 8005286:	460c      	mov	r4, r1
  listener.mArpLease = getTimerLease(0);
 8005288:	2000      	movs	r0, #0
 800528a:	f005 f83d 	bl	800a308 <getTimerLease>
 800528e:	60a0      	str	r0, [r4, #8]
  listener.mArpTimeout = ARP_SEND_TIMEOUT;
 8005290:	f44f 737a 	mov.w	r3, #1000	@ 0x3e8
 8005294:	60e3      	str	r3, [r4, #12]
}
 8005296:	bd10      	pop	{r4, pc}

08005298 <_ZN6Layer311addListenerEtP16Layer3Connection>:
  if ((socket == 0) || (connection == NULL)) {
 8005298:	b1b9      	cbz	r1, 80052ca <_ZN6Layer311addListenerEtP16Layer3Connection+0x32>
 800529a:	468c      	mov	ip, r1
 800529c:	b1ba      	cbz	r2, 80052ce <_ZN6Layer311addListenerEtP16Layer3Connection+0x36>
{
 800529e:	b510      	push	{r4, lr}
 80052a0:	4603      	mov	r3, r0
  for (i=0; i<PORT_TYPES_COUNT; i++) {
 80052a2:	2100      	movs	r1, #0
    if (mListener[i].mSocket == 0)  {
 80052a4:	889c      	ldrh	r4, [r3, #4]
 80052a6:	b12c      	cbz	r4, 80052b4 <_ZN6Layer311addListenerEtP16Layer3Connection+0x1c>
  for (i=0; i<PORT_TYPES_COUNT; i++) {
 80052a8:	3101      	adds	r1, #1
 80052aa:	3310      	adds	r3, #16
 80052ac:	2906      	cmp	r1, #6
 80052ae:	d1f9      	bne.n	80052a4 <_ZN6Layer311addListenerEtP16Layer3Connection+0xc>
  return false;
 80052b0:	2000      	movs	r0, #0
}
 80052b2:	bd10      	pop	{r4, pc}
      mListener[i].mSocket = socket;
 80052b4:	eb00 1301 	add.w	r3, r0, r1, lsl #4
 80052b8:	f8a3 c004 	strh.w	ip, [r3, #4]
      mListener[i].mConnection = connection;
 80052bc:	609a      	str	r2, [r3, #8]
      initArpData(mListener[i]);
 80052be:	4619      	mov	r1, r3
 80052c0:	3104      	adds	r1, #4
 80052c2:	f7ff ffdf 	bl	8005284 <_ZN6Layer311initArpDataER22Layer3SocketConnection>
      return true;
 80052c6:	2001      	movs	r0, #1
 80052c8:	e7f3      	b.n	80052b2 <_ZN6Layer311addListenerEtP16Layer3Connection+0x1a>
    return false;
 80052ca:	2000      	movs	r0, #0
 80052cc:	4770      	bx	lr
 80052ce:	2000      	movs	r0, #0
}
 80052d0:	4770      	bx	lr

080052d2 <_ZN8ArpEntryC1Ev>:
// **********************************************************************

// **************************************************************
// Constructor
// **************************************************************
ArpEntry::ArpEntry() :
 80052d2:	b510      	push	{r4, lr}
 80052d4:	4604      	mov	r4, r0
  mIPAddress(0),
 80052d6:	2300      	movs	r3, #0
 80052d8:	f840 3b08 	str.w	r3, [r0], #8
  mMacAddr()
 80052dc:	f001 f8e2 	bl	80064a4 <_ZN7MACAddrC1Ev>
{
}
 80052e0:	4620      	mov	r0, r4
 80052e2:	bd10      	pop	{r4, pc}

080052e4 <_ZNK8ArpEntry16getThisLeaseTimeEv>:

// **************************************************************
// This function checks whether it is time to send another ARP message.
// **************************************************************
int32_t ArpEntry::getThisLeaseTime() const
{
 80052e4:	b508      	push	{r3, lr}
  return getLeaseTime(mLeaseTime);
 80052e6:	6900      	ldr	r0, [r0, #16]
 80052e8:	f005 f82e 	bl	800a348 <getLeaseTime>
}
 80052ec:	bd08      	pop	{r3, pc}
	...

080052f0 <_ZN3ArpC1Ev>:
// **********************************************************************
// **********************************************************************

// **************************************************************
// **************************************************************
Arp::Arp() :  broadCastAddr("\xFF\xFF\xFF\xFF\xFF\xFF")
 80052f0:	b5f0      	push	{r4, r5, r6, r7, lr}
 80052f2:	b087      	sub	sp, #28
 80052f4:	4607      	mov	r7, r0
 80052f6:	4605      	mov	r5, r0
 80052f8:	f500 66c3 	add.w	r6, r0, #1560	@ 0x618
 80052fc:	4604      	mov	r4, r0
 80052fe:	4620      	mov	r0, r4
 8005300:	f7ff ffe7 	bl	80052d2 <_ZN8ArpEntryC1Ev>
 8005304:	3418      	adds	r4, #24
 8005306:	42b4      	cmp	r4, r6
 8005308:	d1f9      	bne.n	80052fe <_ZN3ArpC1Ev+0xe>
 800530a:	490d      	ldr	r1, [pc, #52]	@ (8005340 <_ZN3ArpC1Ev+0x50>)
 800530c:	f507 60c3 	add.w	r0, r7, #1560	@ 0x618
 8005310:	f001 f8d4 	bl	80064bc <_ZN7MACAddrC1EPKc>
{
  int i;
  for (i=0; i<ARP_ENTRY_COUNT ; i++) {
 8005314:	f507 64c0 	add.w	r4, r7, #1536	@ 0x600
    mNormalEntries[i] = ArpEntry();
 8005318:	4668      	mov	r0, sp
 800531a:	f7ff ffda 	bl	80052d2 <_ZN8ArpEntryC1Ev>
 800531e:	46ac      	mov	ip, r5
 8005320:	46ee      	mov	lr, sp
 8005322:	e8be 000f 	ldmia.w	lr!, {r0, r1, r2, r3}
 8005326:	e8ac 000f 	stmia.w	ip!, {r0, r1, r2, r3}
 800532a:	e89e 0003 	ldmia.w	lr, {r0, r1}
 800532e:	e88c 0003 	stmia.w	ip, {r0, r1}
  for (i=0; i<ARP_ENTRY_COUNT ; i++) {
 8005332:	3518      	adds	r5, #24
 8005334:	42a5      	cmp	r5, r4
 8005336:	d1ef      	bne.n	8005318 <_ZN3ArpC1Ev+0x28>
  }

}
 8005338:	4638      	mov	r0, r7
 800533a:	b007      	add	sp, #28
 800533c:	bdf0      	pop	{r4, r5, r6, r7, pc}
 800533e:	bf00      	nop
 8005340:	0800c688 	.word	0x0800c688

08005344 <_ZN3Arp12periodicCallEv>:
// **************************************************************
// place holder for future entry aging
// **************************************************************
void Arp::periodicCall()
{
}
 8005344:	4770      	bx	lr

08005346 <_ZN3Arp16getNextFreeEntryEv>:
// **************************************************************
// Looks for the oldest non open entry in array (or the first empty one)
// if none found (error), returns 'ARP_ENTRY_COUNT'
// **************************************************************
int Arp::getNextFreeEntry()
{
 8005346:	b5f8      	push	{r3, r4, r5, r6, r7, lr}
 8005348:	4604      	mov	r4, r0
  int32_t oldestLease = ARP_SEND_MAX_TIMEOUT;
  int retVal = ARP_ENTRY_COUNT;

  int i;
  for (i=0; i<ARP_ENTRY_COUNT; i++) {
 800534a:	2500      	movs	r5, #0
  int retVal = ARP_ENTRY_COUNT;
 800534c:	2740      	movs	r7, #64	@ 0x40
  int32_t oldestLease = ARP_SEND_MAX_TIMEOUT;
 800534e:	f44f 1680 	mov.w	r6, #1048576	@ 0x100000
    if (mNormalEntries[i].ip() == 0) {
 8005352:	6823      	ldr	r3, [r4, #0]
 8005354:	b16b      	cbz	r3, 8005372 <_ZN3Arp16getNextFreeEntryEv+0x2c>
      return i;
    }

    int32_t lease = mNormalEntries[i].getThisLeaseTime();
 8005356:	4620      	mov	r0, r4
 8005358:	f7ff ffc4 	bl	80052e4 <_ZNK8ArpEntry16getThisLeaseTimeEv>
    if (lease < oldestLease) {
      oldestLease = lease;
 800535c:	42b0      	cmp	r0, r6
 800535e:	bfb8      	it	lt
 8005360:	462f      	movlt	r7, r5
 8005362:	4286      	cmp	r6, r0
 8005364:	bfa8      	it	ge
 8005366:	4606      	movge	r6, r0
  for (i=0; i<ARP_ENTRY_COUNT; i++) {
 8005368:	3501      	adds	r5, #1
 800536a:	3418      	adds	r4, #24
 800536c:	2d40      	cmp	r5, #64	@ 0x40
 800536e:	d1f0      	bne.n	8005352 <_ZN3Arp16getNextFreeEntryEv+0xc>
 8005370:	463d      	mov	r5, r7
      retVal = i;
    }
  }

  return retVal;
}
 8005372:	4628      	mov	r0, r5
 8005374:	bdf8      	pop	{r3, r4, r5, r6, r7, pc}
	...

08005378 <_ZN3Arp14sendArpMessageEmRK7MACAddrb>:
// This message can be either an ARP request, and an ARP answer
// **************************************************************
int Arp::sendArpMessage(uint32_t targetIP,
                        const MACAddr& targetMAC,
                        bool bAnswer)
{
 8005378:	b570      	push	{r4, r5, r6, lr}
 800537a:	b088      	sub	sp, #32
 800537c:	4606      	mov	r6, r0
 800537e:	460c      	mov	r4, r1
 8005380:	4615      	mov	r5, r2
  OutFrame arpMessage(FRAME_ARP_TYPE, targetMAC);
 8005382:	460a      	mov	r2, r1
 8005384:	2102      	movs	r1, #2
 8005386:	a805      	add	r0, sp, #20
 8005388:	f000 fc30 	bl	8005bec <_ZN8OutFrameC1E9FrameTypeRK7MACAddr>

  if (!arpMessage.isGood()) {
 800538c:	9b07      	ldr	r3, [sp, #28]
 800538e:	2b00      	cmp	r3, #0
 8005390:	d041      	beq.n	8005416 <_ZN3Arp14sendArpMessageEmRK7MACAddrb+0x9e>
    // need to protect against a busy system.
    return -1;
  }

  // An ethernet message
  arpMessage.writeHostU16(0x0100);
 8005392:	f44f 7180 	mov.w	r1, #256	@ 0x100
 8005396:	a805      	add	r0, sp, #20
 8005398:	f000 fbc8 	bl	8005b2c <_ZN8OutFrame12writeHostU16Et>
  // IP protocol
  arpMessage.writeHostU16(0x0008);
 800539c:	2108      	movs	r1, #8
 800539e:	a805      	add	r0, sp, #20
 80053a0:	f000 fbc4 	bl	8005b2c <_ZN8OutFrame12writeHostU16Et>
  // IPV4, and MAC6
  arpMessage.writeHostU16(0x0406);
 80053a4:	f240 4106 	movw	r1, #1030	@ 0x406
 80053a8:	a805      	add	r0, sp, #20
 80053aa:	f000 fbbf 	bl	8005b2c <_ZN8OutFrame12writeHostU16Et>
  // Fill in the 'request' field
  uint16_t request = bAnswer ? 0x0200 : 0x0100;
 80053ae:	2d00      	cmp	r5, #0
  arpMessage.writeHostU16(request);
 80053b0:	bf0c      	ite	eq
 80053b2:	f44f 7180 	moveq.w	r1, #256	@ 0x100
 80053b6:	f44f 7100 	movne.w	r1, #512	@ 0x200
 80053ba:	a805      	add	r0, sp, #20
 80053bc:	f000 fbb6 	bl	8005b2c <_ZN8OutFrame12writeHostU16Et>
 80053c0:	4d16      	ldr	r5, [pc, #88]	@ (800541c <_ZN3Arp14sendArpMessageEmRK7MACAddrb+0xa4>)
 80053c2:	69e8      	ldr	r0, [r5, #28]

  // write my IP/MAC data
  arpMessage.writeMAC(SystemManagement::getPersistentDataCenter().getMacAddr());
 80053c4:	6803      	ldr	r3, [r0, #0]
 80053c6:	689b      	ldr	r3, [r3, #8]
 80053c8:	4798      	blx	r3
 80053ca:	4601      	mov	r1, r0
 80053cc:	a805      	add	r0, sp, #20
 80053ce:	f000 fbe1 	bl	8005b94 <_ZN8OutFrame8writeMACERK7MACAddr>
  void closeCenter();
  void openCenter();
  ErrorStatus MasterSlaveComm(void* DataIn,uint8_t DataInSize ,void* DataOut, uint8_t DataOutSize);
  
  const MACAddr& getMacAddr(uint32_t ipAddr);
  uint32_t getIPAddr() const {return mIPData.mAddr; }
 80053d2:	69ab      	ldr	r3, [r5, #24]
  int writeNetworkU16(uint16_t val);
  int writeNetworkU32(uint32_t val);
  int writeHostU16(uint16_t val);
  int writeHostU32(uint32_t val);
  int writeIP(uint32_t ip)
    {return writeHostU32(ip);}
 80053d4:	f8d3 171c 	ldr.w	r1, [r3, #1820]	@ 0x71c
 80053d8:	a805      	add	r0, sp, #20
 80053da:	f000 fbc5 	bl	8005b68 <_ZN8OutFrame12writeHostU32Em>
  arpMessage.writeIP(SystemManagement::getCommunicationCenter().getIPAddr());

  // enter target IP/MAC data
  if (targetMAC.isValid()) {
 80053de:	79e3      	ldrb	r3, [r4, #7]
 80053e0:	b163      	cbz	r3, 80053fc <_ZN3Arp14sendArpMessageEmRK7MACAddrb+0x84>
    arpMessage.writeMAC(targetMAC);
 80053e2:	4621      	mov	r1, r4
 80053e4:	a805      	add	r0, sp, #20
 80053e6:	f000 fbd5 	bl	8005b94 <_ZN8OutFrame8writeMACERK7MACAddr>
 80053ea:	4631      	mov	r1, r6
 80053ec:	a805      	add	r0, sp, #20
 80053ee:	f000 fbbb 	bl	8005b68 <_ZN8OutFrame12writeHostU32Em>
    MACAddr emptyMAC(emptyAddr);
    arpMessage.writeMAC(emptyMAC);
  }
  arpMessage.writeIP(targetIP);

  return arpMessage.sendMsg();
 80053f2:	a805      	add	r0, sp, #20
 80053f4:	f000 fca6 	bl	8005d44 <_ZN8OutFrame7sendMsgEv>
}
 80053f8:	b008      	add	sp, #32
 80053fa:	bd70      	pop	{r4, r5, r6, pc}
    memset(emptyAddr, 0, 6);
 80053fc:	2300      	movs	r3, #0
 80053fe:	9300      	str	r3, [sp, #0]
 8005400:	f8ad 3004 	strh.w	r3, [sp, #4]
    MACAddr emptyMAC(emptyAddr);
 8005404:	4669      	mov	r1, sp
 8005406:	a802      	add	r0, sp, #8
 8005408:	f001 f858 	bl	80064bc <_ZN7MACAddrC1EPKc>
    arpMessage.writeMAC(emptyMAC);
 800540c:	a902      	add	r1, sp, #8
 800540e:	a805      	add	r0, sp, #20
 8005410:	f000 fbc0 	bl	8005b94 <_ZN8OutFrame8writeMACERK7MACAddr>
 8005414:	e7e9      	b.n	80053ea <_ZN3Arp14sendArpMessageEmRK7MACAddrb+0x72>
    return -1;
 8005416:	f04f 30ff 	mov.w	r0, #4294967295
 800541a:	e7ed      	b.n	80053f8 <_ZN3Arp14sendArpMessageEmRK7MACAddrb+0x80>
 800541c:	2000abe0 	.word	0x2000abe0

08005420 <_ZN8ArpEntry14sendArpRequestEv>:
{
 8005420:	b510      	push	{r4, lr}
 8005422:	b082      	sub	sp, #8
 8005424:	4604      	mov	r4, r0
  if (getLeaseTime(mLeaseTime) > 1) {
 8005426:	6900      	ldr	r0, [r0, #16]
 8005428:	f004 ff8e 	bl	800a348 <getLeaseTime>
 800542c:	2801      	cmp	r0, #1
 800542e:	dc01      	bgt.n	8005434 <_ZN8ArpEntry14sendArpRequestEv+0x14>
  if (mIPAddress == 0) {
 8005430:	6823      	ldr	r3, [r4, #0]
 8005432:	b90b      	cbnz	r3, 8005438 <_ZN8ArpEntry14sendArpRequestEv+0x18>
}
 8005434:	b002      	add	sp, #8
 8005436:	bd10      	pop	{r4, pc}
  mLeaseTime = getTimerLease(mSendTimeout);
 8005438:	6960      	ldr	r0, [r4, #20]
 800543a:	f004 ff65 	bl	800a308 <getTimerLease>
 800543e:	6120      	str	r0, [r4, #16]
  if (mSendTimeout < ARP_SEND_MAX_TIMEOUT) {
 8005440:	6963      	ldr	r3, [r4, #20]
 8005442:	f5b3 1f80 	cmp.w	r3, #1048576	@ 0x100000
    mSendTimeout = 2*mSendTimeout;
 8005446:	bf3c      	itt	cc
 8005448:	005b      	lslcc	r3, r3, #1
 800544a:	6163      	strcc	r3, [r4, #20]
  Arp::sendArpMessage(mIPAddress, MACAddr(), false);
 800544c:	6824      	ldr	r4, [r4, #0]
 800544e:	4668      	mov	r0, sp
 8005450:	f001 f828 	bl	80064a4 <_ZN7MACAddrC1Ev>
 8005454:	2200      	movs	r2, #0
 8005456:	4669      	mov	r1, sp
 8005458:	4620      	mov	r0, r4
 800545a:	f7ff ff8d 	bl	8005378 <_ZN3Arp14sendArpMessageEmRK7MACAddrb>
 800545e:	e7e9      	b.n	8005434 <_ZN8ArpEntry14sendArpRequestEv+0x14>

08005460 <_ZN8ArpEntry12refreshEntryEmRK7MACAddr>:
{
 8005460:	b570      	push	{r4, r5, r6, lr}
 8005462:	4604      	mov	r4, r0
 8005464:	460d      	mov	r5, r1
 8005466:	4616      	mov	r6, r2
  if (ip != mIPAddress) {
 8005468:	6803      	ldr	r3, [r0, #0]
 800546a:	428b      	cmp	r3, r1
 800546c:	d10d      	bne.n	800548a <_ZN8ArpEntry12refreshEntryEmRK7MACAddr+0x2a>
  mIPAddress = ip;
 800546e:	4623      	mov	r3, r4
 8005470:	f843 5b08 	str.w	r5, [r3], #8
  mMacAddr = mac;
 8005474:	e896 0003 	ldmia.w	r6, {r0, r1}
 8005478:	e883 0003 	stmia.w	r3, {r0, r1}
  mSendTimeout = ARP_SEND_TIMEOUT;
 800547c:	f44f 737a 	mov.w	r3, #1000	@ 0x3e8
 8005480:	6163      	str	r3, [r4, #20]
  if ((ip != 0) && (!(mac.isValid()))) {
 8005482:	b10d      	cbz	r5, 8005488 <_ZN8ArpEntry12refreshEntryEmRK7MACAddr+0x28>
 8005484:	79f3      	ldrb	r3, [r6, #7]
 8005486:	b12b      	cbz	r3, 8005494 <_ZN8ArpEntry12refreshEntryEmRK7MACAddr+0x34>
}
 8005488:	bd70      	pop	{r4, r5, r6, pc}
    mLeaseTime = getTimerLease(0);
 800548a:	2000      	movs	r0, #0
 800548c:	f004 ff3c 	bl	800a308 <getTimerLease>
 8005490:	6120      	str	r0, [r4, #16]
 8005492:	e7ec      	b.n	800546e <_ZN8ArpEntry12refreshEntryEmRK7MACAddr+0xe>
    sendArpRequest();
 8005494:	4620      	mov	r0, r4
 8005496:	f7ff ffc3 	bl	8005420 <_ZN8ArpEntry14sendArpRequestEv>
}
 800549a:	e7f5      	b.n	8005488 <_ZN8ArpEntry12refreshEntryEmRK7MACAddr+0x28>

0800549c <_ZN3Arp14updateArpEntryEmRK7MACAddr>:
{
 800549c:	b570      	push	{r4, r5, r6, lr}
 800549e:	4604      	mov	r4, r0
 80054a0:	460d      	mov	r5, r1
 80054a2:	4616      	mov	r6, r2
 80054a4:	f04f 0c00 	mov.w	ip, #0
  for (i=0; i<ARP_ENTRY_COUNT; i++) {
 80054a8:	4663      	mov	r3, ip
    if (mNormalEntries[i] == ip) {
 80054aa:	f854 202c 	ldr.w	r2, [r4, ip, lsl #2]
 80054ae:	4295      	cmp	r5, r2
 80054b0:	d012      	beq.n	80054d8 <_ZN3Arp14updateArpEntryEmRK7MACAddr+0x3c>
  for (i=0; i<ARP_ENTRY_COUNT; i++) {
 80054b2:	3301      	adds	r3, #1
 80054b4:	f10c 0c06 	add.w	ip, ip, #6
 80054b8:	2b40      	cmp	r3, #64	@ 0x40
 80054ba:	d1f6      	bne.n	80054aa <_ZN3Arp14updateArpEntryEmRK7MACAddr+0xe>
  int freeEntry = getNextFreeEntry();
 80054bc:	4620      	mov	r0, r4
 80054be:	f7ff ff42 	bl	8005346 <_ZN3Arp16getNextFreeEntryEv>
  if (freeEntry < ARP_ENTRY_COUNT) {
 80054c2:	283f      	cmp	r0, #63	@ 0x3f
 80054c4:	dc10      	bgt.n	80054e8 <_ZN3Arp14updateArpEntryEmRK7MACAddr+0x4c>
    mNormalEntries[freeEntry].refreshEntry(ip, mac);
 80054c6:	eb00 0040 	add.w	r0, r0, r0, lsl #1
 80054ca:	4632      	mov	r2, r6
 80054cc:	4629      	mov	r1, r5
 80054ce:	eb04 00c0 	add.w	r0, r4, r0, lsl #3
 80054d2:	f7ff ffc5 	bl	8005460 <_ZN8ArpEntry12refreshEntryEmRK7MACAddr>
 80054d6:	e007      	b.n	80054e8 <_ZN3Arp14updateArpEntryEmRK7MACAddr+0x4c>
    if (mNormalEntries[i] == ip) {
 80054d8:	eb03 0343 	add.w	r3, r3, r3, lsl #1
      mNormalEntries[i].refreshEntry(ip, mac);
 80054dc:	4632      	mov	r2, r6
 80054de:	4629      	mov	r1, r5
 80054e0:	eb04 00c3 	add.w	r0, r4, r3, lsl #3
 80054e4:	f7ff ffbc 	bl	8005460 <_ZN8ArpEntry12refreshEntryEmRK7MACAddr>
}
 80054e8:	bd70      	pop	{r4, r5, r6, pc}
	...

080054ec <_ZN3Arp10getMacAddrEm>:
{
 80054ec:	b570      	push	{r4, r5, r6, lr}
 80054ee:	b082      	sub	sp, #8
 80054f0:	4604      	mov	r4, r0
      {return mGlobalManagement.mCommunicationCenter;}
 80054f2:	4b1f      	ldr	r3, [pc, #124]	@ (8005570 <_ZN3Arp10getMacAddrEm+0x84>)
  uint32_t mask = SystemManagement::getCommunicationCenter().getIPData().mMask;
 80054f4:	699b      	ldr	r3, [r3, #24]
  if ((ip | mask) == (0xFFFFFFFF | mask))
 80054f6:	f8d3 3720 	ldr.w	r3, [r3, #1824]	@ 0x720
 80054fa:	430b      	orrs	r3, r1
 80054fc:	f1b3 3fff 	cmp.w	r3, #4294967295
 8005500:	d013      	beq.n	800552a <_ZN3Arp10getMacAddrEm+0x3e>
 8005502:	460d      	mov	r5, r1
 8005504:	2200      	movs	r2, #0
  for (i=0; i<ARP_ENTRY_COUNT; i++) {
 8005506:	4613      	mov	r3, r2
    if (mNormalEntries[i] == ip) {
 8005508:	f854 1022 	ldr.w	r1, [r4, r2, lsl #2]
 800550c:	428d      	cmp	r5, r1
 800550e:	d00f      	beq.n	8005530 <_ZN3Arp10getMacAddrEm+0x44>
  for (i=0; i<ARP_ENTRY_COUNT; i++) {
 8005510:	3301      	adds	r3, #1
 8005512:	3206      	adds	r2, #6
 8005514:	2b40      	cmp	r3, #64	@ 0x40
 8005516:	d1f7      	bne.n	8005508 <_ZN3Arp10getMacAddrEm+0x1c>
  int freeEntry = getNextFreeEntry();
 8005518:	4620      	mov	r0, r4
 800551a:	f7ff ff14 	bl	8005346 <_ZN3Arp16getNextFreeEntryEv>
 800551e:	4606      	mov	r6, r0
  if (freeEntry < ARP_ENTRY_COUNT) {
 8005520:	283f      	cmp	r0, #63	@ 0x3f
 8005522:	dd14      	ble.n	800554e <_ZN3Arp10getMacAddrEm+0x62>
  ArpEntry();

  void refreshEntry(uint32_t ip, const MACAddr& mac);
  void sendArpRequest();

  const MACAddr& mac() const {return mMacAddr;}
 8005524:	f504 65c1 	add.w	r5, r4, #1544	@ 0x608
  return mNormalEntries[ARP_ENTRY_COUNT].mac();
 8005528:	e00a      	b.n	8005540 <_ZN3Arp10getMacAddrEm+0x54>
    return broadCastAddr;
 800552a:	f500 65c3 	add.w	r5, r0, #1560	@ 0x618
 800552e:	e007      	b.n	8005540 <_ZN3Arp10getMacAddrEm+0x54>
 8005530:	eb03 0343 	add.w	r3, r3, r3, lsl #1
 8005534:	00db      	lsls	r3, r3, #3
 8005536:	f103 0508 	add.w	r5, r3, #8
 800553a:	4425      	add	r5, r4
      if (!(mNormalEntries[i].mac().isValid())) {
 800553c:	79ea      	ldrb	r2, [r5, #7]
 800553e:	b112      	cbz	r2, 8005546 <_ZN3Arp10getMacAddrEm+0x5a>
}
 8005540:	4628      	mov	r0, r5
 8005542:	b002      	add	sp, #8
 8005544:	bd70      	pop	{r4, r5, r6, pc}
        mNormalEntries[i].sendArpRequest();
 8005546:	18e0      	adds	r0, r4, r3
 8005548:	f7ff ff6a 	bl	8005420 <_ZN8ArpEntry14sendArpRequestEv>
 800554c:	e7f8      	b.n	8005540 <_ZN3Arp10getMacAddrEm+0x54>
    MACAddr dummy;
 800554e:	4668      	mov	r0, sp
 8005550:	f000 ffa8 	bl	80064a4 <_ZN7MACAddrC1Ev>
    mNormalEntries[freeEntry].refreshEntry(ip, dummy);
 8005554:	eb06 0046 	add.w	r0, r6, r6, lsl #1
 8005558:	00c6      	lsls	r6, r0, #3
 800555a:	466a      	mov	r2, sp
 800555c:	4629      	mov	r1, r5
 800555e:	eb04 00c0 	add.w	r0, r4, r0, lsl #3
 8005562:	f7ff ff7d 	bl	8005460 <_ZN8ArpEntry12refreshEntryEmRK7MACAddr>
 8005566:	f106 0508 	add.w	r5, r6, #8
 800556a:	4425      	add	r5, r4
 800556c:	e7e8      	b.n	8005540 <_ZN3Arp10getMacAddrEm+0x54>
 800556e:	bf00      	nop
 8005570:	2000abe0 	.word	0x2000abe0

08005574 <_ZN3Arp14handleArpFrameER7InFrame>:
    {return mLen-mOffset;}
 8005574:	684b      	ldr	r3, [r1, #4]
 8005576:	688a      	ldr	r2, [r1, #8]
 8005578:	1a9b      	subs	r3, r3, r2
  if (inFrame.getDataLen() < 28) {
 800557a:	2b1b      	cmp	r3, #27
 800557c:	d959      	bls.n	8005632 <_ZN3Arp14handleArpFrameER7InFrame+0xbe>
{
 800557e:	b5f0      	push	{r4, r5, r6, r7, lr}
 8005580:	b085      	sub	sp, #20
 8005582:	4607      	mov	r7, r0
 8005584:	460c      	mov	r4, r1
  if (inFrame.readNextHostU16() != 0x0100) {
 8005586:	4608      	mov	r0, r1
 8005588:	f000 fa95 	bl	8005ab6 <_ZN7InFrame15readNextHostU16Ev>
 800558c:	f5b0 7f80 	cmp.w	r0, #256	@ 0x100
 8005590:	d152      	bne.n	8005638 <_ZN3Arp14handleArpFrameER7InFrame+0xc4>
  if (inFrame.readNextHostU16() != 0x0008) {
 8005592:	4620      	mov	r0, r4
 8005594:	f000 fa8f 	bl	8005ab6 <_ZN7InFrame15readNextHostU16Ev>
 8005598:	2808      	cmp	r0, #8
 800559a:	d150      	bne.n	800563e <_ZN3Arp14handleArpFrameER7InFrame+0xca>
  if (inFrame.readNextHostU16() != 0x0406) {
 800559c:	4620      	mov	r0, r4
 800559e:	f000 fa8a 	bl	8005ab6 <_ZN7InFrame15readNextHostU16Ev>
 80055a2:	f240 4306 	movw	r3, #1030	@ 0x406
 80055a6:	4298      	cmp	r0, r3
 80055a8:	d14c      	bne.n	8005644 <_ZN3Arp14handleArpFrameER7InFrame+0xd0>
  uint16_t arpRequest = inFrame.readNextHostU16();
 80055aa:	4620      	mov	r0, r4
 80055ac:	f000 fa83 	bl	8005ab6 <_ZN7InFrame15readNextHostU16Ev>
 80055b0:	4605      	mov	r5, r0
  if ((arpRequest != 0x0100) && (arpRequest != 0x0200)) {
 80055b2:	f5b0 7f80 	cmp.w	r0, #256	@ 0x100
 80055b6:	d002      	beq.n	80055be <_ZN3Arp14handleArpFrameER7InFrame+0x4a>
 80055b8:	f5b0 7f00 	cmp.w	r0, #512	@ 0x200
 80055bc:	d145      	bne.n	800564a <_ZN3Arp14handleArpFrameER7InFrame+0xd6>
  MACAddr srcMAC(inFrame.readNextMAC());
 80055be:	4620      	mov	r0, r4
 80055c0:	f000 fa9b 	bl	8005afa <_ZN7InFrame11readNextMACEv>
 80055c4:	4601      	mov	r1, r0
 80055c6:	a802      	add	r0, sp, #8
 80055c8:	f000 ff78 	bl	80064bc <_ZN7MACAddrC1EPKc>
    {return readNextHostU32();}
 80055cc:	4620      	mov	r0, r4
 80055ce:	f000 fa87 	bl	8005ae0 <_ZN7InFrame15readNextHostU32Ev>
 80055d2:	4606      	mov	r6, r0
  MACAddr targetMAC(inFrame.readNextMAC());
 80055d4:	4620      	mov	r0, r4
 80055d6:	f000 fa90 	bl	8005afa <_ZN7InFrame11readNextMACEv>
 80055da:	4601      	mov	r1, r0
 80055dc:	4668      	mov	r0, sp
 80055de:	f000 ff6d 	bl	80064bc <_ZN7MACAddrC1EPKc>
  if ((!targetMAC.isEmpty()) &&
 80055e2:	4668      	mov	r0, sp
 80055e4:	f000 ff76 	bl	80064d4 <_ZNK7MACAddr7isEmptyEv>
 80055e8:	b940      	cbnz	r0, 80055fc <_ZN3Arp14handleArpFrameER7InFrame+0x88>
      {return mGlobalManagement.mPersistentDataCenter;}
 80055ea:	4b1a      	ldr	r3, [pc, #104]	@ (8005654 <_ZN3Arp14handleArpFrameER7InFrame+0xe0>)
 80055ec:	69d8      	ldr	r0, [r3, #28]
      (targetMAC != SystemManagement::getPersistentDataCenter().getMacAddr()))
 80055ee:	6803      	ldr	r3, [r0, #0]
 80055f0:	689b      	ldr	r3, [r3, #8]
 80055f2:	4798      	blx	r3
 80055f4:	4601      	mov	r1, r0
 80055f6:	4668      	mov	r0, sp
 80055f8:	f000 ff77 	bl	80064ea <_ZneRK7MACAddrS1_>
 80055fc:	4620      	mov	r0, r4
 80055fe:	f000 fa6f 	bl	8005ae0 <_ZN7InFrame15readNextHostU32Ev>
      {return mGlobalManagement.mCommunicationCenter;}
 8005602:	4b14      	ldr	r3, [pc, #80]	@ (8005654 <_ZN3Arp14handleArpFrameER7InFrame+0xe0>)
 8005604:	699b      	ldr	r3, [r3, #24]
  if (inFrame.readNextIP() != SystemManagement::getCommunicationCenter().getIPAddr()) {
 8005606:	f8d3 371c 	ldr.w	r3, [r3, #1820]	@ 0x71c
 800560a:	4283      	cmp	r3, r0
 800560c:	d11f      	bne.n	800564e <_ZN3Arp14handleArpFrameER7InFrame+0xda>
  updateArpEntry(srcIP, srcMAC);
 800560e:	aa02      	add	r2, sp, #8
 8005610:	4631      	mov	r1, r6
 8005612:	4638      	mov	r0, r7
 8005614:	f7ff ff42 	bl	800549c <_ZN3Arp14updateArpEntryEmRK7MACAddr>
  if (arpRequest == 0x0100) {
 8005618:	f5b5 7f80 	cmp.w	r5, #256	@ 0x100
 800561c:	d002      	beq.n	8005624 <_ZN3Arp14handleArpFrameER7InFrame+0xb0>
  return 0;
 800561e:	2000      	movs	r0, #0
}
 8005620:	b005      	add	sp, #20
 8005622:	bdf0      	pop	{r4, r5, r6, r7, pc}
    Arp::sendArpMessage(srcIP, srcMAC, true);
 8005624:	2201      	movs	r2, #1
 8005626:	a902      	add	r1, sp, #8
 8005628:	4630      	mov	r0, r6
 800562a:	f7ff fea5 	bl	8005378 <_ZN3Arp14sendArpMessageEmRK7MACAddrb>
  return 0;
 800562e:	2000      	movs	r0, #0
 8005630:	e7f6      	b.n	8005620 <_ZN3Arp14handleArpFrameER7InFrame+0xac>
    return -1;
 8005632:	f04f 30ff 	mov.w	r0, #4294967295
}
 8005636:	4770      	bx	lr
    return -2;
 8005638:	f06f 0001 	mvn.w	r0, #1
 800563c:	e7f0      	b.n	8005620 <_ZN3Arp14handleArpFrameER7InFrame+0xac>
    return -3;
 800563e:	f06f 0002 	mvn.w	r0, #2
 8005642:	e7ed      	b.n	8005620 <_ZN3Arp14handleArpFrameER7InFrame+0xac>
    return -4;
 8005644:	f06f 0003 	mvn.w	r0, #3
 8005648:	e7ea      	b.n	8005620 <_ZN3Arp14handleArpFrameER7InFrame+0xac>
    return false;
 800564a:	2000      	movs	r0, #0
 800564c:	e7e8      	b.n	8005620 <_ZN3Arp14handleArpFrameER7InFrame+0xac>
    return -6;
 800564e:	f06f 0005 	mvn.w	r0, #5
 8005652:	e7e5      	b.n	8005620 <_ZN3Arp14handleArpFrameER7InFrame+0xac>
 8005654:	2000abe0 	.word	0x2000abe0

08005658 <ethernetConfigMIIAR>:
#define EXTI_Line19      ((uint32_t)0x80000)

// **************************************************************
// **************************************************************
void ethernetConfigMIIAR()
{
 8005658:	b480      	push	{r7}
 800565a:	b083      	sub	sp, #12
 800565c:	af00      	add	r7, sp, #0
  uint32_t tmpReg;

  tmpReg = ETH->MACMIIAR & MACMIIAR_CR_Mask;
 800565e:	4b06      	ldr	r3, [pc, #24]	@ (8005678 <ethernetConfigMIIAR+0x20>)
 8005660:	691b      	ldr	r3, [r3, #16]
 8005662:	f023 031c 	bic.w	r3, r3, #28
 8005666:	607b      	str	r3, [r7, #4]
  tmpReg |= ETH_MACMIIAR_CR_Div42;
  ETH->MACMIIAR = tmpReg;
 8005668:	4a03      	ldr	r2, [pc, #12]	@ (8005678 <ethernetConfigMIIAR+0x20>)
 800566a:	687b      	ldr	r3, [r7, #4]
 800566c:	6113      	str	r3, [r2, #16]
}
 800566e:	bf00      	nop
 8005670:	370c      	adds	r7, #12
 8005672:	46bd      	mov	sp, r7
 8005674:	bc80      	pop	{r7}
 8005676:	4770      	bx	lr
 8005678:	40028000 	.word	0x40028000

0800567c <ethernetConfigCR>:

// **************************************************************
// **************************************************************
void ethernetConfigCR()
{
 800567c:	b480      	push	{r7}
 800567e:	b083      	sub	sp, #12
 8005680:	af00      	add	r7, sp, #0
  uint32_t tmpReg = ETH->MACCR & MACCR_CLEAR_Mask;
 8005682:	4b14      	ldr	r3, [pc, #80]	@ (80056d4 <ethernetConfigCR+0x58>)
 8005684:	681a      	ldr	r2, [r3, #0]
 8005686:	4b14      	ldr	r3, [pc, #80]	@ (80056d8 <ethernetConfigCR+0x5c>)
 8005688:	4013      	ands	r3, r2
 800568a:	607b      	str	r3, [r7, #4]

  tmpReg |= ETH_Watchdog_Disable;
 800568c:	687b      	ldr	r3, [r7, #4]
 800568e:	f443 0300 	orr.w	r3, r3, #8388608	@ 0x800000
 8005692:	607b      	str	r3, [r7, #4]
  tmpReg |= ETH_Jabber_Disable;
 8005694:	687b      	ldr	r3, [r7, #4]
 8005696:	f443 0380 	orr.w	r3, r3, #4194304	@ 0x400000
 800569a:	607b      	str	r3, [r7, #4]
  tmpReg |= ETH_JumboFrame_Disable;
  tmpReg |= ETH_InterFrameGap_64Bit;
 800569c:	687b      	ldr	r3, [r7, #4]
 800569e:	f443 2300 	orr.w	r3, r3, #524288	@ 0x80000
 80056a2:	607b      	str	r3, [r7, #4]
  tmpReg |= ETH_CarrierSense_Enable;
  tmpReg |= ETH_Speed_100M;
 80056a4:	687b      	ldr	r3, [r7, #4]
 80056a6:	f443 4380 	orr.w	r3, r3, #16384	@ 0x4000
 80056aa:	607b      	str	r3, [r7, #4]
  tmpReg |= ETH_ReceiveOwn_Disable;
 80056ac:	687b      	ldr	r3, [r7, #4]
 80056ae:	f443 5300 	orr.w	r3, r3, #8192	@ 0x2000
 80056b2:	607b      	str	r3, [r7, #4]
  tmpReg |= ETH_LoopbackMode_Disable;
  tmpReg |= ETH_Mode_FullDuplex;
 80056b4:	687b      	ldr	r3, [r7, #4]
 80056b6:	f443 6300 	orr.w	r3, r3, #2048	@ 0x800
 80056ba:	607b      	str	r3, [r7, #4]
  tmpReg |= ETH_ChecksumOffload_Disable;
  tmpReg |= ETH_RetryTransmission_Disable;
 80056bc:	687b      	ldr	r3, [r7, #4]
 80056be:	f443 7300 	orr.w	r3, r3, #512	@ 0x200
 80056c2:	607b      	str	r3, [r7, #4]
  tmpReg |= ETH_AutomaticPadCRCStrip_Disable;
  tmpReg |= ETH_BackOffLimit_10;
  tmpReg |= ETH_DeferralCheck_Disable;

  ETH->MACCR = (uint32_t)tmpReg;
 80056c4:	4a03      	ldr	r2, [pc, #12]	@ (80056d4 <ethernetConfigCR+0x58>)
 80056c6:	687b      	ldr	r3, [r7, #4]
 80056c8:	6013      	str	r3, [r2, #0]
}
 80056ca:	bf00      	nop
 80056cc:	370c      	adds	r7, #12
 80056ce:	46bd      	mov	sp, r7
 80056d0:	bc80      	pop	{r7}
 80056d2:	4770      	bx	lr
 80056d4:	40028000 	.word	0x40028000
 80056d8:	ff20810f 	.word	0xff20810f

080056dc <ethernetConfigFFR>:

// **************************************************************
// **************************************************************
void ethernetConfigFFR()
{
 80056dc:	b480      	push	{r7}
 80056de:	b083      	sub	sp, #12
 80056e0:	af00      	add	r7, sp, #0
  uint32_t tmpReg = ETH_ReceiveAll_Disable |
 80056e2:	23c0      	movs	r3, #192	@ 0xc0
 80056e4:	607b      	str	r3, [r7, #4]
                    ETH_DestinationAddrFilter_Normal |
                    ETH_PromiscuousMode_Disable |
                    ETH_MulticastFramesFilter_Perfect |
                    ETH_UnicastFramesFilter_Perfect;

  ETH->MACFFR = tmpReg;
 80056e6:	4a04      	ldr	r2, [pc, #16]	@ (80056f8 <ethernetConfigFFR+0x1c>)
 80056e8:	687b      	ldr	r3, [r7, #4]
 80056ea:	6053      	str	r3, [r2, #4]
}
 80056ec:	bf00      	nop
 80056ee:	370c      	adds	r7, #12
 80056f0:	46bd      	mov	sp, r7
 80056f2:	bc80      	pop	{r7}
 80056f4:	4770      	bx	lr
 80056f6:	bf00      	nop
 80056f8:	40028000 	.word	0x40028000

080056fc <ethernetConfigHTR>:

// **************************************************************
// **************************************************************
void ethernetConfigHTR()
{
 80056fc:	b480      	push	{r7}
 80056fe:	af00      	add	r7, sp, #0
  ETH->MACHTHR = 0;
 8005700:	4b04      	ldr	r3, [pc, #16]	@ (8005714 <ethernetConfigHTR+0x18>)
 8005702:	2200      	movs	r2, #0
 8005704:	609a      	str	r2, [r3, #8]
  ETH->MACHTLR = 0;
 8005706:	4b03      	ldr	r3, [pc, #12]	@ (8005714 <ethernetConfigHTR+0x18>)
 8005708:	2200      	movs	r2, #0
 800570a:	60da      	str	r2, [r3, #12]
}
 800570c:	bf00      	nop
 800570e:	46bd      	mov	sp, r7
 8005710:	bc80      	pop	{r7}
 8005712:	4770      	bx	lr
 8005714:	40028000 	.word	0x40028000

08005718 <ethernetConfigFCR>:

// **************************************************************
// **************************************************************
void ethernetConfigFCR()
{
 8005718:	b480      	push	{r7}
 800571a:	b083      	sub	sp, #12
 800571c:	af00      	add	r7, sp, #0
  uint32_t tmpReg = ETH->MACFCR & MACFCR_CLEAR_Mask;
 800571e:	4b09      	ldr	r3, [pc, #36]	@ (8005744 <ethernetConfigFCR+0x2c>)
 8005720:	699a      	ldr	r2, [r3, #24]
 8005722:	f64f 7341 	movw	r3, #65345	@ 0xff41
 8005726:	4013      	ands	r3, r2
 8005728:	607b      	str	r3, [r7, #4]

  tmpReg |= 0;          // This one for pause time
  tmpReg |= ETH_ZeroQuantaPause_Disable;
 800572a:	687b      	ldr	r3, [r7, #4]
 800572c:	f043 0380 	orr.w	r3, r3, #128	@ 0x80
 8005730:	607b      	str	r3, [r7, #4]
  tmpReg |= ETH_PauseLowThreshold_Minus4;
  tmpReg |= ETH_UnicastPauseFrameDetect_Disable;
  tmpReg |= ETH_ReceiveFlowControl_Disable;
  tmpReg |= ETH_TransmitFlowControl_Disable;
  
  ETH->MACFCR = tmpReg;
 8005732:	4a04      	ldr	r2, [pc, #16]	@ (8005744 <ethernetConfigFCR+0x2c>)
 8005734:	687b      	ldr	r3, [r7, #4]
 8005736:	6193      	str	r3, [r2, #24]
}
 8005738:	bf00      	nop
 800573a:	370c      	adds	r7, #12
 800573c:	46bd      	mov	sp, r7
 800573e:	bc80      	pop	{r7}
 8005740:	4770      	bx	lr
 8005742:	bf00      	nop
 8005744:	40028000 	.word	0x40028000

08005748 <ethernetConfigVLANTR>:

// **************************************************************
// **************************************************************
static void ethernetConfigVLANTR()
{
 8005748:	b480      	push	{r7}
 800574a:	b083      	sub	sp, #12
 800574c:	af00      	add	r7, sp, #0
  uint32_t tmpReg = ETH_VLANTagComparison_16Bit;
 800574e:	2300      	movs	r3, #0
 8005750:	607b      	str	r3, [r7, #4]
  tmpReg |= 0;      // VLAN tag identifier

  ETH->MACVLANTR = tmpReg;
 8005752:	4a04      	ldr	r2, [pc, #16]	@ (8005764 <ethernetConfigVLANTR+0x1c>)
 8005754:	687b      	ldr	r3, [r7, #4]
 8005756:	61d3      	str	r3, [r2, #28]
}
 8005758:	bf00      	nop
 800575a:	370c      	adds	r7, #12
 800575c:	46bd      	mov	sp, r7
 800575e:	bc80      	pop	{r7}
 8005760:	4770      	bx	lr
 8005762:	bf00      	nop
 8005764:	40028000 	.word	0x40028000

08005768 <ethernetConfigDMA0MR>:

// **************************************************************
// **************************************************************
static void ethernetConfigDMA0MR()
{
 8005768:	b480      	push	{r7}
 800576a:	b083      	sub	sp, #12
 800576c:	af00      	add	r7, sp, #0
  uint32_t tmpReg = ETH->DMAOMR & DMAOMR_CLEAR_Mask;
 800576e:	4b11      	ldr	r3, [pc, #68]	@ (80057b4 <ethernetConfigDMA0MR+0x4c>)
 8005770:	f503 5380 	add.w	r3, r3, #4096	@ 0x1000
 8005774:	699a      	ldr	r2, [r3, #24]
 8005776:	4b10      	ldr	r3, [pc, #64]	@ (80057b8 <ethernetConfigDMA0MR+0x50>)
 8005778:	4013      	ands	r3, r2
 800577a:	607b      	str	r3, [r7, #4]

  tmpReg |= ETH_DropTCPIPChecksumErrorFrame_Disable;
 800577c:	687b      	ldr	r3, [r7, #4]
 800577e:	f043 6380 	orr.w	r3, r3, #67108864	@ 0x4000000
 8005782:	607b      	str	r3, [r7, #4]
  tmpReg |= ETH_ReceiveStoreForward_Enable;
 8005784:	687b      	ldr	r3, [r7, #4]
 8005786:	f043 7300 	orr.w	r3, r3, #33554432	@ 0x2000000
 800578a:	607b      	str	r3, [r7, #4]
  tmpReg |= ETH_FlushReceivedFrame_Enable;
  tmpReg |= ETH_TransmitStoreForward_Enable;
 800578c:	687b      	ldr	r3, [r7, #4]
 800578e:	f443 1300 	orr.w	r3, r3, #2097152	@ 0x200000
 8005792:	607b      	str	r3, [r7, #4]
  tmpReg |= ETH_TransmitThresholdControl_64Bytes;
  tmpReg |= ETH_ForwardErrorFrames_Disable;
  tmpReg |= ETH_ForwardUndersizedGoodFrames_Disable;
  tmpReg |= ETH_ReceiveThresholdControl_64Bytes;
  tmpReg |= ETH_SecondFrameOperate_Enable;          // XXX - need to verify this one.
 8005794:	687b      	ldr	r3, [r7, #4]
 8005796:	f043 0304 	orr.w	r3, r3, #4
 800579a:	607b      	str	r3, [r7, #4]

  ETH->DMAOMR = tmpReg;
 800579c:	4b05      	ldr	r3, [pc, #20]	@ (80057b4 <ethernetConfigDMA0MR+0x4c>)
 800579e:	f503 5380 	add.w	r3, r3, #4096	@ 0x1000
 80057a2:	461a      	mov	r2, r3
 80057a4:	687b      	ldr	r3, [r7, #4]
 80057a6:	6193      	str	r3, [r2, #24]
}
 80057a8:	bf00      	nop
 80057aa:	370c      	adds	r7, #12
 80057ac:	46bd      	mov	sp, r7
 80057ae:	bc80      	pop	{r7}
 80057b0:	4770      	bx	lr
 80057b2:	bf00      	nop
 80057b4:	40028000 	.word	0x40028000
 80057b8:	f8de3f23 	.word	0xf8de3f23

080057bc <ethernetConfigDMABMR>:

// **************************************************************
// **************************************************************
static void ethernetConfigDMABMR()
{
 80057bc:	b480      	push	{r7}
 80057be:	b083      	sub	sp, #12
 80057c0:	af00      	add	r7, sp, #0
  uint32_t tmpReg = ETH_AddressAlignedBeats_Enable |
 80057c2:	4b06      	ldr	r3, [pc, #24]	@ (80057dc <ethernetConfigDMABMR+0x20>)
 80057c4:	607b      	str	r3, [r7, #4]
                    ETH_TxDMABurstLength_32Beat |
                    0 |                                 // description skip length
                    ETH_DMAArbitration_RoundRobin_RxTx_1_1 |
                    ETH_DMABMR_USP;
                      
  ETH->DMABMR = tmpReg;
 80057c6:	4b06      	ldr	r3, [pc, #24]	@ (80057e0 <ethernetConfigDMABMR+0x24>)
 80057c8:	f503 5380 	add.w	r3, r3, #4096	@ 0x1000
 80057cc:	461a      	mov	r2, r3
 80057ce:	687b      	ldr	r3, [r7, #4]
 80057d0:	6013      	str	r3, [r2, #0]
}
 80057d2:	bf00      	nop
 80057d4:	370c      	adds	r7, #12
 80057d6:	46bd      	mov	sp, r7
 80057d8:	bc80      	pop	{r7}
 80057da:	4770      	bx	lr
 80057dc:	02c12000 	.word	0x02c12000
 80057e0:	40028000 	.word	0x40028000

080057e4 <ethernetConfig>:

// **************************************************************
// **************************************************************
static void ethernetConfig()
{
 80057e4:	b580      	push	{r7, lr}
 80057e6:	af00      	add	r7, sp, #0
  ethernetConfigMIIAR();
 80057e8:	f7ff ff36 	bl	8005658 <ethernetConfigMIIAR>
  ethernetConfigCR();
 80057ec:	f7ff ff46 	bl	800567c <ethernetConfigCR>
  ethernetConfigFFR();
 80057f0:	f7ff ff74 	bl	80056dc <ethernetConfigFFR>
  ethernetConfigHTR();
 80057f4:	f7ff ff82 	bl	80056fc <ethernetConfigHTR>
  ethernetConfigFCR();
 80057f8:	f7ff ff8e 	bl	8005718 <ethernetConfigFCR>
  ethernetConfigVLANTR();
 80057fc:	f7ff ffa4 	bl	8005748 <ethernetConfigVLANTR>
  ethernetConfigDMA0MR();
 8005800:	f7ff ffb2 	bl	8005768 <ethernetConfigDMA0MR>
  ethernetConfigDMABMR();
 8005804:	f7ff ffda 	bl	80057bc <ethernetConfigDMABMR>
}
 8005808:	bf00      	nop
 800580a:	bd80      	pop	{r7, pc}

0800580c <ETH_Start>:

// **************************************************************
// **************************************************************
static void ETH_Start()
{
 800580c:	b480      	push	{r7}
 800580e:	af00      	add	r7, sp, #0
  ETH->MACCR |= ETH_MACCR_TE;
 8005810:	4b16      	ldr	r3, [pc, #88]	@ (800586c <ETH_Start+0x60>)
 8005812:	681b      	ldr	r3, [r3, #0]
 8005814:	4a15      	ldr	r2, [pc, #84]	@ (800586c <ETH_Start+0x60>)
 8005816:	f043 0308 	orr.w	r3, r3, #8
 800581a:	6013      	str	r3, [r2, #0]
  ETH->DMAOMR |= ETH_DMAOMR_FTF;
 800581c:	4b13      	ldr	r3, [pc, #76]	@ (800586c <ETH_Start+0x60>)
 800581e:	f503 5380 	add.w	r3, r3, #4096	@ 0x1000
 8005822:	699b      	ldr	r3, [r3, #24]
 8005824:	4a11      	ldr	r2, [pc, #68]	@ (800586c <ETH_Start+0x60>)
 8005826:	f443 1380 	orr.w	r3, r3, #1048576	@ 0x100000
 800582a:	f502 5280 	add.w	r2, r2, #4096	@ 0x1000
 800582e:	6193      	str	r3, [r2, #24]
  ETH->MACCR |= ETH_MACCR_RE;
 8005830:	4b0e      	ldr	r3, [pc, #56]	@ (800586c <ETH_Start+0x60>)
 8005832:	681b      	ldr	r3, [r3, #0]
 8005834:	4a0d      	ldr	r2, [pc, #52]	@ (800586c <ETH_Start+0x60>)
 8005836:	f043 0304 	orr.w	r3, r3, #4
 800583a:	6013      	str	r3, [r2, #0]
  ETH->DMAOMR |= ETH_DMAOMR_ST;
 800583c:	4b0b      	ldr	r3, [pc, #44]	@ (800586c <ETH_Start+0x60>)
 800583e:	f503 5380 	add.w	r3, r3, #4096	@ 0x1000
 8005842:	699b      	ldr	r3, [r3, #24]
 8005844:	4a09      	ldr	r2, [pc, #36]	@ (800586c <ETH_Start+0x60>)
 8005846:	f443 5300 	orr.w	r3, r3, #8192	@ 0x2000
 800584a:	f502 5280 	add.w	r2, r2, #4096	@ 0x1000
 800584e:	6193      	str	r3, [r2, #24]
  ETH->DMAOMR |= ETH_DMAOMR_SR;
 8005850:	4b06      	ldr	r3, [pc, #24]	@ (800586c <ETH_Start+0x60>)
 8005852:	f503 5380 	add.w	r3, r3, #4096	@ 0x1000
 8005856:	699b      	ldr	r3, [r3, #24]
 8005858:	4a04      	ldr	r2, [pc, #16]	@ (800586c <ETH_Start+0x60>)
 800585a:	f043 0302 	orr.w	r3, r3, #2
 800585e:	f502 5280 	add.w	r2, r2, #4096	@ 0x1000
 8005862:	6193      	str	r3, [r2, #24]
}
 8005864:	bf00      	nop
 8005866:	46bd      	mov	sp, r7
 8005868:	bc80      	pop	{r7}
 800586a:	4770      	bx	lr
 800586c:	40028000 	.word	0x40028000

08005870 <ethernetMACConfig>:

// **************************************************************
// Configures the ethernet layer.
// **************************************************************
int ethernetMACConfig()
{
 8005870:	b580      	push	{r7, lr}
 8005872:	af00      	add	r7, sp, #0
  ethernetConfigMAC();
 8005874:	f000 f820 	bl	80058b8 <ethernetConfigMAC>
  ethernetConfig();
 8005878:	f7ff ffb4 	bl	80057e4 <ethernetConfig>
  
  /* Initialize Tx Descriptors list: Chain Mode */
  initializeTransmitBuffers();
 800587c:	f000 ffa6 	bl	80067cc <initializeTransmitBuffers>
  initializeReceiveBuffers();
 8005880:	f000 ffc8 	bl	8006814 <initializeReceiveBuffers>

  /* Enable MAC and DMA transmission and reception */
  ETH_Start();
 8005884:	f7ff ffc2 	bl	800580c <ETH_Start>
  ETH->DMASR = ETH_DMASR_TBUS;
 8005888:	4b04      	ldr	r3, [pc, #16]	@ (800589c <ethernetMACConfig+0x2c>)
 800588a:	f503 5380 	add.w	r3, r3, #4096	@ 0x1000
 800588e:	461a      	mov	r2, r3
 8005890:	2304      	movs	r3, #4
 8005892:	6153      	str	r3, [r2, #20]
  

  return 0; 
 8005894:	2300      	movs	r3, #0
}
 8005896:	4618      	mov	r0, r3
 8005898:	bd80      	pop	{r7, pc}
 800589a:	bf00      	nop
 800589c:	40028000 	.word	0x40028000

080058a0 <ETH_WKUP_IRQHandler>:

// **************************************************************
// **************************************************************
void ETH_WKUP_IRQHandler(void)
{
 80058a0:	b480      	push	{r7}
 80058a2:	af00      	add	r7, sp, #0
  EXTI->PR = EXTI_Line19;
 80058a4:	4b03      	ldr	r3, [pc, #12]	@ (80058b4 <ETH_WKUP_IRQHandler+0x14>)
 80058a6:	f44f 2200 	mov.w	r2, #524288	@ 0x80000
 80058aa:	615a      	str	r2, [r3, #20]
}
 80058ac:	bf00      	nop
 80058ae:	46bd      	mov	sp, r7
 80058b0:	bc80      	pop	{r7}
 80058b2:	4770      	bx	lr
 80058b4:	40010400 	.word	0x40010400

080058b8 <ethernetConfigMAC>:

// **************************************************************
// Configures the ethernet layer.
// **************************************************************
void ethernetConfigMAC()
{
 80058b8:	b580      	push	{r7, lr}
 80058ba:	b082      	sub	sp, #8
 80058bc:	af00      	add	r7, sp, #0
  const char* macAddr = getMacAddr();
 80058be:	f000 fe21 	bl	8006504 <getMacAddr>
 80058c2:	6078      	str	r0, [r7, #4]
  uint32_t tmpReg;

  /* Calculate the selectecd MAC address high register */	
  tmpReg = (((uint32_t)(unsigned char)macAddr[5]) << 8) |
 80058c4:	687b      	ldr	r3, [r7, #4]
 80058c6:	3305      	adds	r3, #5
 80058c8:	781b      	ldrb	r3, [r3, #0]
 80058ca:	021b      	lsls	r3, r3, #8
           ((uint32_t)(unsigned char)macAddr[4]);
 80058cc:	687a      	ldr	r2, [r7, #4]
 80058ce:	3204      	adds	r2, #4
 80058d0:	7812      	ldrb	r2, [r2, #0]
  tmpReg = (((uint32_t)(unsigned char)macAddr[5]) << 8) |
 80058d2:	4313      	orrs	r3, r2
 80058d4:	603b      	str	r3, [r7, #0]

  /* Load the selectecd MAC address high register */	
  *(__IO uint32_t *)ETH_MAC_AddrHighBase = tmpReg;
 80058d6:	4a0e      	ldr	r2, [pc, #56]	@ (8005910 <ethernetConfigMAC+0x58>)
 80058d8:	683b      	ldr	r3, [r7, #0]
 80058da:	6013      	str	r3, [r2, #0]

  /* Calculate the selectecd MAC address low register */	
  tmpReg = (((uint32_t)(unsigned char)macAddr[3]) << 24) |
 80058dc:	687b      	ldr	r3, [r7, #4]
 80058de:	3303      	adds	r3, #3
 80058e0:	781b      	ldrb	r3, [r3, #0]
 80058e2:	061a      	lsls	r2, r3, #24
           (((uint32_t)(unsigned char)macAddr[2]) << 16) |
 80058e4:	687b      	ldr	r3, [r7, #4]
 80058e6:	3302      	adds	r3, #2
 80058e8:	781b      	ldrb	r3, [r3, #0]
 80058ea:	041b      	lsls	r3, r3, #16
  tmpReg = (((uint32_t)(unsigned char)macAddr[3]) << 24) |
 80058ec:	431a      	orrs	r2, r3
           (((uint32_t)(unsigned char)macAddr[1]) << 8) |
 80058ee:	687b      	ldr	r3, [r7, #4]
 80058f0:	3301      	adds	r3, #1
 80058f2:	781b      	ldrb	r3, [r3, #0]
 80058f4:	021b      	lsls	r3, r3, #8
           (((uint32_t)(unsigned char)macAddr[2]) << 16) |
 80058f6:	4313      	orrs	r3, r2
           ((uint32_t)(unsigned char)macAddr[0]);
 80058f8:	687a      	ldr	r2, [r7, #4]
 80058fa:	7812      	ldrb	r2, [r2, #0]
  tmpReg = (((uint32_t)(unsigned char)macAddr[3]) << 24) |
 80058fc:	4313      	orrs	r3, r2
 80058fe:	603b      	str	r3, [r7, #0]

  /* Load the selectecd MAC address low register */
  *(__IO uint32_t *) ETH_MAC_AddrLowBase = tmpReg;
 8005900:	4a04      	ldr	r2, [pc, #16]	@ (8005914 <ethernetConfigMAC+0x5c>)
 8005902:	683b      	ldr	r3, [r7, #0]
 8005904:	6013      	str	r3, [r2, #0]
}
 8005906:	bf00      	nop
 8005908:	3708      	adds	r7, #8
 800590a:	46bd      	mov	sp, r7
 800590c:	bd80      	pop	{r7, pc}
 800590e:	bf00      	nop
 8005910:	40028040 	.word	0x40028040
 8005914:	40028044 	.word	0x40028044

08005918 <calcChecksum>:
// **************************************************************
// Calculate IP/TCP/UDP checksum
// **************************************************************
uint16_t calcChecksum(const char* base, unsigned int length,
                      uint32_t toAdd, uint32_t toSub)
{
 8005918:	b480      	push	{r7}
 800591a:	b08b      	sub	sp, #44	@ 0x2c
 800591c:	af00      	add	r7, sp, #0
 800591e:	60f8      	str	r0, [r7, #12]
 8005920:	60b9      	str	r1, [r7, #8]
 8005922:	607a      	str	r2, [r7, #4]
 8005924:	603b      	str	r3, [r7, #0]
  const uint16_t* base16 = (const uint16_t*)base;
 8005926:	68fb      	ldr	r3, [r7, #12]
 8005928:	61fb      	str	r3, [r7, #28]

  uint32_t result = toAdd;
 800592a:	687b      	ldr	r3, [r7, #4]
 800592c:	627b      	str	r3, [r7, #36]	@ 0x24

  if (length & 0x01) {
 800592e:	68bb      	ldr	r3, [r7, #8]
 8005930:	f003 0301 	and.w	r3, r3, #1
 8005934:	2b00      	cmp	r3, #0
 8005936:	d010      	beq.n	800595a <calcChecksum+0x42>
    uint16_t last = (unsigned char)(base[length-1]);
 8005938:	68bb      	ldr	r3, [r7, #8]
 800593a:	3b01      	subs	r3, #1
 800593c:	68fa      	ldr	r2, [r7, #12]
 800593e:	4413      	add	r3, r2
 8005940:	781b      	ldrb	r3, [r3, #0]
 8005942:	837b      	strh	r3, [r7, #26]
    result += ntohs(last);
 8005944:	8b7b      	ldrh	r3, [r7, #26]
 8005946:	021b      	lsls	r3, r3, #8
 8005948:	b29b      	uxth	r3, r3
 800594a:	8b7a      	ldrh	r2, [r7, #26]
 800594c:	0a12      	lsrs	r2, r2, #8
 800594e:	b292      	uxth	r2, r2
 8005950:	4313      	orrs	r3, r2
 8005952:	461a      	mov	r2, r3
 8005954:	6a7b      	ldr	r3, [r7, #36]	@ 0x24
 8005956:	4413      	add	r3, r2
 8005958:	627b      	str	r3, [r7, #36]	@ 0x24
  }
  length = length/2;
 800595a:	68bb      	ldr	r3, [r7, #8]
 800595c:	085b      	lsrs	r3, r3, #1
 800595e:	60bb      	str	r3, [r7, #8]

  int i;
  for (i=0; i<(length); i++) {
 8005960:	2300      	movs	r3, #0
 8005962:	623b      	str	r3, [r7, #32]
 8005964:	e016      	b.n	8005994 <calcChecksum+0x7c>
    uint32_t thisVal = ntohs(base16[i]);
 8005966:	6a3b      	ldr	r3, [r7, #32]
 8005968:	005b      	lsls	r3, r3, #1
 800596a:	69fa      	ldr	r2, [r7, #28]
 800596c:	4413      	add	r3, r2
 800596e:	881b      	ldrh	r3, [r3, #0]
 8005970:	021b      	lsls	r3, r3, #8
 8005972:	b29b      	uxth	r3, r3
 8005974:	6a3a      	ldr	r2, [r7, #32]
 8005976:	0052      	lsls	r2, r2, #1
 8005978:	69f9      	ldr	r1, [r7, #28]
 800597a:	440a      	add	r2, r1
 800597c:	8812      	ldrh	r2, [r2, #0]
 800597e:	0a12      	lsrs	r2, r2, #8
 8005980:	b292      	uxth	r2, r2
 8005982:	4313      	orrs	r3, r2
 8005984:	617b      	str	r3, [r7, #20]
    result += thisVal;
 8005986:	6a7a      	ldr	r2, [r7, #36]	@ 0x24
 8005988:	697b      	ldr	r3, [r7, #20]
 800598a:	4413      	add	r3, r2
 800598c:	627b      	str	r3, [r7, #36]	@ 0x24
  for (i=0; i<(length); i++) {
 800598e:	6a3b      	ldr	r3, [r7, #32]
 8005990:	3301      	adds	r3, #1
 8005992:	623b      	str	r3, [r7, #32]
 8005994:	6a3b      	ldr	r3, [r7, #32]
 8005996:	68ba      	ldr	r2, [r7, #8]
 8005998:	429a      	cmp	r2, r3
 800599a:	d8e4      	bhi.n	8005966 <calcChecksum+0x4e>
  }
  result -= toSub;
 800599c:	6a7a      	ldr	r2, [r7, #36]	@ 0x24
 800599e:	683b      	ldr	r3, [r7, #0]
 80059a0:	1ad3      	subs	r3, r2, r3
 80059a2:	627b      	str	r3, [r7, #36]	@ 0x24

  // add up the carriers
  while (result>>16) {
 80059a4:	e005      	b.n	80059b2 <calcChecksum+0x9a>
    result = (result & 0xFFFF)+(result >> 16);
 80059a6:	6a7b      	ldr	r3, [r7, #36]	@ 0x24
 80059a8:	b29a      	uxth	r2, r3
 80059aa:	6a7b      	ldr	r3, [r7, #36]	@ 0x24
 80059ac:	0c1b      	lsrs	r3, r3, #16
 80059ae:	4413      	add	r3, r2
 80059b0:	627b      	str	r3, [r7, #36]	@ 0x24
  while (result>>16) {
 80059b2:	6a7b      	ldr	r3, [r7, #36]	@ 0x24
 80059b4:	0c1b      	lsrs	r3, r3, #16
 80059b6:	2b00      	cmp	r3, #0
 80059b8:	d1f5      	bne.n	80059a6 <calcChecksum+0x8e>
  }

  uint16_t retVal = htons(result);
 80059ba:	6a7b      	ldr	r3, [r7, #36]	@ 0x24
 80059bc:	b29b      	uxth	r3, r3
 80059be:	021b      	lsls	r3, r3, #8
 80059c0:	b29a      	uxth	r2, r3
 80059c2:	6a7b      	ldr	r3, [r7, #36]	@ 0x24
 80059c4:	0a1b      	lsrs	r3, r3, #8
 80059c6:	b29b      	uxth	r3, r3
 80059c8:	b2db      	uxtb	r3, r3
 80059ca:	b29b      	uxth	r3, r3
 80059cc:	4313      	orrs	r3, r2
 80059ce:	833b      	strh	r3, [r7, #24]
  // verify that checksum is never '0'
  if (retVal == 0x0000) {
 80059d0:	8b3b      	ldrh	r3, [r7, #24]
 80059d2:	2b00      	cmp	r3, #0
 80059d4:	d101      	bne.n	80059da <calcChecksum+0xc2>
    // This is '+0' in 1s complement. Never returns '-0' according to RFC1624.
    return 0x0000;
 80059d6:	2300      	movs	r3, #0
 80059d8:	e002      	b.n	80059e0 <calcChecksum+0xc8>
  }
  return ~retVal;
 80059da:	8b3b      	ldrh	r3, [r7, #24]
 80059dc:	43db      	mvns	r3, r3
 80059de:	b29b      	uxth	r3, r3
}
 80059e0:	4618      	mov	r0, r3
 80059e2:	372c      	adds	r7, #44	@ 0x2c
 80059e4:	46bd      	mov	sp, r7
 80059e6:	bc80      	pop	{r7}
 80059e8:	4770      	bx	lr

080059ea <_ZL10shortDelayv>:

// **************************************************************
// A short waiting loop - about 3 micro seconds
// **************************************************************
static void shortDelay()
{
 80059ea:	b082      	sub	sp, #8
  __IO uint32_t i = 0;
 80059ec:	2300      	movs	r3, #0
 80059ee:	9301      	str	r3, [sp, #4]
  for(i = 0xFF; i != 0; i--)
 80059f0:	23ff      	movs	r3, #255	@ 0xff
 80059f2:	9301      	str	r3, [sp, #4]
 80059f4:	9b01      	ldr	r3, [sp, #4]
 80059f6:	b12b      	cbz	r3, 8005a04 <_ZL10shortDelayv+0x1a>
 80059f8:	9b01      	ldr	r3, [sp, #4]
 80059fa:	3b01      	subs	r3, #1
 80059fc:	9301      	str	r3, [sp, #4]
 80059fe:	9b01      	ldr	r3, [sp, #4]
 8005a00:	2b00      	cmp	r3, #0
 8005a02:	d1f9      	bne.n	80059f8 <_ZL10shortDelayv+0xe>
  {
  }
}
 8005a04:	b002      	add	sp, #8
 8005a06:	4770      	bx	lr

08005a08 <_ZN7InFrameC1EPKcj>:
// **********************************************************************

// **************************************************************
// Constructor
// **************************************************************
InFrame::InFrame(const char* messageBase, unsigned int frameLen) :
 8005a08:	b570      	push	{r4, r5, r6, lr}
 8005a0a:	4604      	mov	r4, r0
 8005a0c:	460d      	mov	r5, r1
 8005a0e:	4616      	mov	r6, r2
  mBase(messageBase),
 8005a10:	6001      	str	r1, [r0, #0]
  mLen(frameLen),
 8005a12:	6042      	str	r2, [r0, #4]
  mOffset(14),
 8005a14:	230e      	movs	r3, #14
 8005a16:	6083      	str	r3, [r0, #8]
  mSrcMAC(messageBase+6),
 8005a18:	3106      	adds	r1, #6
 8005a1a:	3010      	adds	r0, #16
 8005a1c:	f000 fd4e 	bl	80064bc <_ZN7MACAddrC1EPKc>
  mFrameType(FRAME_INVALID_TYPE)
 8005a20:	2300      	movs	r3, #0
 8005a22:	7623      	strb	r3, [r4, #24]
{
  if ((messageBase != NULL) && (frameLen >= 14)) {
 8005a24:	b14d      	cbz	r5, 8005a3a <_ZN7InFrameC1EPKcj+0x32>
 8005a26:	2e0d      	cmp	r6, #13
 8005a28:	d907      	bls.n	8005a3a <_ZN7InFrameC1EPKcj+0x32>
    uint16_t typeField = *(uint16_t*)(messageBase+12);
 8005a2a:	89ab      	ldrh	r3, [r5, #12]
    if (typeField == 0x0608) {
 8005a2c:	f5b3 6fc1 	cmp.w	r3, #1544	@ 0x608
 8005a30:	d005      	beq.n	8005a3e <_ZN7InFrameC1EPKcj+0x36>
      mFrameType = FRAME_ARP_TYPE;
    }
    else if (typeField == 0x0008) {
 8005a32:	2b08      	cmp	r3, #8
      mFrameType = FRAME_IP_TYPE;
 8005a34:	bf04      	itt	eq
 8005a36:	2301      	moveq	r3, #1
 8005a38:	7623      	strbeq	r3, [r4, #24]
    }
  }
}
 8005a3a:	4620      	mov	r0, r4
 8005a3c:	bd70      	pop	{r4, r5, r6, pc}
      mFrameType = FRAME_ARP_TYPE;
 8005a3e:	2302      	movs	r3, #2
 8005a40:	7623      	strb	r3, [r4, #24]
 8005a42:	e7fa      	b.n	8005a3a <_ZN7InFrameC1EPKcj+0x32>

08005a44 <processEthernetMsg>:
{
 8005a44:	b530      	push	{r4, r5, lr}
 8005a46:	b089      	sub	sp, #36	@ 0x24
 8005a48:	4604      	mov	r4, r0
 8005a4a:	460d      	mov	r5, r1

class TimeAcc
{
public:
  TimeAcc() : mAccumulatedTime(0), mAccumulatedCalls(0) {}
  void start() {mBase = getTimerTicks(); mAccumulatedCalls++;}
 8005a4c:	f004 fc40 	bl	800a2d0 <getTimerTicks>
 8005a50:	4b10      	ldr	r3, [pc, #64]	@ (8005a94 <processEthernetMsg+0x50>)
 8005a52:	6058      	str	r0, [r3, #4]
 8005a54:	689a      	ldr	r2, [r3, #8]
 8005a56:	3201      	adds	r2, #1
 8005a58:	609a      	str	r2, [r3, #8]
  InFrame inFrame(messageBase, frameLen);
 8005a5a:	462a      	mov	r2, r5
 8005a5c:	4621      	mov	r1, r4
 8005a5e:	4668      	mov	r0, sp
 8005a60:	f7ff ffd2 	bl	8005a08 <_ZN7InFrameC1EPKcj>
  switch(inFrame.getType()) {
 8005a64:	f89d 3018 	ldrb.w	r3, [sp, #24]
 8005a68:	3b01      	subs	r3, #1
 8005a6a:	2b01      	cmp	r3, #1
 8005a6c:	d80e      	bhi.n	8005a8c <processEthernetMsg+0x48>
    return SystemManagement::handleLeyer2Frame(inFrame);
 8005a6e:	4668      	mov	r0, sp
 8005a70:	f002 fd8c 	bl	800858c <_ZN16SystemManagement17handleLeyer2FrameER7InFrame>
 8005a74:	4604      	mov	r4, r0
  void stop() {mAccumulatedTime += (getTimerTicks()-mBase);}
 8005a76:	f004 fc2b 	bl	800a2d0 <getTimerTicks>
 8005a7a:	4a06      	ldr	r2, [pc, #24]	@ (8005a94 <processEthernetMsg+0x50>)
 8005a7c:	6813      	ldr	r3, [r2, #0]
 8005a7e:	6851      	ldr	r1, [r2, #4]
 8005a80:	1a5b      	subs	r3, r3, r1
 8005a82:	4403      	add	r3, r0
 8005a84:	6013      	str	r3, [r2, #0]
}
 8005a86:	4620      	mov	r0, r4
 8005a88:	b009      	add	sp, #36	@ 0x24
 8005a8a:	bd30      	pop	{r4, r5, pc}
  return -1;
 8005a8c:	f04f 34ff 	mov.w	r4, #4294967295
 8005a90:	e7f1      	b.n	8005a76 <processEthernetMsg+0x32>
 8005a92:	bf00      	nop
 8005a94:	20005bf8 	.word	0x20005bf8

08005a98 <_ZNK7InFrame11isBroadcastEv>:
// **************************************************************
// Checks whether the target MAC is a broadcast - all 0xFF
// **************************************************************
bool InFrame::isBroadcast() const
{
  if ((*(uint32_t *)(mBase) == 0xFFFFFFFF) &&
 8005a98:	6803      	ldr	r3, [r0, #0]
 8005a9a:	681a      	ldr	r2, [r3, #0]
 8005a9c:	f1b2 3fff 	cmp.w	r2, #4294967295
 8005aa0:	d001      	beq.n	8005aa6 <_ZNK7InFrame11isBroadcastEv+0xe>
      (*(uint16_t *)(mBase) == 0xFFFF)) {
    return true;
  }
  return false;
 8005aa2:	2000      	movs	r0, #0
}
 8005aa4:	4770      	bx	lr
  if ((*(uint32_t *)(mBase) == 0xFFFFFFFF) &&
 8005aa6:	8818      	ldrh	r0, [r3, #0]
 8005aa8:	f64f 73ff 	movw	r3, #65535	@ 0xffff
 8005aac:	4298      	cmp	r0, r3
 8005aae:	bf14      	ite	ne
 8005ab0:	2000      	movne	r0, #0
 8005ab2:	2001      	moveq	r0, #1
 8005ab4:	4770      	bx	lr

08005ab6 <_ZN7InFrame15readNextHostU16Ev>:
  
// **************************************************************
// Reader
// **************************************************************
uint16_t InFrame::readNextHostU16()
{
 8005ab6:	4603      	mov	r3, r0
  if (mOffset + 2 > mLen) {
 8005ab8:	6881      	ldr	r1, [r0, #8]
 8005aba:	1c8a      	adds	r2, r1, #2
 8005abc:	6840      	ldr	r0, [r0, #4]
 8005abe:	4282      	cmp	r2, r0
    mOffset = mLen;
    return 0xFFFF;
  }

  uint16_t retVal = *(uint16_t *)(mBase+mOffset);
 8005ac0:	bf99      	ittee	ls
 8005ac2:	6818      	ldrls	r0, [r3, #0]
 8005ac4:	5a40      	ldrhls	r0, [r0, r1]
    mOffset = mLen;
 8005ac6:	4602      	movhi	r2, r0
    return 0xFFFF;
 8005ac8:	f64f 70ff 	movwhi	r0, #65535	@ 0xffff
 8005acc:	609a      	str	r2, [r3, #8]
  mOffset += 2;
  return retVal;
}
 8005ace:	4770      	bx	lr

08005ad0 <_ZN7InFrame18readNextNetworkU16Ev>:
{
 8005ad0:	b508      	push	{r3, lr}
  uint16_t value = readNextHostU16();
 8005ad2:	f7ff fff0 	bl	8005ab6 <_ZN7InFrame15readNextHostU16Ev>
  return ntohs(value);
 8005ad6:	0203      	lsls	r3, r0, #8
 8005ad8:	ea43 2010 	orr.w	r0, r3, r0, lsr #8
}
 8005adc:	b280      	uxth	r0, r0
 8005ade:	bd08      	pop	{r3, pc}

08005ae0 <_ZN7InFrame15readNextHostU32Ev>:

// **************************************************************
// Reader
// **************************************************************  
uint32_t InFrame::readNextHostU32()
{
 8005ae0:	4603      	mov	r3, r0
  if (mOffset + 4 > mLen) {
 8005ae2:	6881      	ldr	r1, [r0, #8]
 8005ae4:	1d0a      	adds	r2, r1, #4
 8005ae6:	6840      	ldr	r0, [r0, #4]
 8005ae8:	4282      	cmp	r2, r0
    mOffset = mLen;
    return 0xFFFFFFFF;
  }

  uint32_t retVal = *(uint32_t *)(mBase + mOffset);
 8005aea:	bf99      	ittee	ls
 8005aec:	6818      	ldrls	r0, [r3, #0]
 8005aee:	5840      	ldrls	r0, [r0, r1]
    mOffset = mLen;
 8005af0:	4602      	movhi	r2, r0
    return 0xFFFFFFFF;
 8005af2:	f04f 30ff 	movhi.w	r0, #4294967295
 8005af6:	609a      	str	r2, [r3, #8]
  mOffset += 4;
  return retVal;
}
 8005af8:	4770      	bx	lr

08005afa <_ZN7InFrame11readNextMACEv>:

// **************************************************************
// Reader
// **************************************************************  
const char* InFrame::readNextMAC()
{
 8005afa:	4603      	mov	r3, r0
  if (mOffset + 6 > mLen) {
 8005afc:	6881      	ldr	r1, [r0, #8]
 8005afe:	1d8a      	adds	r2, r1, #6
 8005b00:	6840      	ldr	r0, [r0, #4]
 8005b02:	4282      	cmp	r2, r0
    mOffset = mLen;
    return NULL;
  }

  const char* retVal = mBase + mOffset;
 8005b04:	bf99      	ittee	ls
 8005b06:	6818      	ldrls	r0, [r3, #0]
 8005b08:	1840      	addls	r0, r0, r1
    mOffset = mLen;
 8005b0a:	4602      	movhi	r2, r0
    return NULL;
 8005b0c:	2000      	movhi	r0, #0
 8005b0e:	609a      	str	r2, [r3, #8]
  mOffset += 6;
  return retVal;
}
 8005b10:	4770      	bx	lr
	...

08005b14 <_ZN8OutFrame17getAndIncFrameCtrEv>:
// **************************************************************
// static accessor
// **************************************************************
uint32_t OutFrame::getAndIncFrameCtr()
{
  uint32_t retVal = mOutFrameCounter+1;
 8005b14:	4b04      	ldr	r3, [pc, #16]	@ (8005b28 <_ZN8OutFrame17getAndIncFrameCtrEv+0x14>)
 8005b16:	681b      	ldr	r3, [r3, #0]
 8005b18:	1c58      	adds	r0, r3, #1
  if (retVal == 0xFFFFFFFF) {
    retVal = 1;
 8005b1a:	f113 0f02 	cmn.w	r3, #2
 8005b1e:	bf08      	it	eq
 8005b20:	2001      	moveq	r0, #1
  }
  mOutFrameCounter = retVal;
 8005b22:	4b01      	ldr	r3, [pc, #4]	@ (8005b28 <_ZN8OutFrame17getAndIncFrameCtrEv+0x14>)
 8005b24:	6018      	str	r0, [r3, #0]
  return retVal;
}
 8005b26:	4770      	bx	lr
 8005b28:	20000010 	.word	0x20000010

08005b2c <_ZN8OutFrame12writeHostU16Et>:
// Writer
// **************************************************************
int OutFrame::writeHostU16(uint16_t val)
{
  // verify valid frame
  if (isBad()) {
 8005b2c:	6883      	ldr	r3, [r0, #8]
 8005b2e:	b183      	cbz	r3, 8005b52 <_ZN8OutFrame12writeHostU16Et+0x26>
    {return (ETHERNET_MAX_MESSAGE_SIZE -  mOffset);}
 8005b30:	6843      	ldr	r3, [r0, #4]
 8005b32:	f5c3 62be 	rsb	r2, r3, #1520	@ 0x5f0
    return -2;
  }

  // verify enough space left
  if (getFreeSpace() < 2) {
 8005b36:	2a01      	cmp	r2, #1
 8005b38:	d906      	bls.n	8005b48 <_ZN8OutFrame12writeHostU16Et+0x1c>
    mThisFrame = 0;              // invalidate frame
    return -1;
  }

  *(uint16_t*)(mBase + mOffset) = val;
 8005b3a:	6802      	ldr	r2, [r0, #0]
 8005b3c:	52d1      	strh	r1, [r2, r3]
  mOffset += 2;
 8005b3e:	6843      	ldr	r3, [r0, #4]
 8005b40:	3302      	adds	r3, #2
 8005b42:	6043      	str	r3, [r0, #4]

  return 0;
 8005b44:	2000      	movs	r0, #0
 8005b46:	4770      	bx	lr
    mThisFrame = 0;              // invalidate frame
 8005b48:	2300      	movs	r3, #0
 8005b4a:	6083      	str	r3, [r0, #8]
    return -1;
 8005b4c:	f04f 30ff 	mov.w	r0, #4294967295
 8005b50:	4770      	bx	lr
    return -2;
 8005b52:	f06f 0001 	mvn.w	r0, #1
}
 8005b56:	4770      	bx	lr

08005b58 <_ZN8OutFrame15writeNetworkU16Et>:
{
 8005b58:	b508      	push	{r3, lr}
  return writeHostU16(htons(val));
 8005b5a:	020b      	lsls	r3, r1, #8
 8005b5c:	ea43 2111 	orr.w	r1, r3, r1, lsr #8
 8005b60:	b289      	uxth	r1, r1
 8005b62:	f7ff ffe3 	bl	8005b2c <_ZN8OutFrame12writeHostU16Et>
}
 8005b66:	bd08      	pop	{r3, pc}

08005b68 <_ZN8OutFrame12writeHostU32Em>:
// Writer
// **************************************************************
int OutFrame::writeHostU32(uint32_t val)
{
  // verify valid frame
  if (isBad()) {
 8005b68:	6883      	ldr	r3, [r0, #8]
 8005b6a:	b183      	cbz	r3, 8005b8e <_ZN8OutFrame12writeHostU32Em+0x26>
 8005b6c:	6843      	ldr	r3, [r0, #4]
 8005b6e:	f5c3 62be 	rsb	r2, r3, #1520	@ 0x5f0
    return -2;
  }

  // verify enough space left
  if (getFreeSpace() < 4) {
 8005b72:	2a03      	cmp	r2, #3
 8005b74:	d906      	bls.n	8005b84 <_ZN8OutFrame12writeHostU32Em+0x1c>
    mThisFrame = 0;              // invalidate frame
    return -1;
  }

  *(uint32_t*)(mBase + mOffset) = val;
 8005b76:	6802      	ldr	r2, [r0, #0]
 8005b78:	50d1      	str	r1, [r2, r3]
  mOffset += 4;
 8005b7a:	6843      	ldr	r3, [r0, #4]
 8005b7c:	3304      	adds	r3, #4
 8005b7e:	6043      	str	r3, [r0, #4]

  return 0;
 8005b80:	2000      	movs	r0, #0
 8005b82:	4770      	bx	lr
    mThisFrame = 0;              // invalidate frame
 8005b84:	2300      	movs	r3, #0
 8005b86:	6083      	str	r3, [r0, #8]
    return -1;
 8005b88:	f04f 30ff 	mov.w	r0, #4294967295
 8005b8c:	4770      	bx	lr
    return -2;
 8005b8e:	f06f 0001 	mvn.w	r0, #1
}
 8005b92:	4770      	bx	lr

08005b94 <_ZN8OutFrame8writeMACERK7MACAddr>:
// Writer
// **************************************************************
int OutFrame::writeMAC(const MACAddr& mac)
{
  // verify valid frame
  if (isBad()) {
 8005b94:	6883      	ldr	r3, [r0, #8]
 8005b96:	b32b      	cbz	r3, 8005be4 <_ZN8OutFrame8writeMACERK7MACAddr+0x50>
 8005b98:	6843      	ldr	r3, [r0, #4]
 8005b9a:	f5c3 62be 	rsb	r2, r3, #1520	@ 0x5f0
    return -2;
  }

  // verify enough space left
  if (getFreeSpace() < 6) {
 8005b9e:	2a05      	cmp	r2, #5
 8005ba0:	d912      	bls.n	8005bc8 <_ZN8OutFrame8writeMACERK7MACAddr+0x34>
{
 8005ba2:	b500      	push	{lr}
    mThisFrame = 0;              // invalidate frame
    return -1;
  }

  if (mac.isValid()) {
 8005ba4:	79ca      	ldrb	r2, [r1, #7]
 8005ba6:	b1a2      	cbz	r2, 8005bd2 <_ZN8OutFrame8writeMACERK7MACAddr+0x3e>
    memcpy (mBase + mOffset, mac.getAddr(), 6);
 8005ba8:	6802      	ldr	r2, [r0, #0]
 8005baa:	eb02 0c03 	add.w	ip, r2, r3
 8005bae:	f8d1 e000 	ldr.w	lr, [r1]
 8005bb2:	f842 e003 	str.w	lr, [r2, r3]
 8005bb6:	888b      	ldrh	r3, [r1, #4]
 8005bb8:	f8ac 3004 	strh.w	r3, [ip, #4]
  }
  else {
    // invalid MAC turns into a broadcast braodcast
    memset(mBase + mOffset, 0xFF, 6);
  }
  mOffset += 6;
 8005bbc:	6843      	ldr	r3, [r0, #4]
 8005bbe:	3306      	adds	r3, #6
 8005bc0:	6043      	str	r3, [r0, #4]

  return 0;
 8005bc2:	2000      	movs	r0, #0
}
 8005bc4:	f85d fb04 	ldr.w	pc, [sp], #4
    mThisFrame = 0;              // invalidate frame
 8005bc8:	2300      	movs	r3, #0
 8005bca:	6083      	str	r3, [r0, #8]
    return -1;
 8005bcc:	f04f 30ff 	mov.w	r0, #4294967295
 8005bd0:	4770      	bx	lr
    memset(mBase + mOffset, 0xFF, 6);
 8005bd2:	6801      	ldr	r1, [r0, #0]
 8005bd4:	eb01 0c03 	add.w	ip, r1, r3
 8005bd8:	f04f 32ff 	mov.w	r2, #4294967295
 8005bdc:	50ca      	str	r2, [r1, r3]
 8005bde:	f8ac 2004 	strh.w	r2, [ip, #4]
 8005be2:	e7eb      	b.n	8005bbc <_ZN8OutFrame8writeMACERK7MACAddr+0x28>
    return -2;
 8005be4:	f06f 0001 	mvn.w	r0, #1
}
 8005be8:	4770      	bx	lr
	...

08005bec <_ZN8OutFrameC1E9FrameTypeRK7MACAddr>:
OutFrame::OutFrame(FrameType mFrameType, const MACAddr& target) :
 8005bec:	b570      	push	{r4, r5, r6, lr}
 8005bee:	4604      	mov	r4, r0
 8005bf0:	460d      	mov	r5, r1
 8005bf2:	4616      	mov	r6, r2
  mBase(NULL),
 8005bf4:	2300      	movs	r3, #0
 8005bf6:	6003      	str	r3, [r0, #0]
  mOffset(0),
 8005bf8:	6043      	str	r3, [r0, #4]
  mThisFrame(0)
 8005bfa:	6083      	str	r3, [r0, #8]
  mBase = getFreeOutPacket();
 8005bfc:	f000 fe2e 	bl	800685c <getFreeOutPacket>
 8005c00:	6020      	str	r0, [r4, #0]
  if (mBase == NULL) {
 8005c02:	b1d8      	cbz	r0, 8005c3c <_ZN8OutFrameC1E9FrameTypeRK7MACAddr+0x50>
  switch (mFrameType) {
 8005c04:	2d01      	cmp	r5, #1
 8005c06:	d021      	beq.n	8005c4c <_ZN8OutFrameC1E9FrameTypeRK7MACAddr+0x60>
 8005c08:	2d02      	cmp	r5, #2
 8005c0a:	d115      	bne.n	8005c38 <_ZN8OutFrameC1E9FrameTypeRK7MACAddr+0x4c>
    typeField = 0x0608;
 8005c0c:	f44f 65c1 	mov.w	r5, #1544	@ 0x608
  mThisFrame = getAndIncFrameCtr();
 8005c10:	f7ff ff80 	bl	8005b14 <_ZN8OutFrame17getAndIncFrameCtrEv>
 8005c14:	60a0      	str	r0, [r4, #8]
  writeMAC(target);
 8005c16:	4631      	mov	r1, r6
 8005c18:	4620      	mov	r0, r4
 8005c1a:	f7ff ffbb 	bl	8005b94 <_ZN8OutFrame8writeMACERK7MACAddr>
      {return mGlobalManagement.mPersistentDataCenter;}
 8005c1e:	4b0c      	ldr	r3, [pc, #48]	@ (8005c50 <_ZN8OutFrameC1E9FrameTypeRK7MACAddr+0x64>)
 8005c20:	69d8      	ldr	r0, [r3, #28]
  writeMAC(SystemManagement::getPersistentDataCenter().getMacAddr());
 8005c22:	6803      	ldr	r3, [r0, #0]
 8005c24:	689b      	ldr	r3, [r3, #8]
 8005c26:	4798      	blx	r3
 8005c28:	4601      	mov	r1, r0
 8005c2a:	4620      	mov	r0, r4
 8005c2c:	f7ff ffb2 	bl	8005b94 <_ZN8OutFrame8writeMACERK7MACAddr>
  writeHostU16(typeField);
 8005c30:	4629      	mov	r1, r5
 8005c32:	4620      	mov	r0, r4
 8005c34:	f7ff ff7a 	bl	8005b2c <_ZN8OutFrame12writeHostU16Et>
}
 8005c38:	4620      	mov	r0, r4
 8005c3a:	bd70      	pop	{r4, r5, r6, pc}
    shortDelay();
 8005c3c:	f7ff fed5 	bl	80059ea <_ZL10shortDelayv>
    mBase = getFreeOutPacket();
 8005c40:	f000 fe0c 	bl	800685c <getFreeOutPacket>
 8005c44:	6020      	str	r0, [r4, #0]
    if (mBase == NULL) {
 8005c46:	2800      	cmp	r0, #0
 8005c48:	d1dc      	bne.n	8005c04 <_ZN8OutFrameC1E9FrameTypeRK7MACAddr+0x18>
 8005c4a:	e7f5      	b.n	8005c38 <_ZN8OutFrameC1E9FrameTypeRK7MACAddr+0x4c>
  switch (mFrameType) {
 8005c4c:	2508      	movs	r5, #8
 8005c4e:	e7df      	b.n	8005c10 <_ZN8OutFrameC1E9FrameTypeRK7MACAddr+0x24>
 8005c50:	2000abe0 	.word	0x2000abe0

08005c54 <_ZN8OutFrameC1EmR19CommunicationCenter>:
OutFrame::OutFrame(uint32_t targetIP, CommunicationCenter& communicationCenter) :
 8005c54:	b538      	push	{r3, r4, r5, lr}
 8005c56:	4604      	mov	r4, r0
  mBase(NULL),
 8005c58:	2300      	movs	r3, #0
 8005c5a:	6003      	str	r3, [r0, #0]
  mOffset(0),
 8005c5c:	6043      	str	r3, [r0, #4]
  mThisFrame(0)
 8005c5e:	6083      	str	r3, [r0, #8]
  if (targetIP == 0) {
 8005c60:	b909      	cbnz	r1, 8005c66 <_ZN8OutFrameC1EmR19CommunicationCenter+0x12>
}
 8005c62:	4620      	mov	r0, r4
 8005c64:	bd38      	pop	{r3, r4, r5, pc}
  const MACAddr& targetMAC = communicationCenter.getMacAddr(targetIP);
 8005c66:	4610      	mov	r0, r2
 8005c68:	f7ff f85d 	bl	8004d26 <_ZN19CommunicationCenter10getMacAddrEm>
 8005c6c:	4605      	mov	r5, r0
  if (!targetMAC.isValid()) {
 8005c6e:	79c3      	ldrb	r3, [r0, #7]
 8005c70:	2b00      	cmp	r3, #0
 8005c72:	d0f6      	beq.n	8005c62 <_ZN8OutFrameC1EmR19CommunicationCenter+0xe>
  mBase = getFreeOutPacket();
 8005c74:	f000 fdf2 	bl	800685c <getFreeOutPacket>
 8005c78:	6020      	str	r0, [r4, #0]
  if (mBase == NULL) {
 8005c7a:	b1a0      	cbz	r0, 8005ca6 <_ZN8OutFrameC1EmR19CommunicationCenter+0x52>
  mThisFrame = getAndIncFrameCtr();
 8005c7c:	f7ff ff4a 	bl	8005b14 <_ZN8OutFrame17getAndIncFrameCtrEv>
 8005c80:	60a0      	str	r0, [r4, #8]
  writeMAC(targetMAC);
 8005c82:	4629      	mov	r1, r5
 8005c84:	4620      	mov	r0, r4
 8005c86:	f7ff ff85 	bl	8005b94 <_ZN8OutFrame8writeMACERK7MACAddr>
 8005c8a:	4b0b      	ldr	r3, [pc, #44]	@ (8005cb8 <_ZN8OutFrameC1EmR19CommunicationCenter+0x64>)
 8005c8c:	69d8      	ldr	r0, [r3, #28]
  writeMAC(SystemManagement::getPersistentDataCenter().getMacAddr());
 8005c8e:	6803      	ldr	r3, [r0, #0]
 8005c90:	689b      	ldr	r3, [r3, #8]
 8005c92:	4798      	blx	r3
 8005c94:	4601      	mov	r1, r0
 8005c96:	4620      	mov	r0, r4
 8005c98:	f7ff ff7c 	bl	8005b94 <_ZN8OutFrame8writeMACERK7MACAddr>
  writeHostU16(0x0008);
 8005c9c:	2108      	movs	r1, #8
 8005c9e:	4620      	mov	r0, r4
 8005ca0:	f7ff ff44 	bl	8005b2c <_ZN8OutFrame12writeHostU16Et>
 8005ca4:	e7dd      	b.n	8005c62 <_ZN8OutFrameC1EmR19CommunicationCenter+0xe>
    shortDelay();
 8005ca6:	f7ff fea0 	bl	80059ea <_ZL10shortDelayv>
    mBase = getFreeOutPacket();
 8005caa:	f000 fdd7 	bl	800685c <getFreeOutPacket>
 8005cae:	6020      	str	r0, [r4, #0]
    if (mBase == NULL) {
 8005cb0:	2800      	cmp	r0, #0
 8005cb2:	d1e3      	bne.n	8005c7c <_ZN8OutFrameC1EmR19CommunicationCenter+0x28>
 8005cb4:	e7d5      	b.n	8005c62 <_ZN8OutFrameC1EmR19CommunicationCenter+0xe>
 8005cb6:	bf00      	nop
 8005cb8:	2000abe0 	.word	0x2000abe0

08005cbc <_ZN8OutFrame10appendDataEPKcj>:

// **************************************************************
// Writer
// **************************************************************
int OutFrame::appendData(const char* blockBase, unsigned int blockSize)
{
 8005cbc:	b538      	push	{r3, r4, r5, lr}
  // verify valid frame
  if (isBad()) {
 8005cbe:	6883      	ldr	r3, [r0, #8]
 8005cc0:	b1ab      	cbz	r3, 8005cee <_ZN8OutFrame10appendDataEPKcj+0x32>
 8005cc2:	4605      	mov	r5, r0
 8005cc4:	4614      	mov	r4, r2
 8005cc6:	6843      	ldr	r3, [r0, #4]
 8005cc8:	f5c3 62be 	rsb	r2, r3, #1520	@ 0x5f0
    return -2;
  }

  // verify enough space left
  if (getFreeSpace() < blockSize) {
 8005ccc:	4294      	cmp	r4, r2
 8005cce:	d809      	bhi.n	8005ce4 <_ZN8OutFrame10appendDataEPKcj+0x28>
    mThisFrame = 0;              // invalidate frame
    return -1;
  }

  memcpy (mBase +  mOffset, blockBase, blockSize);
 8005cd0:	6800      	ldr	r0, [r0, #0]
 8005cd2:	4622      	mov	r2, r4
 8005cd4:	4418      	add	r0, r3
 8005cd6:	f006 fa93 	bl	800c200 <memcpy>
  mOffset += blockSize;
 8005cda:	686b      	ldr	r3, [r5, #4]
 8005cdc:	4423      	add	r3, r4
 8005cde:	606b      	str	r3, [r5, #4]

  return blockSize;
 8005ce0:	4620      	mov	r0, r4
}
 8005ce2:	bd38      	pop	{r3, r4, r5, pc}
    mThisFrame = 0;              // invalidate frame
 8005ce4:	2300      	movs	r3, #0
 8005ce6:	6083      	str	r3, [r0, #8]
    return -1;
 8005ce8:	f04f 30ff 	mov.w	r0, #4294967295
 8005cec:	e7f9      	b.n	8005ce2 <_ZN8OutFrame10appendDataEPKcj+0x26>
    return -2;
 8005cee:	f06f 0001 	mvn.w	r0, #1
 8005cf2:	e7f6      	b.n	8005ce2 <_ZN8OutFrame10appendDataEPKcj+0x26>

08005cf4 <_ZN8OutFrame10appendDataERK6Bufferjj>:
// Returns the number of bytes written. '0' on error.
// **************************************************************
int OutFrame::appendData(const Buffer& src,
                         unsigned int bufferOffset,
                         unsigned int blockSize)
{
 8005cf4:	b538      	push	{r3, r4, r5, lr}
 8005cf6:	4604      	mov	r4, r0
 8005cf8:	461d      	mov	r5, r3
  // verify valid frame
  if (isBad()) {
 8005cfa:	6883      	ldr	r3, [r0, #8]
 8005cfc:	b1cb      	cbz	r3, 8005d32 <_ZN8OutFrame10appendDataERK6Bufferjj+0x3e>
 8005cfe:	4608      	mov	r0, r1
 8005d00:	6861      	ldr	r1, [r4, #4]
 8005d02:	f5c1 63be 	rsb	r3, r1, #1520	@ 0x5f0
    return 0;
  }

  // verify enough space left
  if (getFreeSpace() < blockSize) {
 8005d06:	429d      	cmp	r5, r3
 8005d08:	d902      	bls.n	8005d10 <_ZN8OutFrame10appendDataERK6Bufferjj+0x1c>
  void setBad() {mThisFrame = 0;}
 8005d0a:	2000      	movs	r0, #0
 8005d0c:	60a0      	str	r0, [r4, #8]
    setBad();
    return 0;
 8005d0e:	e011      	b.n	8005d34 <_ZN8OutFrame10appendDataERK6Bufferjj+0x40>
  }

  int readLen = src.readBlock(mBase +  mOffset, bufferOffset, blockSize);
 8005d10:	462b      	mov	r3, r5
 8005d12:	f8d4 c000 	ldr.w	ip, [r4]
 8005d16:	4461      	add	r1, ip
 8005d18:	f7ff f97b 	bl	8005012 <_ZNK6Buffer9readBlockEPcjj>
  if ((readLen < 0) || (readLen > (int)blockSize)) {
 8005d1c:	2800      	cmp	r0, #0
 8005d1e:	db05      	blt.n	8005d2c <_ZN8OutFrame10appendDataERK6Bufferjj+0x38>
 8005d20:	4285      	cmp	r5, r0
 8005d22:	db03      	blt.n	8005d2c <_ZN8OutFrame10appendDataERK6Bufferjj+0x38>
    setBad();
    return 0;
  }

  mOffset += readLen;
 8005d24:	6863      	ldr	r3, [r4, #4]
 8005d26:	4403      	add	r3, r0
 8005d28:	6063      	str	r3, [r4, #4]
  return readLen;
 8005d2a:	e003      	b.n	8005d34 <_ZN8OutFrame10appendDataERK6Bufferjj+0x40>
 8005d2c:	2000      	movs	r0, #0
 8005d2e:	60a0      	str	r0, [r4, #8]
    return 0;
 8005d30:	e000      	b.n	8005d34 <_ZN8OutFrame10appendDataERK6Bufferjj+0x40>
    return 0;
 8005d32:	2000      	movs	r0, #0
}
 8005d34:	bd38      	pop	{r3, r4, r5, pc}

08005d36 <_ZN8OutFrame10appendDataERK6Bufferj>:
{
 8005d36:	b508      	push	{r3, lr}
 8005d38:	4613      	mov	r3, r2
  return appendData(src, 0, blockSize);
 8005d3a:	2200      	movs	r2, #0
 8005d3c:	f7ff ffda 	bl	8005cf4 <_ZN8OutFrame10appendDataERK6Bufferjj>
}
 8005d40:	bd08      	pop	{r3, pc}
	...

08005d44 <_ZN8OutFrame7sendMsgEv>:
  bool isBad() const {return (mThisFrame == 0);}
 8005d44:	6883      	ldr	r3, [r0, #8]
// Writer
// **************************************************************
int OutFrame::sendMsg()
{
  // verify valid frame
  if (isBad()) {
 8005d46:	b1ab      	cbz	r3, 8005d74 <_ZN8OutFrame7sendMsgEv+0x30>
{
 8005d48:	b510      	push	{r4, lr}
 8005d4a:	4604      	mov	r4, r0
    return -2;
  }

  if (mThisFrame != mOutFrameCounter) {
 8005d4c:	4a0c      	ldr	r2, [pc, #48]	@ (8005d80 <_ZN8OutFrame7sendMsgEv+0x3c>)
 8005d4e:	6812      	ldr	r2, [r2, #0]
 8005d50:	429a      	cmp	r2, r3
 8005d52:	d10a      	bne.n	8005d6a <_ZN8OutFrame7sendMsgEv+0x26>
    return -3;
  }

#ifdef DEBUG
  // error injection. will loose 1 package of every 'INCOMING_PACKAGE_DROP'
  uint16_t randomNum = get16RandomNumber();
 8005d54:	f002 fc42 	bl	80085dc <get16RandomNumber>
    setBad();
    return mOffset;
  }
#endif // DEBUG

  bool bSendFailed = (sendCurOutPacket(mBase, mOffset) != 0);
 8005d58:	6861      	ldr	r1, [r4, #4]
 8005d5a:	6820      	ldr	r0, [r4, #0]
 8005d5c:	f000 fdc6 	bl	80068ec <sendCurOutPacket>
  void setBad() {mThisFrame = 0;}
 8005d60:	2300      	movs	r3, #0
 8005d62:	60a3      	str	r3, [r4, #8]
  // do not allow a resend.
  setBad();

  if (bSendFailed) {
 8005d64:	b948      	cbnz	r0, 8005d7a <_ZN8OutFrame7sendMsgEv+0x36>
    return -4;
  }

  return mOffset;
 8005d66:	6860      	ldr	r0, [r4, #4]
}
 8005d68:	bd10      	pop	{r4, pc}
    mThisFrame = 0;
 8005d6a:	2300      	movs	r3, #0
 8005d6c:	6083      	str	r3, [r0, #8]
    return -3;
 8005d6e:	f06f 0002 	mvn.w	r0, #2
 8005d72:	e7f9      	b.n	8005d68 <_ZN8OutFrame7sendMsgEv+0x24>
    return -2;
 8005d74:	f06f 0001 	mvn.w	r0, #1
}
 8005d78:	4770      	bx	lr
    return -4;
 8005d7a:	f06f 0003 	mvn.w	r0, #3
 8005d7e:	e7f3      	b.n	8005d68 <_ZN8OutFrame7sendMsgEv+0x24>
 8005d80:	20000010 	.word	0x20000010

08005d84 <_GLOBAL__sub_I_processEthernetMsg>:
  TimeAcc() : mAccumulatedTime(0), mAccumulatedCalls(0) {}
 8005d84:	4b02      	ldr	r3, [pc, #8]	@ (8005d90 <_GLOBAL__sub_I_processEthernetMsg+0xc>)
 8005d86:	2200      	movs	r2, #0
 8005d88:	601a      	str	r2, [r3, #0]
 8005d8a:	609a      	str	r2, [r3, #8]
}
 8005d8c:	4770      	bx	lr
 8005d8e:	bf00      	nop
 8005d90:	20005bf8 	.word	0x20005bf8

08005d94 <_ZN8IPHeader10readLengthER7InFrame>:
// 3. header length
// 4. data length (updates 'mDataLen')
// returns 'false' on error. 'true' otherwise.
// **************************************************************
bool IPHeader::readLength(InFrame& inFrame)
{
 8005d94:	b5f8      	push	{r3, r4, r5, r6, r7, lr}
    {return mLen-mOffset;}
 8005d96:	684d      	ldr	r5, [r1, #4]
 8005d98:	688b      	ldr	r3, [r1, #8]
 8005d9a:	1aed      	subs	r5, r5, r3
  unsigned int frameLen = inFrame.getDataLen();
  if (frameLen < 20) {
 8005d9c:	2d13      	cmp	r5, #19
 8005d9e:	d801      	bhi.n	8005da4 <_ZN8IPHeader10readLengthER7InFrame+0x10>
    // ipHeader is at least 20 octets.
    return false;
 8005da0:	2000      	movs	r0, #0

  mDataLen = ipLen - headerLen;
  mHeaderLen = headerLen;

  return true;
}
 8005da2:	bdf8      	pop	{r3, r4, r5, r6, r7, pc}
 8005da4:	4607      	mov	r7, r0
 8005da6:	460c      	mov	r4, r1
  uint16_t service = inFrame.readNextHostU16();
 8005da8:	4608      	mov	r0, r1
 8005daa:	f7ff fe84 	bl	8005ab6 <_ZN7InFrame15readNextHostU16Ev>
  if ((service & 0x00F0) != 0x0040) {
 8005dae:	f000 02f0 	and.w	r2, r0, #240	@ 0xf0
 8005db2:	2a40      	cmp	r2, #64	@ 0x40
 8005db4:	d114      	bne.n	8005de0 <_ZN8IPHeader10readLengthER7InFrame+0x4c>
  unsigned int headerLen = (service & 0x000F) * 4;
 8005db6:	f000 030f 	and.w	r3, r0, #15
 8005dba:	009e      	lsls	r6, r3, #2
  if ((headerLen < 20) || (headerLen > frameLen)) {
 8005dbc:	2e13      	cmp	r6, #19
 8005dbe:	d911      	bls.n	8005de4 <_ZN8IPHeader10readLengthER7InFrame+0x50>
 8005dc0:	42ae      	cmp	r6, r5
 8005dc2:	d901      	bls.n	8005dc8 <_ZN8IPHeader10readLengthER7InFrame+0x34>
    return false;
 8005dc4:	2000      	movs	r0, #0
 8005dc6:	e7ec      	b.n	8005da2 <_ZN8IPHeader10readLengthER7InFrame+0xe>
  uint16_t ipLen = inFrame.readNextNetworkU16();
 8005dc8:	4620      	mov	r0, r4
 8005dca:	f7ff fe81 	bl	8005ad0 <_ZN7InFrame18readNextNetworkU16Ev>
  if ((ipLen < headerLen) || (ipLen > frameLen)) {
 8005dce:	42b0      	cmp	r0, r6
 8005dd0:	d30a      	bcc.n	8005de8 <_ZN8IPHeader10readLengthER7InFrame+0x54>
 8005dd2:	42a8      	cmp	r0, r5
 8005dd4:	d80a      	bhi.n	8005dec <_ZN8IPHeader10readLengthER7InFrame+0x58>
  mDataLen = ipLen - headerLen;
 8005dd6:	1b80      	subs	r0, r0, r6
 8005dd8:	60f8      	str	r0, [r7, #12]
  mHeaderLen = headerLen;
 8005dda:	60be      	str	r6, [r7, #8]
  return true;
 8005ddc:	2001      	movs	r0, #1
 8005dde:	e7e0      	b.n	8005da2 <_ZN8IPHeader10readLengthER7InFrame+0xe>
    return false;
 8005de0:	2000      	movs	r0, #0
 8005de2:	e7de      	b.n	8005da2 <_ZN8IPHeader10readLengthER7InFrame+0xe>
    return false;
 8005de4:	2000      	movs	r0, #0
 8005de6:	e7dc      	b.n	8005da2 <_ZN8IPHeader10readLengthER7InFrame+0xe>
    return false;
 8005de8:	2000      	movs	r0, #0
 8005dea:	e7da      	b.n	8005da2 <_ZN8IPHeader10readLengthER7InFrame+0xe>
 8005dec:	2000      	movs	r0, #0
 8005dee:	e7d8      	b.n	8005da2 <_ZN8IPHeader10readLengthER7InFrame+0xe>

08005df0 <_ZN8IPHeader6isToMeEm>:
  }

  return true;
}

bool IPHeader::isToMe( uint32_t IP){
 8005df0:	b410      	push	{r4}
      {return mGlobalManagement.mCommunicationCenter;}
 8005df2:	4b0e      	ldr	r3, [pc, #56]	@ (8005e2c <_ZN8IPHeader6isToMeEm+0x3c>)
 8005df4:	699c      	ldr	r4, [r3, #24]
  //is broadcast in subnet?
  const IPData& myIPData = SystemManagement::getCommunicationCenter().getIPData();
  uint8_t flag = 0;
  for (int i =0 ; i<32 ;i+=8){
 8005df6:	2300      	movs	r3, #0
  uint8_t flag = 0;
 8005df8:	461a      	mov	r2, r3
 8005dfa:	e008      	b.n	8005e0e <_ZN8IPHeader6isToMeEm+0x1e>
    if (flag){
      if (((IP >> i) & 0xFF) != ((myIPData.mAddr >> i) & 0xFF))
        return false;
    }
    else if (((IP >> i) & 0xFF) != 0xFF)
 8005dfc:	fa21 f203 	lsr.w	r2, r1, r3
 8005e00:	b2d2      	uxtb	r2, r2
 8005e02:	3aff      	subs	r2, #255	@ 0xff
 8005e04:	bf18      	it	ne
 8005e06:	2201      	movne	r2, #1
  for (int i =0 ; i<32 ;i+=8){
 8005e08:	3308      	adds	r3, #8
 8005e0a:	2b20      	cmp	r3, #32
 8005e0c:	d00a      	beq.n	8005e24 <_ZN8IPHeader6isToMeEm+0x34>
    if (flag){
 8005e0e:	2a00      	cmp	r2, #0
 8005e10:	d0f4      	beq.n	8005dfc <_ZN8IPHeader6isToMeEm+0xc>
      if (((IP >> i) & 0xFF) != ((myIPData.mAddr >> i) & 0xFF))
 8005e12:	f8d4 071c 	ldr.w	r0, [r4, #1820]	@ 0x71c
 8005e16:	4048      	eors	r0, r1
 8005e18:	40d8      	lsrs	r0, r3
 8005e1a:	f010 0fff 	tst.w	r0, #255	@ 0xff
 8005e1e:	d0f3      	beq.n	8005e08 <_ZN8IPHeader6isToMeEm+0x18>
        return false;
 8005e20:	2000      	movs	r0, #0
 8005e22:	e000      	b.n	8005e26 <_ZN8IPHeader6isToMeEm+0x36>
      flag =1;
    
  }
  return true;
 8005e24:	2001      	movs	r0, #1
}
 8005e26:	bc10      	pop	{r4}
 8005e28:	4770      	bx	lr
 8005e2a:	bf00      	nop
 8005e2c:	2000abe0 	.word	0x2000abe0

08005e30 <_ZN8IPHeader7readIPsER7InFrame>:
{
 8005e30:	b538      	push	{r3, r4, r5, lr}
 8005e32:	4604      	mov	r4, r0
 8005e34:	460d      	mov	r5, r1
    {return readNextHostU32();}
 8005e36:	4608      	mov	r0, r1
 8005e38:	f7ff fe52 	bl	8005ae0 <_ZN7InFrame15readNextHostU32Ev>
  mSrcIP = inFrame.readNextIP();
 8005e3c:	6020      	str	r0, [r4, #0]
 8005e3e:	4628      	mov	r0, r5
 8005e40:	f7ff fe4e 	bl	8005ae0 <_ZN7InFrame15readNextHostU32Ev>
 8005e44:	4605      	mov	r5, r0
  mDstIP = inFrame.readNextIP();
 8005e46:	6060      	str	r0, [r4, #4]
  if ( !isToMe(mDstIP) || mDstIP == 0) {  
 8005e48:	4601      	mov	r1, r0
 8005e4a:	4620      	mov	r0, r4
 8005e4c:	f7ff ffd0 	bl	8005df0 <_ZN8IPHeader6isToMeEm>
 8005e50:	b110      	cbz	r0, 8005e58 <_ZN8IPHeader7readIPsER7InFrame+0x28>
 8005e52:	1e28      	subs	r0, r5, #0
 8005e54:	bf18      	it	ne
 8005e56:	2001      	movne	r0, #1
}
 8005e58:	bd38      	pop	{r3, r4, r5, pc}

08005e5a <_ZN8IPHeader13decodeOptionsER7InFrame>:
// skip over all the options
// **************************************************************
void IPHeader::decodeOptions(InFrame& inFrame)
{
  unsigned int count;
  for (count = 0; count < (mHeaderLen-20); count+=4) {
 8005e5a:	6883      	ldr	r3, [r0, #8]
 8005e5c:	2b14      	cmp	r3, #20
 8005e5e:	d00c      	beq.n	8005e7a <_ZN8IPHeader13decodeOptionsER7InFrame+0x20>
{
 8005e60:	b570      	push	{r4, r5, r6, lr}
 8005e62:	4605      	mov	r5, r0
 8005e64:	460e      	mov	r6, r1
  for (count = 0; count < (mHeaderLen-20); count+=4) {
 8005e66:	2400      	movs	r4, #0
    inFrame.readNextHostU32();
 8005e68:	4630      	mov	r0, r6
 8005e6a:	f7ff fe39 	bl	8005ae0 <_ZN7InFrame15readNextHostU32Ev>
  for (count = 0; count < (mHeaderLen-20); count+=4) {
 8005e6e:	3404      	adds	r4, #4
 8005e70:	68ab      	ldr	r3, [r5, #8]
 8005e72:	3b14      	subs	r3, #20
 8005e74:	42a3      	cmp	r3, r4
 8005e76:	d8f7      	bhi.n	8005e68 <_ZN8IPHeader13decodeOptionsER7InFrame+0xe>
  }
}
 8005e78:	bd70      	pop	{r4, r5, r6, pc}
 8005e7a:	4770      	bx	lr

08005e7c <_ZN8IPHeader15decodeFrameTypeEt>:
// **************************************************************
// decodes frame type
// **************************************************************
void IPHeader::decodeFrameType(uint16_t protocol)
{
  protocol = protocol & 0x0000FF00;
 8005e7c:	f401 417f 	and.w	r1, r1, #65280	@ 0xff00

  switch (protocol) {
 8005e80:	f5b1 6fc0 	cmp.w	r1, #1536	@ 0x600
 8005e84:	d009      	beq.n	8005e9a <_ZN8IPHeader15decodeFrameTypeEt+0x1e>
 8005e86:	f5b1 5f88 	cmp.w	r1, #4352	@ 0x1100
 8005e8a:	d008      	beq.n	8005e9e <_ZN8IPHeader15decodeFrameTypeEt+0x22>
 8005e8c:	f5b1 7f80 	cmp.w	r1, #256	@ 0x100
 8005e90:	bf0c      	ite	eq
 8005e92:	2303      	moveq	r3, #3
 8005e94:	2300      	movne	r3, #0
  case 0x0100:
    mFrameType = IP_ICMP_TYPE;
 8005e96:	7403      	strb	r3, [r0, #16]
    mFrameType = IP_UDP_TYPE;
    break;
  default:
    mFrameType = IP_INVALID_TYPE;
  }
}
 8005e98:	4770      	bx	lr
  switch (protocol) {
 8005e9a:	2301      	movs	r3, #1
 8005e9c:	e7fb      	b.n	8005e96 <_ZN8IPHeader15decodeFrameTypeEt+0x1a>
 8005e9e:	2302      	movs	r3, #2
 8005ea0:	e7f9      	b.n	8005e96 <_ZN8IPHeader15decodeFrameTypeEt+0x1a>
	...

08005ea4 <_ZN8IPHeaderC1ER7InFrameR3Arp>:
IPHeader::IPHeader(InFrame& inFrame, Arp& arp) :
 8005ea4:	b5f8      	push	{r3, r4, r5, r6, r7, lr}
 8005ea6:	4604      	mov	r4, r0
 8005ea8:	460d      	mov	r5, r1
 8005eaa:	4616      	mov	r6, r2
  mFrameType(IP_INVALID_TYPE),
 8005eac:	2300      	movs	r3, #0
 8005eae:	7403      	strb	r3, [r0, #16]
    {return (mBase+mOffset);}
 8005eb0:	680b      	ldr	r3, [r1, #0]
 8005eb2:	688a      	ldr	r2, [r1, #8]
 8005eb4:	4413      	add	r3, r2
  mHeaderBase(inFrame.getCurDataPtr())
 8005eb6:	6143      	str	r3, [r0, #20]
  if (!readLength(inFrame)) {
 8005eb8:	f7ff ff6c 	bl	8005d94 <_ZN8IPHeader10readLengthER7InFrame>
 8005ebc:	b908      	cbnz	r0, 8005ec2 <_ZN8IPHeaderC1ER7InFrameR3Arp+0x1e>
}
 8005ebe:	4620      	mov	r0, r4
 8005ec0:	bdf8      	pop	{r3, r4, r5, r6, r7, pc}
  uint32_t fragment = inFrame.readNextHostU32();
 8005ec2:	4628      	mov	r0, r5
 8005ec4:	f7ff fe0c 	bl	8005ae0 <_ZN7InFrame15readNextHostU32Ev>
  if ((fragment & 0xFFBF0000) != 0) {
 8005ec8:	4b0f      	ldr	r3, [pc, #60]	@ (8005f08 <_ZN8IPHeaderC1ER7InFrameR3Arp+0x64>)
 8005eca:	4003      	ands	r3, r0
 8005ecc:	2b00      	cmp	r3, #0
 8005ece:	d1f6      	bne.n	8005ebe <_ZN8IPHeaderC1ER7InFrameR3Arp+0x1a>
  uint16_t protocol = inFrame.readNextHostU16();
 8005ed0:	4628      	mov	r0, r5
 8005ed2:	f7ff fdf0 	bl	8005ab6 <_ZN7InFrame15readNextHostU16Ev>
 8005ed6:	4607      	mov	r7, r0
  inFrame.readNextHostU16();        // skip checksum field.
 8005ed8:	4628      	mov	r0, r5
 8005eda:	f7ff fdec 	bl	8005ab6 <_ZN7InFrame15readNextHostU16Ev>
  if (!readIPs(inFrame)) {
 8005ede:	4629      	mov	r1, r5
 8005ee0:	4620      	mov	r0, r4
 8005ee2:	f7ff ffa5 	bl	8005e30 <_ZN8IPHeader7readIPsER7InFrame>
 8005ee6:	2800      	cmp	r0, #0
 8005ee8:	d0e9      	beq.n	8005ebe <_ZN8IPHeaderC1ER7InFrameR3Arp+0x1a>
  decodeOptions(inFrame);
 8005eea:	4629      	mov	r1, r5
 8005eec:	4620      	mov	r0, r4
 8005eee:	f7ff ffb4 	bl	8005e5a <_ZN8IPHeader13decodeOptionsER7InFrame>
  arp.updateArpEntry(mSrcIP, inFrame.getSrcMAC());
 8005ef2:	f105 0210 	add.w	r2, r5, #16
 8005ef6:	6821      	ldr	r1, [r4, #0]
 8005ef8:	4630      	mov	r0, r6
 8005efa:	f7ff facf 	bl	800549c <_ZN3Arp14updateArpEntryEmRK7MACAddr>
  decodeFrameType(protocol);
 8005efe:	4639      	mov	r1, r7
 8005f00:	4620      	mov	r0, r4
 8005f02:	f7ff ffbb 	bl	8005e7c <_ZN8IPHeader15decodeFrameTypeEt>
 8005f06:	e7da      	b.n	8005ebe <_ZN8IPHeaderC1ER7InFrameR3Arp+0x1a>
 8005f08:	ffbf0000 	.word	0xffbf0000

08005f0c <_ZN8OutIPMsg9getCurPtrEv>:
  // used for management message handling.
  void removeData(unsigned int dataSize);

  // we need these methods for all CRC and length fields.
  char* getCurPtr()
    {return (mBase + mOffset);}
 8005f0c:	6802      	ldr	r2, [r0, #0]
 8005f0e:	6840      	ldr	r0, [r0, #4]
// Invokes the physical layer 'getCurPtr' method
// **************************************************************
char* OutIPMsg::getCurPtr()
{
  return OutFrame::getCurPtr();
}
 8005f10:	4410      	add	r0, r2
 8005f12:	4770      	bx	lr

08005f14 <_ZN8OutIPMsg12writeHostU16Et>:

// **************************************************************
// Invokes the physical layer 'writeHostU16' method
// **************************************************************
int OutIPMsg::writeHostU16(uint16_t val)
{
 8005f14:	b508      	push	{r3, lr}
  return OutFrame::writeHostU16(val);
 8005f16:	f7ff fe09 	bl	8005b2c <_ZN8OutFrame12writeHostU16Et>
}
 8005f1a:	bd08      	pop	{r3, pc}

08005f1c <_ZN8OutIPMsg10appendDataEPKcj>:

// **************************************************************
// Invokes the physical layer 'appendData' method
// **************************************************************
int OutIPMsg::appendData(const char* blockBase, unsigned int blockSize)
{
 8005f1c:	b508      	push	{r3, lr}
  return OutFrame::appendData(blockBase, blockSize);
 8005f1e:	f7ff fecd 	bl	8005cbc <_ZN8OutFrame10appendDataEPKcj>
}
 8005f22:	bd08      	pop	{r3, pc}

08005f24 <_ZN8OutIPMsg10appendDataERK6Bufferj>:

// **************************************************************
// Invokes the physical layer 'appendData' method
// **************************************************************
int OutIPMsg::appendData(const Buffer& src, unsigned int blockSize)
{
 8005f24:	b508      	push	{r3, lr}
  return OutFrame::appendData(src, blockSize);
 8005f26:	f7ff ff06 	bl	8005d36 <_ZN8OutFrame10appendDataERK6Bufferj>
}
 8005f2a:	bd08      	pop	{r3, pc}

08005f2c <_ZN8OutIPMsg14updateIPMsgLenEv>:
// Updates the IP header
// updates the length field, and calculates the checksum field.
// **************************************************************
void OutIPMsg::updateIPMsgLen()
{
  if (isBad() || (mIPHeaderBase == NULL)) {
 8005f2c:	6883      	ldr	r3, [r0, #8]
 8005f2e:	b1bb      	cbz	r3, 8005f60 <_ZN8OutIPMsg14updateIPMsgLenEv+0x34>
 8005f30:	68c2      	ldr	r2, [r0, #12]
 8005f32:	b1aa      	cbz	r2, 8005f60 <_ZN8OutIPMsg14updateIPMsgLenEv+0x34>
{
 8005f34:	b510      	push	{r4, lr}
 8005f36:	6803      	ldr	r3, [r0, #0]
 8005f38:	6841      	ldr	r1, [r0, #4]
 8005f3a:	440b      	add	r3, r1
    setBad();
    return;
  }

  uint16_t msgLen = getCurPtr() - mIPHeaderBase;
 8005f3c:	1a9b      	subs	r3, r3, r2
  msgLen = htons(msgLen);
 8005f3e:	f3c3 2107 	ubfx	r1, r3, #8, #8
 8005f42:	ea41 2303 	orr.w	r3, r1, r3, lsl #8
  *(uint16_t*)(mIPHeaderBase + 2) = msgLen;
 8005f46:	8053      	strh	r3, [r2, #2]

  uint16_t* crcAddr = (uint16_t*)(mIPHeaderBase + 10);
 8005f48:	68c4      	ldr	r4, [r0, #12]
  unsigned int headerLen = 4 * (mIPHeaderBase[0] & 0x0F);
 8005f4a:	7821      	ldrb	r1, [r4, #0]
 8005f4c:	f001 010f 	and.w	r1, r1, #15
  *crcAddr = calcChecksum(mIPHeaderBase, headerLen, 0, *crcAddr);
 8005f50:	8963      	ldrh	r3, [r4, #10]
 8005f52:	2200      	movs	r2, #0
 8005f54:	0089      	lsls	r1, r1, #2
 8005f56:	4620      	mov	r0, r4
 8005f58:	f7ff fcde 	bl	8005918 <calcChecksum>
 8005f5c:	8160      	strh	r0, [r4, #10]
}
 8005f5e:	bd10      	pop	{r4, pc}
  void setBad() {mThisFrame = 0;}
 8005f60:	2300      	movs	r3, #0
 8005f62:	6083      	str	r3, [r0, #8]
    return;
 8005f64:	4770      	bx	lr

08005f66 <_ZN8OutIPMsg7sendMsgEv>:
{
 8005f66:	b510      	push	{r4, lr}
 8005f68:	4604      	mov	r4, r0
  updateIPMsgLen();
 8005f6a:	f7ff ffdf 	bl	8005f2c <_ZN8OutIPMsg14updateIPMsgLenEv>
  return OutFrame::sendMsg();
 8005f6e:	4620      	mov	r0, r4
 8005f70:	f7ff fee8 	bl	8005d44 <_ZN8OutFrame7sendMsgEv>
}
 8005f74:	bd10      	pop	{r4, pc}

08005f76 <_ZN8OutIPMsg14writeFrameTypeE11IPFrameType>:

// **************************************************************
// Updates the frame type in outbound message.
// **************************************************************
void OutIPMsg::writeFrameType(IPFrameType frameType)
{
 8005f76:	b508      	push	{r3, lr}
  switch (frameType) {
 8005f78:	2902      	cmp	r1, #2
 8005f7a:	d00b      	beq.n	8005f94 <_ZN8OutIPMsg14writeFrameTypeE11IPFrameType+0x1e>
 8005f7c:	2903      	cmp	r1, #3
 8005f7e:	d00e      	beq.n	8005f9e <_ZN8OutIPMsg14writeFrameTypeE11IPFrameType+0x28>
 8005f80:	2901      	cmp	r1, #1
 8005f82:	d002      	beq.n	8005f8a <_ZN8OutIPMsg14writeFrameTypeE11IPFrameType+0x14>
 8005f84:	2300      	movs	r3, #0
 8005f86:	6083      	str	r3, [r0, #8]
    break;
  default:
    setBad();
    break;
  }
}
 8005f88:	e003      	b.n	8005f92 <_ZN8OutIPMsg14writeFrameTypeE11IPFrameType+0x1c>
    writeHostU16(0x0680);
 8005f8a:	f44f 61d0 	mov.w	r1, #1664	@ 0x680
 8005f8e:	f7ff ffc1 	bl	8005f14 <_ZN8OutIPMsg12writeHostU16Et>
}
 8005f92:	bd08      	pop	{r3, pc}
    writeHostU16(0x1180);
 8005f94:	f44f 518c 	mov.w	r1, #4480	@ 0x1180
 8005f98:	f7ff ffbc 	bl	8005f14 <_ZN8OutIPMsg12writeHostU16Et>
    break;
 8005f9c:	e7f9      	b.n	8005f92 <_ZN8OutIPMsg14writeFrameTypeE11IPFrameType+0x1c>
    writeHostU16(0x0180);
 8005f9e:	f44f 71c0 	mov.w	r1, #384	@ 0x180
 8005fa2:	f7ff ffb7 	bl	8005f14 <_ZN8OutIPMsg12writeHostU16Et>
    break;
 8005fa6:	e7f4      	b.n	8005f92 <_ZN8OutIPMsg14writeFrameTypeE11IPFrameType+0x1c>

08005fa8 <_ZN8OutIPMsg17updateRecordRouteEPcjj>:
// **************************************************************
void OutIPMsg::updateRecordRoute(char* optionsBase,
                                 unsigned int optionsLen,
                                 unsigned int offset)
{
  unsigned int length = optionsBase[offset + 1];
 8005fa8:	18c8      	adds	r0, r1, r3
 8005faa:	7840      	ldrb	r0, [r0, #1]
  unsigned int pointer = optionsBase[offset + 2] - 1;
  uint32_t* replyBase = (uint32_t*)(optionsBase + offset + pointer);

  if (length + offset > optionsLen) {
 8005fac:	eb03 0c00 	add.w	ip, r3, r0
 8005fb0:	4594      	cmp	ip, r2
 8005fb2:	d817      	bhi.n	8005fe4 <_ZN8OutIPMsg17updateRecordRouteEPcjj+0x3c>
{
 8005fb4:	b500      	push	{lr}
  unsigned int pointer = optionsBase[offset + 2] - 1;
 8005fb6:	f103 0c02 	add.w	ip, r3, #2
 8005fba:	f811 200c 	ldrb.w	r2, [r1, ip]
    // this one is a message error
    return;
  }
  if (pointer + 4 > length) {
 8005fbe:	f102 0e03 	add.w	lr, r2, #3
 8005fc2:	4586      	cmp	lr, r0
 8005fc4:	d80c      	bhi.n	8005fe0 <_ZN8OutIPMsg17updateRecordRouteEPcjj+0x38>
 8005fc6:	4808      	ldr	r0, [pc, #32]	@ (8005fe8 <_ZN8OutIPMsg17updateRecordRouteEPcjj+0x40>)
 8005fc8:	6980      	ldr	r0, [r0, #24]
 8005fca:	f8d0 071c 	ldr.w	r0, [r0, #1820]	@ 0x71c
    return;
  }

  // append my IP address and let 'pointer' point to next free entry.
  uint32_t myIP = SystemManagement::getCommunicationCenter().getIPAddr();
  *replyBase = myIP;
 8005fce:	440a      	add	r2, r1
 8005fd0:	441a      	add	r2, r3
 8005fd2:	f842 0c01 	str.w	r0, [r2, #-1]
  optionsBase[offset + 2] += 4;
 8005fd6:	f811 300c 	ldrb.w	r3, [r1, ip]
 8005fda:	3304      	adds	r3, #4
 8005fdc:	f801 300c 	strb.w	r3, [r1, ip]
}
 8005fe0:	f85d fb04 	ldr.w	pc, [sp], #4
 8005fe4:	4770      	bx	lr
 8005fe6:	bf00      	nop
 8005fe8:	2000abe0 	.word	0x2000abe0

08005fec <_ZN8OutIPMsg23updateInternetTimestampEPcjj>:
// Updates the timestamp for 'ping'
// **************************************************************
void OutIPMsg::updateInternetTimestamp(char* optionsBase,
                                       unsigned int optionsLen,
                                       unsigned int offset)
{
 8005fec:	b5f8      	push	{r3, r4, r5, r6, r7, lr}
 8005fee:	460c      	mov	r4, r1
  unsigned int length = optionsBase[offset + 1];
 8005ff0:	4419      	add	r1, r3
 8005ff2:	7848      	ldrb	r0, [r1, #1]
  unsigned int pointer = optionsBase[offset + 2] - 1;
  uint32_t* replyBase = (uint32_t*)(optionsBase + offset + pointer);
  char flags = optionsBase[offset + 3];
 8005ff4:	1cdf      	adds	r7, r3, #3
 8005ff6:	5de1      	ldrb	r1, [r4, r7]
  char len = ((flags & 0x0F) == 0) ? 4 : 8;
 8005ff8:	f011 0c0f 	ands.w	ip, r1, #15
 8005ffc:	bf14      	ite	ne
 8005ffe:	2508      	movne	r5, #8
 8006000:	2504      	moveq	r5, #4

  if (length + offset > optionsLen) {
 8006002:	181e      	adds	r6, r3, r0
 8006004:	4296      	cmp	r6, r2
 8006006:	d825      	bhi.n	8006054 <_ZN8OutIPMsg23updateInternetTimestampEPcjj+0x68>
  unsigned int pointer = optionsBase[offset + 2] - 1;
 8006008:	1c9e      	adds	r6, r3, #2
 800600a:	5da2      	ldrb	r2, [r4, r6]
 800600c:	3a01      	subs	r2, #1
    // this one is a message error
    return;
  }
  if (pointer + len > length) {
 800600e:	eb05 0e02 	add.w	lr, r5, r2
 8006012:	4586      	cmp	lr, r0
 8006014:	d81f      	bhi.n	8006056 <_ZN8OutIPMsg23updateInternetTimestampEPcjj+0x6a>
  uint32_t* replyBase = (uint32_t*)(optionsBase + offset + pointer);
 8006016:	4413      	add	r3, r2
 8006018:	18e7      	adds	r7, r4, r3
      optionsBase[offset + 3] += 0x10;
    }
    return;
  }

  if ((flags & 0x0F) != 0) {
 800601a:	f1bc 0f00 	cmp.w	ip, #0
 800601e:	d005      	beq.n	800602c <_ZN8OutIPMsg23updateInternetTimestampEPcjj+0x40>
 8006020:	4a10      	ldr	r2, [pc, #64]	@ (8006064 <_ZN8OutIPMsg23updateInternetTimestampEPcjj+0x78>)
 8006022:	6992      	ldr	r2, [r2, #24]
 8006024:	f8d2 271c 	ldr.w	r2, [r2, #1820]	@ 0x71c
    // append my IP address and let 'pointer' point to next free entry.
    uint32_t myIP = SystemManagement::getCommunicationCenter().getIPAddr();
    *replyBase = myIP;
 8006028:	50e2      	str	r2, [r4, r3]
    replyBase++;
 800602a:	3704      	adds	r7, #4
  }

  uint32_t time = getTimerMilliSecs(0);
 800602c:	2000      	movs	r0, #0
 800602e:	f004 f959 	bl	800a2e4 <getTimerMilliSecs>
  time |= 0x80000000;                   // set high bit, as this is not universal time.
 8006032:	f040 4200 	orr.w	r2, r0, #2147483648	@ 0x80000000
  *replyBase = htonl(time);
 8006036:	0e13      	lsrs	r3, r2, #24
 8006038:	ea43 6300 	orr.w	r3, r3, r0, lsl #24
 800603c:	0211      	lsls	r1, r2, #8
 800603e:	f401 017f 	and.w	r1, r1, #16711680	@ 0xff0000
 8006042:	430b      	orrs	r3, r1
 8006044:	0a12      	lsrs	r2, r2, #8
 8006046:	f402 427f 	and.w	r2, r2, #65280	@ 0xff00
 800604a:	4313      	orrs	r3, r2
 800604c:	603b      	str	r3, [r7, #0]

  optionsBase[offset + 2] += len;
 800604e:	5da3      	ldrb	r3, [r4, r6]
 8006050:	441d      	add	r5, r3
 8006052:	55a5      	strb	r5, [r4, r6]
}
 8006054:	bdf8      	pop	{r3, r4, r5, r6, r7, pc}
    if ((flags & 0xF0) != 0xF0) {
 8006056:	f001 03f0 	and.w	r3, r1, #240	@ 0xf0
 800605a:	2bf0      	cmp	r3, #240	@ 0xf0
 800605c:	d0fa      	beq.n	8006054 <_ZN8OutIPMsg23updateInternetTimestampEPcjj+0x68>
      optionsBase[offset + 3] += 0x10;
 800605e:	3110      	adds	r1, #16
 8006060:	55e1      	strb	r1, [r4, r7]
 8006062:	e7f7      	b.n	8006054 <_ZN8OutIPMsg23updateInternetTimestampEPcjj+0x68>
 8006064:	2000abe0 	.word	0x2000abe0

08006068 <_ZN8OutIPMsg12parseOptionsEPcj>:
  while (offset < optionsLen) {
 8006068:	2a00      	cmp	r2, #0
 800606a:	f000 80dc 	beq.w	8006226 <_ZN8OutIPMsg12parseOptionsEPcj+0x1be>
{
 800606e:	b5f8      	push	{r3, r4, r5, r6, r7, lr}
 8006070:	4607      	mov	r7, r0
 8006072:	460d      	mov	r5, r1
 8006074:	4616      	mov	r6, r2
  unsigned int offset = 0;
 8006076:	2400      	movs	r4, #0
 8006078:	e00c      	b.n	8006094 <_ZN8OutIPMsg12parseOptionsEPcj+0x2c>
      optionLen = 4;
 800607a:	2304      	movs	r3, #4
 800607c:	e006      	b.n	800608c <_ZN8OutIPMsg12parseOptionsEPcj+0x24>
      optionLen = 11;
 800607e:	230b      	movs	r3, #11
 8006080:	e004      	b.n	800608c <_ZN8OutIPMsg12parseOptionsEPcj+0x24>
      optionLen = optionsBase[offset + 1];
 8006082:	192b      	adds	r3, r5, r4
 8006084:	785b      	ldrb	r3, [r3, #1]
    if (optionLen == 0) {
 8006086:	2b00      	cmp	r3, #0
 8006088:	f000 80cc 	beq.w	8006224 <_ZN8OutIPMsg12parseOptionsEPcj+0x1bc>
    offset += optionLen;
 800608c:	441c      	add	r4, r3
  while (offset < optionsLen) {
 800608e:	42a6      	cmp	r6, r4
 8006090:	f240 80c8 	bls.w	8006224 <_ZN8OutIPMsg12parseOptionsEPcj+0x1bc>
    char nextOption = optionsBase[offset] & 0x7F;
 8006094:	5d2b      	ldrb	r3, [r5, r4]
    switch (nextOption) {
 8006096:	f003 037f 	and.w	r3, r3, #127	@ 0x7f
 800609a:	3b01      	subs	r3, #1
 800609c:	2b51      	cmp	r3, #81	@ 0x51
 800609e:	f200 80c1 	bhi.w	8006224 <_ZN8OutIPMsg12parseOptionsEPcj+0x1bc>
 80060a2:	a201      	add	r2, pc, #4	@ (adr r2, 80060a8 <_ZN8OutIPMsg12parseOptionsEPcj+0x40>)
 80060a4:	f852 f023 	ldr.w	pc, [r2, r3, lsl #2]
 80060a8:	08006221 	.word	0x08006221
 80060ac:	0800607f 	.word	0x0800607f
 80060b0:	08006083 	.word	0x08006083
 80060b4:	08006225 	.word	0x08006225
 80060b8:	08006225 	.word	0x08006225
 80060bc:	08006225 	.word	0x08006225
 80060c0:	080061f1 	.word	0x080061f1
 80060c4:	0800607b 	.word	0x0800607b
 80060c8:	08006203 	.word	0x08006203
 80060cc:	08006225 	.word	0x08006225
 80060d0:	0800607b 	.word	0x0800607b
 80060d4:	0800607b 	.word	0x0800607b
 80060d8:	08006225 	.word	0x08006225
 80060dc:	08006225 	.word	0x08006225
 80060e0:	08006225 	.word	0x08006225
 80060e4:	08006225 	.word	0x08006225
 80060e8:	08006225 	.word	0x08006225
 80060ec:	08006225 	.word	0x08006225
 80060f0:	08006225 	.word	0x08006225
 80060f4:	0800607b 	.word	0x0800607b
 80060f8:	08006225 	.word	0x08006225
 80060fc:	08006225 	.word	0x08006225
 8006100:	08006225 	.word	0x08006225
 8006104:	08006225 	.word	0x08006225
 8006108:	08006225 	.word	0x08006225
 800610c:	08006225 	.word	0x08006225
 8006110:	08006225 	.word	0x08006225
 8006114:	08006225 	.word	0x08006225
 8006118:	08006225 	.word	0x08006225
 800611c:	08006225 	.word	0x08006225
 8006120:	08006225 	.word	0x08006225
 8006124:	08006225 	.word	0x08006225
 8006128:	08006225 	.word	0x08006225
 800612c:	08006225 	.word	0x08006225
 8006130:	08006225 	.word	0x08006225
 8006134:	08006225 	.word	0x08006225
 8006138:	08006225 	.word	0x08006225
 800613c:	08006225 	.word	0x08006225
 8006140:	08006225 	.word	0x08006225
 8006144:	08006225 	.word	0x08006225
 8006148:	08006225 	.word	0x08006225
 800614c:	08006225 	.word	0x08006225
 8006150:	08006225 	.word	0x08006225
 8006154:	08006225 	.word	0x08006225
 8006158:	08006225 	.word	0x08006225
 800615c:	08006225 	.word	0x08006225
 8006160:	08006225 	.word	0x08006225
 8006164:	08006225 	.word	0x08006225
 8006168:	08006225 	.word	0x08006225
 800616c:	08006225 	.word	0x08006225
 8006170:	08006225 	.word	0x08006225
 8006174:	08006225 	.word	0x08006225
 8006178:	08006225 	.word	0x08006225
 800617c:	08006225 	.word	0x08006225
 8006180:	08006225 	.word	0x08006225
 8006184:	08006225 	.word	0x08006225
 8006188:	08006225 	.word	0x08006225
 800618c:	08006225 	.word	0x08006225
 8006190:	08006225 	.word	0x08006225
 8006194:	08006225 	.word	0x08006225
 8006198:	08006225 	.word	0x08006225
 800619c:	08006225 	.word	0x08006225
 80061a0:	08006225 	.word	0x08006225
 80061a4:	08006225 	.word	0x08006225
 80061a8:	08006225 	.word	0x08006225
 80061ac:	08006225 	.word	0x08006225
 80061b0:	08006225 	.word	0x08006225
 80061b4:	08006209 	.word	0x08006209
 80061b8:	08006225 	.word	0x08006225
 80061bc:	08006225 	.word	0x08006225
 80061c0:	08006225 	.word	0x08006225
 80061c4:	08006225 	.word	0x08006225
 80061c8:	08006225 	.word	0x08006225
 80061cc:	08006225 	.word	0x08006225
 80061d0:	08006225 	.word	0x08006225
 80061d4:	08006225 	.word	0x08006225
 80061d8:	08006225 	.word	0x08006225
 80061dc:	08006225 	.word	0x08006225
 80061e0:	08006225 	.word	0x08006225
 80061e4:	08006225 	.word	0x08006225
 80061e8:	08006225 	.word	0x08006225
 80061ec:	0800621b 	.word	0x0800621b
      updateRecordRoute(optionsBase, optionsLen, offset);
 80061f0:	4623      	mov	r3, r4
 80061f2:	4632      	mov	r2, r6
 80061f4:	4629      	mov	r1, r5
 80061f6:	4638      	mov	r0, r7
 80061f8:	f7ff fed6 	bl	8005fa8 <_ZN8OutIPMsg17updateRecordRouteEPcjj>
      optionLen = optionsBase[offset + 1];
 80061fc:	192b      	adds	r3, r5, r4
 80061fe:	785b      	ldrb	r3, [r3, #1]
      break;
 8006200:	e741      	b.n	8006086 <_ZN8OutIPMsg12parseOptionsEPcj+0x1e>
      optionLen = optionsBase[offset + 1];
 8006202:	192b      	adds	r3, r5, r4
 8006204:	785b      	ldrb	r3, [r3, #1]
      break;
 8006206:	e73e      	b.n	8006086 <_ZN8OutIPMsg12parseOptionsEPcj+0x1e>
      updateInternetTimestamp(optionsBase, optionsLen, offset);
 8006208:	4623      	mov	r3, r4
 800620a:	4632      	mov	r2, r6
 800620c:	4629      	mov	r1, r5
 800620e:	4638      	mov	r0, r7
 8006210:	f7ff feec 	bl	8005fec <_ZN8OutIPMsg23updateInternetTimestampEPcjj>
      optionLen = optionsBase[offset + 1];
 8006214:	192b      	adds	r3, r5, r4
 8006216:	785b      	ldrb	r3, [r3, #1]
      break;
 8006218:	e735      	b.n	8006086 <_ZN8OutIPMsg12parseOptionsEPcj+0x1e>
      optionLen = optionsBase[offset + 1];
 800621a:	192b      	adds	r3, r5, r4
 800621c:	785b      	ldrb	r3, [r3, #1]
      break;
 800621e:	e732      	b.n	8006086 <_ZN8OutIPMsg12parseOptionsEPcj+0x1e>
    switch (nextOption) {
 8006220:	2301      	movs	r3, #1
 8006222:	e733      	b.n	800608c <_ZN8OutIPMsg12parseOptionsEPcj+0x24>
}
 8006224:	bdf8      	pop	{r3, r4, r5, r6, r7, pc}
 8006226:	4770      	bx	lr

08006228 <_ZN8OutIPMsg17getIdentificationEv>:
// **************************************************************
// Returns a unique IP identification nubmer.
// **************************************************************
uint16_t OutIPMsg::getIdentification()
{
  if (mIdentification == 0xFFFF) {
 8006228:	4b07      	ldr	r3, [pc, #28]	@ (8006248 <_ZN8OutIPMsg17getIdentificationEv+0x20>)
 800622a:	881a      	ldrh	r2, [r3, #0]
 800622c:	f64f 73ff 	movw	r3, #65535	@ 0xffff
 8006230:	429a      	cmp	r2, r3
 8006232:	d005      	beq.n	8006240 <_ZN8OutIPMsg17getIdentificationEv+0x18>
    mIdentification = 0;
  }
  mIdentification++;
 8006234:	4b04      	ldr	r3, [pc, #16]	@ (8006248 <_ZN8OutIPMsg17getIdentificationEv+0x20>)
 8006236:	8818      	ldrh	r0, [r3, #0]
 8006238:	3001      	adds	r0, #1
 800623a:	b280      	uxth	r0, r0
 800623c:	8018      	strh	r0, [r3, #0]
  return mIdentification;
}
 800623e:	4770      	bx	lr
    mIdentification = 0;
 8006240:	4b01      	ldr	r3, [pc, #4]	@ (8006248 <_ZN8OutIPMsg17getIdentificationEv+0x20>)
 8006242:	2200      	movs	r2, #0
 8006244:	801a      	strh	r2, [r3, #0]
 8006246:	e7f5      	b.n	8006234 <_ZN8OutIPMsg17getIdentificationEv+0xc>
 8006248:	20000014 	.word	0x20000014

0800624c <_ZN8OutIPMsg13writeIPHeaderEm11IPFrameTypejPKc>:
{
 800624c:	b5f8      	push	{r3, r4, r5, r6, r7, lr}
 800624e:	4604      	mov	r4, r0
  if ((optionsLen > 40) || ((optionsLen % 4) != 0)) {
 8006250:	2b28      	cmp	r3, #40	@ 0x28
 8006252:	d805      	bhi.n	8006260 <_ZN8OutIPMsg13writeIPHeaderEm11IPFrameTypejPKc+0x14>
 8006254:	460f      	mov	r7, r1
 8006256:	4616      	mov	r6, r2
 8006258:	461d      	mov	r5, r3
 800625a:	f013 0f03 	tst.w	r3, #3
 800625e:	d002      	beq.n	8006266 <_ZN8OutIPMsg13writeIPHeaderEm11IPFrameTypejPKc+0x1a>
 8006260:	2300      	movs	r3, #0
 8006262:	60a3      	str	r3, [r4, #8]
}
 8006264:	bdf8      	pop	{r3, r4, r5, r6, r7, pc}
  headerLen += (optionsLen / 4);
 8006266:	0899      	lsrs	r1, r3, #2
 8006268:	3145      	adds	r1, #69	@ 0x45
  writeHostU16(headerLen);
 800626a:	b289      	uxth	r1, r1
 800626c:	f7ff fe52 	bl	8005f14 <_ZN8OutIPMsg12writeHostU16Et>
  writeHostU16(0);
 8006270:	2100      	movs	r1, #0
 8006272:	4620      	mov	r0, r4
 8006274:	f7ff fe4e 	bl	8005f14 <_ZN8OutIPMsg12writeHostU16Et>
  writeNetworkU16(getIdentification());
 8006278:	f7ff ffd6 	bl	8006228 <_ZN8OutIPMsg17getIdentificationEv>
 800627c:	4601      	mov	r1, r0
 800627e:	4620      	mov	r0, r4
 8006280:	f7ff fc6a 	bl	8005b58 <_ZN8OutFrame15writeNetworkU16Et>
  writeHostU16(0x0040);
 8006284:	2140      	movs	r1, #64	@ 0x40
 8006286:	4620      	mov	r0, r4
 8006288:	f7ff fe44 	bl	8005f14 <_ZN8OutIPMsg12writeHostU16Et>
  writeFrameType(frameType);
 800628c:	4631      	mov	r1, r6
 800628e:	4620      	mov	r0, r4
 8006290:	f7ff fe71 	bl	8005f76 <_ZN8OutIPMsg14writeFrameTypeE11IPFrameType>
  writeHostU16(0x0000);
 8006294:	2100      	movs	r1, #0
 8006296:	4620      	mov	r0, r4
 8006298:	f7ff fe3c 	bl	8005f14 <_ZN8OutIPMsg12writeHostU16Et>
 800629c:	4b0e      	ldr	r3, [pc, #56]	@ (80062d8 <_ZN8OutIPMsg13writeIPHeaderEm11IPFrameTypejPKc+0x8c>)
 800629e:	699b      	ldr	r3, [r3, #24]
    {return writeHostU32(ip);}
 80062a0:	f8d3 171c 	ldr.w	r1, [r3, #1820]	@ 0x71c
 80062a4:	4620      	mov	r0, r4
 80062a6:	f7ff fc5f 	bl	8005b68 <_ZN8OutFrame12writeHostU32Em>
 80062aa:	4639      	mov	r1, r7
 80062ac:	4620      	mov	r0, r4
 80062ae:	f7ff fc5b 	bl	8005b68 <_ZN8OutFrame12writeHostU32Em>
  if ((optionsLen > 0) && isGood()) {
 80062b2:	2d00      	cmp	r5, #0
 80062b4:	d0d6      	beq.n	8006264 <_ZN8OutIPMsg13writeIPHeaderEm11IPFrameTypejPKc+0x18>
 80062b6:	68a3      	ldr	r3, [r4, #8]
 80062b8:	2b00      	cmp	r3, #0
 80062ba:	d0d3      	beq.n	8006264 <_ZN8OutIPMsg13writeIPHeaderEm11IPFrameTypejPKc+0x18>
    {return (mBase + mOffset);}
 80062bc:	6826      	ldr	r6, [r4, #0]
 80062be:	6863      	ldr	r3, [r4, #4]
 80062c0:	441e      	add	r6, r3
    appendData(optionsBase, optionsLen);
 80062c2:	462a      	mov	r2, r5
 80062c4:	9906      	ldr	r1, [sp, #24]
 80062c6:	4620      	mov	r0, r4
 80062c8:	f7ff fe28 	bl	8005f1c <_ZN8OutIPMsg10appendDataEPKcj>
    parseOptions(optionsReplyBase, optionsLen);
 80062cc:	462a      	mov	r2, r5
 80062ce:	4631      	mov	r1, r6
 80062d0:	4620      	mov	r0, r4
 80062d2:	f7ff fec9 	bl	8006068 <_ZN8OutIPMsg12parseOptionsEPcj>
 80062d6:	e7c5      	b.n	8006264 <_ZN8OutIPMsg13writeIPHeaderEm11IPFrameTypejPKc+0x18>
 80062d8:	2000abe0 	.word	0x2000abe0

080062dc <_ZN8OutIPMsgC1Em11IPFrameTypeR19CommunicationCenter>:
OutIPMsg::OutIPMsg(uint32_t targetIP,
 80062dc:	b5f0      	push	{r4, r5, r6, r7, lr}
 80062de:	b083      	sub	sp, #12
 80062e0:	4604      	mov	r4, r0
 80062e2:	460e      	mov	r6, r1
 80062e4:	4617      	mov	r7, r2
 80062e6:	461d      	mov	r5, r3
 80062e8:	4b0e      	ldr	r3, [pc, #56]	@ (8006324 <_ZN8OutIPMsgC1Em11IPFrameTypeR19CommunicationCenter+0x48>)
  const IPData& getIPData() const { return mIPData; }
 80062ea:	6998      	ldr	r0, [r3, #24]
  mIPHeaderBase(NULL)
 80062ec:	f200 701c 	addw	r0, r0, #1820	@ 0x71c
 80062f0:	f000 f91d 	bl	800652e <_ZNK6IPData11getFirsthopEm>
 80062f4:	4601      	mov	r1, r0
 80062f6:	462a      	mov	r2, r5
 80062f8:	4620      	mov	r0, r4
 80062fa:	f7ff fcab 	bl	8005c54 <_ZN8OutFrameC1EmR19CommunicationCenter>
 80062fe:	2300      	movs	r3, #0
 8006300:	60e3      	str	r3, [r4, #12]
  if (isBad()) {
 8006302:	68a3      	ldr	r3, [r4, #8]
 8006304:	b913      	cbnz	r3, 800630c <_ZN8OutIPMsgC1Em11IPFrameTypeR19CommunicationCenter+0x30>
}
 8006306:	4620      	mov	r0, r4
 8006308:	b003      	add	sp, #12
 800630a:	bdf0      	pop	{r4, r5, r6, r7, pc}
 800630c:	6823      	ldr	r3, [r4, #0]
 800630e:	6862      	ldr	r2, [r4, #4]
 8006310:	4413      	add	r3, r2
  mIPHeaderBase = getCurPtr();
 8006312:	60e3      	str	r3, [r4, #12]
  writeIPHeader(targetIP, frameType, 0, NULL);
 8006314:	2300      	movs	r3, #0
 8006316:	9300      	str	r3, [sp, #0]
 8006318:	463a      	mov	r2, r7
 800631a:	4631      	mov	r1, r6
 800631c:	4620      	mov	r0, r4
 800631e:	f7ff ff95 	bl	800624c <_ZN8OutIPMsg13writeIPHeaderEm11IPFrameTypejPKc>
 8006322:	e7f0      	b.n	8006306 <_ZN8OutIPMsgC1Em11IPFrameTypeR19CommunicationCenter+0x2a>
 8006324:	2000abe0 	.word	0x2000abe0

08006328 <_ZN8OutIPMsgC1EmjPKcR19CommunicationCenter>:
OutIPMsg::OutIPMsg(uint32_t targetIP,
 8006328:	b5f0      	push	{r4, r5, r6, r7, lr}
 800632a:	b083      	sub	sp, #12
 800632c:	4604      	mov	r4, r0
 800632e:	460d      	mov	r5, r1
 8006330:	4616      	mov	r6, r2
 8006332:	461f      	mov	r7, r3
 8006334:	4b0e      	ldr	r3, [pc, #56]	@ (8006370 <_ZN8OutIPMsgC1EmjPKcR19CommunicationCenter+0x48>)
 8006336:	6998      	ldr	r0, [r3, #24]
  mIPHeaderBase(NULL)
 8006338:	f200 701c 	addw	r0, r0, #1820	@ 0x71c
 800633c:	f000 f8f7 	bl	800652e <_ZNK6IPData11getFirsthopEm>
 8006340:	4601      	mov	r1, r0
 8006342:	9a08      	ldr	r2, [sp, #32]
 8006344:	4620      	mov	r0, r4
 8006346:	f7ff fc85 	bl	8005c54 <_ZN8OutFrameC1EmR19CommunicationCenter>
 800634a:	2300      	movs	r3, #0
 800634c:	60e3      	str	r3, [r4, #12]
  if (isBad()) {
 800634e:	68a3      	ldr	r3, [r4, #8]
 8006350:	b913      	cbnz	r3, 8006358 <_ZN8OutIPMsgC1EmjPKcR19CommunicationCenter+0x30>
}
 8006352:	4620      	mov	r0, r4
 8006354:	b003      	add	sp, #12
 8006356:	bdf0      	pop	{r4, r5, r6, r7, pc}
 8006358:	6823      	ldr	r3, [r4, #0]
 800635a:	6862      	ldr	r2, [r4, #4]
 800635c:	4413      	add	r3, r2
  mIPHeaderBase = getCurPtr();
 800635e:	60e3      	str	r3, [r4, #12]
  writeIPHeader(targetIP, IP_ICMP_TYPE, optionsLen, optionsBase);
 8006360:	9700      	str	r7, [sp, #0]
 8006362:	4633      	mov	r3, r6
 8006364:	2203      	movs	r2, #3
 8006366:	4629      	mov	r1, r5
 8006368:	4620      	mov	r0, r4
 800636a:	f7ff ff6f 	bl	800624c <_ZN8OutIPMsg13writeIPHeaderEm11IPFrameTypejPKc>
 800636e:	e7f0      	b.n	8006352 <_ZN8OutIPMsgC1EmjPKcR19CommunicationCenter+0x2a>
 8006370:	2000abe0 	.word	0x2000abe0

08006374 <_ZN7IPFrameC1ER7InFrameR3Arp>:
// **********************************************************************

// **************************************************************
// IP frame constructor.
// **************************************************************
IPFrame::IPFrame(InFrame& inFrame, Arp& arp) :
 8006374:	b538      	push	{r3, r4, r5, lr}
 8006376:	4604      	mov	r4, r0
 8006378:	460d      	mov	r5, r1
  IPHeader(inFrame, arp),
  mBase(inFrame.getCurDataPtr()),
  mOffset(0)
 800637a:	f7ff fd93 	bl	8005ea4 <_ZN8IPHeaderC1ER7InFrameR3Arp>
    {return (mBase+mOffset);}
 800637e:	682b      	ldr	r3, [r5, #0]
 8006380:	68aa      	ldr	r2, [r5, #8]
 8006382:	4413      	add	r3, r2
  mBase(inFrame.getCurDataPtr()),
 8006384:	61a3      	str	r3, [r4, #24]
  mOffset(0)
 8006386:	2300      	movs	r3, #0
 8006388:	61e3      	str	r3, [r4, #28]
{
}
 800638a:	4620      	mov	r0, r4
 800638c:	bd38      	pop	{r3, r4, r5, pc}

0800638e <_ZN7IPLayerC1ER6Layer3S1_R19CommunicationCenter>:
// **********************************************************************

// **************************************************************
// Constructor
// **************************************************************
IPLayer::IPLayer(Layer3& tcpLayer,
 800638e:	b5f8      	push	{r3, r4, r5, r6, r7, lr}
 8006390:	4604      	mov	r4, r0
 8006392:	460f      	mov	r7, r1
 8006394:	4616      	mov	r6, r2
 8006396:	461d      	mov	r5, r3
                 Layer3& udpLayer,
                 CommunicationCenter& communicationCenter) :
  mArp(),
 8006398:	f7fe ffaa 	bl	80052f0 <_ZN3ArpC1Ev>
  mTCPLayer(tcpLayer),
 800639c:	f8c4 7620 	str.w	r7, [r4, #1568]	@ 0x620
  mUDPLayer(udpLayer),
 80063a0:	f8c4 6624 	str.w	r6, [r4, #1572]	@ 0x624
  mCommunicationCenter(communicationCenter)
 80063a4:	f8c4 5628 	str.w	r5, [r4, #1576]	@ 0x628
{
}
 80063a8:	4620      	mov	r0, r4
 80063aa:	bdf8      	pop	{r3, r4, r5, r6, r7, pc}

080063ac <_ZN7IPLayer15handleICMPFrameERK7IPFrame>:

// **************************************************************
// Processes an ICMP message.
// **************************************************************
int IPLayer::handleICMPFrame(const IPFrame& ipFrame)
{
 80063ac:	b570      	push	{r4, r5, r6, lr}
 80063ae:	b086      	sub	sp, #24
    {return mDataLen - mOffset;}
 80063b0:	69cb      	ldr	r3, [r1, #28]
 80063b2:	68cc      	ldr	r4, [r1, #12]
 80063b4:	1ae4      	subs	r4, r4, r3
    {return (mBase + mOffset);}
 80063b6:	698a      	ldr	r2, [r1, #24]
 80063b8:	18d6      	adds	r6, r2, r3
  unsigned int dataLen = ipFrame.getMsgLen();
  // read message type, and skip over crc field.
  const char* dataBase = ipFrame.getCurDataPtr();
  if (mCommunicationCenter.getIPAddr() == 0) return -2;
 80063ba:	f8d0 0628 	ldr.w	r0, [r0, #1576]	@ 0x628
 80063be:	f8d0 571c 	ldr.w	r5, [r0, #1820]	@ 0x71c
 80063c2:	b33d      	cbz	r5, 8006414 <_ZN7IPLayer15handleICMPFrameERK7IPFrame+0x68>
  uint16_t icmpType = hGetU16(dataBase, 0);
  // We handle only echo (ping) requests currently.
  if (icmpType != 0x0008) {
 80063c4:	5ad3      	ldrh	r3, [r2, r3]
 80063c6:	2b08      	cmp	r3, #8
 80063c8:	d127      	bne.n	800641a <_ZN7IPLayer15handleICMPFrameERK7IPFrame+0x6e>
    return -2;
  }

  const char* optionsBase = ipFrame.getHeaderBase() + 20;
 80063ca:	694b      	ldr	r3, [r1, #20]
 80063cc:	3314      	adds	r3, #20
  unsigned int optionLen = dataBase - optionsBase;
  
  uint32_t targetIP = ipFrame.getSrcIP();
  OutIPMsg outMsg(targetIP, optionLen, optionsBase, mCommunicationCenter);
 80063ce:	9000      	str	r0, [sp, #0]
 80063d0:	1af2      	subs	r2, r6, r3
 80063d2:	6809      	ldr	r1, [r1, #0]
 80063d4:	a802      	add	r0, sp, #8
 80063d6:	f7ff ffa7 	bl	8006328 <_ZN8OutIPMsgC1EmjPKcR19CommunicationCenter>
  outMsg.writeHostU16(0x0000);
 80063da:	2100      	movs	r1, #0
 80063dc:	a802      	add	r0, sp, #8
 80063de:	f7ff fd99 	bl	8005f14 <_ZN8OutIPMsg12writeHostU16Et>
  char* checksumPtr = outMsg.getCurPtr();
 80063e2:	a802      	add	r0, sp, #8
 80063e4:	f7ff fd92 	bl	8005f0c <_ZN8OutIPMsg9getCurPtrEv>
 80063e8:	4605      	mov	r5, r0
  outMsg.writeHostU16(0x0000);
 80063ea:	2100      	movs	r1, #0
 80063ec:	a802      	add	r0, sp, #8
 80063ee:	f7ff fd91 	bl	8005f14 <_ZN8OutIPMsg12writeHostU16Et>
  outMsg.appendData(dataBase+4, dataLen-4);
 80063f2:	1f22      	subs	r2, r4, #4
 80063f4:	1d31      	adds	r1, r6, #4
 80063f6:	a802      	add	r0, sp, #8
 80063f8:	f7ff fd90 	bl	8005f1c <_ZN8OutIPMsg10appendDataEPKcj>

  // We need to update the 'ping' message checksum.
  *(uint16_t*)(checksumPtr) = calcChecksum(checksumPtr-2, dataLen, 0, 0);
 80063fc:	2300      	movs	r3, #0
 80063fe:	461a      	mov	r2, r3
 8006400:	4621      	mov	r1, r4
 8006402:	1ea8      	subs	r0, r5, #2
 8006404:	f7ff fa88 	bl	8005918 <calcChecksum>
 8006408:	8028      	strh	r0, [r5, #0]

  return outMsg.sendMsg();
 800640a:	a802      	add	r0, sp, #8
 800640c:	f7ff fdab 	bl	8005f66 <_ZN8OutIPMsg7sendMsgEv>
}
 8006410:	b006      	add	sp, #24
 8006412:	bd70      	pop	{r4, r5, r6, pc}
  if (mCommunicationCenter.getIPAddr() == 0) return -2;
 8006414:	f06f 0001 	mvn.w	r0, #1
 8006418:	e7fa      	b.n	8006410 <_ZN7IPLayer15handleICMPFrameERK7IPFrame+0x64>
    return -2;
 800641a:	f06f 0001 	mvn.w	r0, #1
 800641e:	e7f7      	b.n	8006410 <_ZN7IPLayer15handleICMPFrameERK7IPFrame+0x64>

08006420 <_ZN7IPLayer13handleIPFrameER7InFrame>:
{
 8006420:	b510      	push	{r4, lr}
 8006422:	b088      	sub	sp, #32
 8006424:	4604      	mov	r4, r0
  const IPFrame ipFrame(inFrame, mArp);
 8006426:	4602      	mov	r2, r0
 8006428:	4668      	mov	r0, sp
 800642a:	f7ff ffa3 	bl	8006374 <_ZN7IPFrameC1ER7InFrameR3Arp>
    {return mFrameType;}
 800642e:	f89d 3010 	ldrb.w	r3, [sp, #16]
  switch (ipFrame.getMsgType()) {
 8006432:	2b02      	cmp	r3, #2
 8006434:	d012      	beq.n	800645c <_ZN7IPLayer13handleIPFrameER7InFrame+0x3c>
 8006436:	2b03      	cmp	r3, #3
 8006438:	d005      	beq.n	8006446 <_ZN7IPLayer13handleIPFrameER7InFrame+0x26>
 800643a:	2b01      	cmp	r3, #1
 800643c:	d008      	beq.n	8006450 <_ZN7IPLayer13handleIPFrameER7InFrame+0x30>
 800643e:	f04f 30ff 	mov.w	r0, #4294967295
}
 8006442:	b008      	add	sp, #32
 8006444:	bd10      	pop	{r4, pc}
    return handleICMPFrame(ipFrame);
 8006446:	4669      	mov	r1, sp
 8006448:	4620      	mov	r0, r4
 800644a:	f7ff ffaf 	bl	80063ac <_ZN7IPLayer15handleICMPFrameERK7IPFrame>
 800644e:	e7f8      	b.n	8006442 <_ZN7IPLayer13handleIPFrameER7InFrame+0x22>
    return mTCPLayer.handleFrame(ipFrame);
 8006450:	4669      	mov	r1, sp
 8006452:	f8d4 0620 	ldr.w	r0, [r4, #1568]	@ 0x620
 8006456:	f7fe feeb 	bl	8005230 <_ZN6Layer311handleFrameERK7IPFrame>
 800645a:	e7f2      	b.n	8006442 <_ZN7IPLayer13handleIPFrameER7InFrame+0x22>
    return mUDPLayer.handleFrame(ipFrame);
 800645c:	4669      	mov	r1, sp
 800645e:	f8d4 0624 	ldr.w	r0, [r4, #1572]	@ 0x624
 8006462:	f7fe fee5 	bl	8005230 <_ZN6Layer311handleFrameERK7IPFrame>
 8006466:	e7ec      	b.n	8006442 <_ZN7IPLayer13handleIPFrameER7InFrame+0x22>

08006468 <_ZN7IPLayer11handleFrameER7InFrame>:
{
 8006468:	b538      	push	{r3, r4, r5, lr}
 800646a:	4605      	mov	r5, r0
 800646c:	460c      	mov	r4, r1
    {return mFrameType;}
 800646e:	7e0b      	ldrb	r3, [r1, #24]
  switch(inFrame.getType()) {
 8006470:	2b01      	cmp	r3, #1
 8006472:	d004      	beq.n	800647e <_ZN7IPLayer11handleFrameER7InFrame+0x16>
 8006474:	2b02      	cmp	r3, #2
 8006476:	d00a      	beq.n	800648e <_ZN7IPLayer11handleFrameER7InFrame+0x26>
 8006478:	f06f 0001 	mvn.w	r0, #1
}
 800647c:	bd38      	pop	{r3, r4, r5, pc}
    if (inFrame.isBroadcast()) {
 800647e:	4608      	mov	r0, r1
 8006480:	f7ff fb0a 	bl	8005a98 <_ZNK7InFrame11isBroadcastEv>
    return handleIPFrame(inFrame);
 8006484:	4621      	mov	r1, r4
 8006486:	4628      	mov	r0, r5
 8006488:	f7ff ffca 	bl	8006420 <_ZN7IPLayer13handleIPFrameER7InFrame>
 800648c:	e7f6      	b.n	800647c <_ZN7IPLayer11handleFrameER7InFrame+0x14>
    return mArp.handleArpFrame(inFrame);
 800648e:	f7ff f871 	bl	8005574 <_ZN3Arp14handleArpFrameER7InFrame>
 8006492:	e7f3      	b.n	800647c <_ZN7IPLayer11handleFrameER7InFrame+0x14>

08006494 <_ZN7IPLayer12periodicCallEv>:

// **************************************************************
// periodic call
// **************************************************************
void IPLayer::periodicCall()
{
 8006494:	b508      	push	{r3, lr}
  mArp.periodicCall();
 8006496:	f7fe ff55 	bl	8005344 <_ZN3Arp12periodicCallEv>
}
 800649a:	bd08      	pop	{r3, pc}

0800649c <_ZN7IPLayer10getMacAddrEm>:

// **************************************************************
// mediators
// **************************************************************
const MACAddr& IPLayer::getMacAddr(uint32_t ipAddr)
{
 800649c:	b508      	push	{r3, lr}
  return mArp.getMacAddr(ipAddr);
 800649e:	f7ff f825 	bl	80054ec <_ZN3Arp10getMacAddrEm>
}
 80064a2:	bd08      	pop	{r3, pc}

080064a4 <_ZN7MACAddrC1Ev>:
// **********************************************************************

// **************************************************************
// Constructor
// **************************************************************
MACAddr::MACAddr() : mData(0)
 80064a4:	b430      	push	{r4, r5}
 80064a6:	2400      	movs	r4, #0
 80064a8:	2500      	movs	r5, #0
 80064aa:	e9c0 4500 	strd	r4, r5, [r0]
{
}
 80064ae:	bc30      	pop	{r4, r5}
 80064b0:	4770      	bx	lr

080064b2 <_ZN7MACAddrC1ERKS_>:

// **************************************************************
// Constructor
// **************************************************************
MACAddr::MACAddr(const MACAddr& val) : mData(val.mData)
 80064b2:	e9d1 2300 	ldrd	r2, r3, [r1]
 80064b6:	e9c0 2300 	strd	r2, r3, [r0]
{
}
 80064ba:	4770      	bx	lr

080064bc <_ZN7MACAddrC1EPKc>:

// **************************************************************
// Constructor
// **************************************************************
MACAddr::MACAddr(const char *addr) : mData(0)
 80064bc:	2200      	movs	r2, #0
 80064be:	2300      	movs	r3, #0
 80064c0:	e9c0 2300 	strd	r2, r3, [r0]
{
  if (addr != NULL) {
 80064c4:	b129      	cbz	r1, 80064d2 <_ZN7MACAddrC1EPKc+0x16>
    memcpy (&mData, addr, 6);
 80064c6:	680a      	ldr	r2, [r1, #0]
 80064c8:	6002      	str	r2, [r0, #0]
 80064ca:	888b      	ldrh	r3, [r1, #4]
 80064cc:	8083      	strh	r3, [r0, #4]
    ((char*)&mData)[7] = 1;
 80064ce:	2301      	movs	r3, #1
 80064d0:	71c3      	strb	r3, [r0, #7]
  }
}
 80064d2:	4770      	bx	lr

080064d4 <_ZNK7MACAddr7isEmptyEv>:
// **************************************************************
bool MACAddr::isEmpty() const
{
  const char* base = (const char*)&mData;
  int i;
  for (i=0; i<6; i++) {
 80064d4:	1e43      	subs	r3, r0, #1
 80064d6:	3005      	adds	r0, #5
    if (base[i] != 0) {
 80064d8:	f813 2f01 	ldrb.w	r2, [r3, #1]!
 80064dc:	b91a      	cbnz	r2, 80064e6 <_ZNK7MACAddr7isEmptyEv+0x12>
  for (i=0; i<6; i++) {
 80064de:	4283      	cmp	r3, r0
 80064e0:	d1fa      	bne.n	80064d8 <_ZNK7MACAddr7isEmptyEv+0x4>
      return false;
    }
  }

  return true;
 80064e2:	2001      	movs	r0, #1
 80064e4:	4770      	bx	lr
      return false;
 80064e6:	2000      	movs	r0, #0
}
 80064e8:	4770      	bx	lr

080064ea <_ZneRK7MACAddrS1_>:

// **************************************************************
// Compare operator
// **************************************************************
bool operator!=(const MACAddr& first, const MACAddr& second)
{
 80064ea:	b410      	push	{r4}
  return !(first.equal(second));
 80064ec:	6804      	ldr	r4, [r0, #0]
 80064ee:	6842      	ldr	r2, [r0, #4]
 80064f0:	6808      	ldr	r0, [r1, #0]
 80064f2:	684b      	ldr	r3, [r1, #4]
}
 80064f4:	429a      	cmp	r2, r3
 80064f6:	bf08      	it	eq
 80064f8:	4284      	cmpeq	r4, r0
 80064fa:	bf14      	ite	ne
 80064fc:	2001      	movne	r0, #1
 80064fe:	2000      	moveq	r0, #0
 8006500:	bc10      	pop	{r4}
 8006502:	4770      	bx	lr

08006504 <getMacAddr>:

// **************************************************************
// Global function for all the 'C' sections
// **************************************************************
const char* getMacAddr()
{
 8006504:	b508      	push	{r3, lr}
      {return mGlobalManagement.mPersistentDataCenter;}
 8006506:	4b03      	ldr	r3, [pc, #12]	@ (8006514 <getMacAddr+0x10>)
 8006508:	69d8      	ldr	r0, [r3, #28]
  const MACAddr& myAddr = SystemManagement::getPersistentDataCenter().getMacAddr();
 800650a:	6803      	ldr	r3, [r0, #0]
 800650c:	689b      	ldr	r3, [r3, #8]
 800650e:	4798      	blx	r3
  return myAddr.getAddr();
}
 8006510:	bd08      	pop	{r3, pc}
 8006512:	bf00      	nop
 8006514:	2000abe0 	.word	0x2000abe0

08006518 <_ZN6IPDataC1Ev>:

// **************************************************************
// Constructor
// **************************************************************
IPData::IPData() :
  mAddr(IP_DEFAULT_ADDR),
 8006518:	2200      	movs	r2, #0
 800651a:	6002      	str	r2, [r0, #0]
  mMask(IP_DEFAULT_MASK),
 800651c:	f06f 417f 	mvn.w	r1, #4278190080	@ 0xff000000
 8006520:	6041      	str	r1, [r0, #4]
  mGateway(IP_DEFAULT_GATEWAY)
 8006522:	6082      	str	r2, [r0, #8]
{
}
 8006524:	4770      	bx	lr

08006526 <_ZN6IPData7setDataEmmm>:
// **************************************************************
// Set object data
// **************************************************************
void IPData::setData(uint32_t addr, uint32_t mask, uint32_t gateway)
{
  mAddr = addr;
 8006526:	6001      	str	r1, [r0, #0]
  mMask = mask;
 8006528:	6042      	str	r2, [r0, #4]
  mGateway = gateway;
 800652a:	6083      	str	r3, [r0, #8]
}
 800652c:	4770      	bx	lr

0800652e <_ZNK6IPData11getFirsthopEm>:
  if ((dest == 0) || (dest == 0xFFFFFFFF)){
    return dest;
  }

  return dest;
}
 800652e:	4608      	mov	r0, r1
 8006530:	4770      	bx	lr
	...

08006534 <incAndSetRxIndex>:

// **************************************************************
// initiates a buffer info.
// **************************************************************
void incAndSetRxIndex(unsigned int rxIndex)
{
 8006534:	b580      	push	{r7, lr}
 8006536:	b082      	sub	sp, #8
 8006538:	af00      	add	r7, sp, #0
 800653a:	6078      	str	r0, [r7, #4]
  initInBuffer(rxIndex, 0);  
 800653c:	2100      	movs	r1, #0
 800653e:	6878      	ldr	r0, [r7, #4]
 8006540:	f000 f852 	bl	80065e8 <initInBuffer>
  rxIndex++;
 8006544:	687b      	ldr	r3, [r7, #4]
 8006546:	3301      	adds	r3, #1
 8006548:	607b      	str	r3, [r7, #4]
  if (rxIndex >= IN_BUFFER_COUNT) {
 800654a:	687b      	ldr	r3, [r7, #4]
 800654c:	2b09      	cmp	r3, #9
 800654e:	d901      	bls.n	8006554 <incAndSetRxIndex+0x20>
    rxIndex= 0;
 8006550:	2300      	movs	r3, #0
 8006552:	607b      	str	r3, [r7, #4]
  }
  curInIndex = rxIndex;
 8006554:	4a03      	ldr	r2, [pc, #12]	@ (8006564 <incAndSetRxIndex+0x30>)
 8006556:	687b      	ldr	r3, [r7, #4]
 8006558:	6013      	str	r3, [r2, #0]
}
 800655a:	bf00      	nop
 800655c:	3708      	adds	r7, #8
 800655e:	46bd      	mov	sp, r7
 8006560:	bd80      	pop	{r7, pc}
 8006562:	bf00      	nop
 8006564:	2000abd4 	.word	0x2000abd4

08006568 <initBuffer>:
                void* base,
                unsigned int tableSize,
                unsigned int bufferOffset,
                unsigned long sizeMask,
                unsigned long status)
{
 8006568:	b480      	push	{r7}
 800656a:	b089      	sub	sp, #36	@ 0x24
 800656c:	af00      	add	r7, sp, #0
 800656e:	60f8      	str	r0, [r7, #12]
 8006570:	60b9      	str	r1, [r7, #8]
 8006572:	607a      	str	r2, [r7, #4]
 8006574:	603b      	str	r3, [r7, #0]
  EthernetDMAPacket *thisBuffer = ((EthernetDMAPacket*)base)+bufIndex;
 8006576:	68fb      	ldr	r3, [r7, #12]
 8006578:	011b      	lsls	r3, r3, #4
 800657a:	68ba      	ldr	r2, [r7, #8]
 800657c:	4413      	add	r3, r2
 800657e:	61bb      	str	r3, [r7, #24]
  unsigned int nextIndex = bufIndex+1;
 8006580:	68fb      	ldr	r3, [r7, #12]
 8006582:	3301      	adds	r3, #1
 8006584:	61fb      	str	r3, [r7, #28]
  if (nextIndex >= tableSize) {
 8006586:	69fa      	ldr	r2, [r7, #28]
 8006588:	687b      	ldr	r3, [r7, #4]
 800658a:	429a      	cmp	r2, r3
 800658c:	d301      	bcc.n	8006592 <initBuffer+0x2a>
    nextIndex = 0;
 800658e:	2300      	movs	r3, #0
 8006590:	61fb      	str	r3, [r7, #28]
  }
  EthernetDMAPacket *nextBuffer = ((EthernetDMAPacket*)base)+nextIndex;
 8006592:	69fb      	ldr	r3, [r7, #28]
 8006594:	011b      	lsls	r3, r3, #4
 8006596:	68ba      	ldr	r2, [r7, #8]
 8006598:	4413      	add	r3, r2
 800659a:	617b      	str	r3, [r7, #20]


  thisBuffer->ControlBufferSize = (ETHERNET_MESSAGE_BUFFER_SIZE-ETHERNET_HEADER_PAD) | sizeMask;
 800659c:	6abb      	ldr	r3, [r7, #40]	@ 0x28
 800659e:	f443 63bf 	orr.w	r3, r3, #1528	@ 0x5f8
 80065a2:	f043 0306 	orr.w	r3, r3, #6
 80065a6:	69ba      	ldr	r2, [r7, #24]
 80065a8:	6053      	str	r3, [r2, #4]
  thisBuffer->Buffer1Addr = (uint32_t)messageBuffer + (ETHERNET_MESSAGE_BUFFER_SIZE*(bufIndex+bufferOffset));
 80065aa:	68fa      	ldr	r2, [r7, #12]
 80065ac:	683b      	ldr	r3, [r7, #0]
 80065ae:	441a      	add	r2, r3
 80065b0:	4613      	mov	r3, r2
 80065b2:	005b      	lsls	r3, r3, #1
 80065b4:	4413      	add	r3, r2
 80065b6:	025b      	lsls	r3, r3, #9
 80065b8:	461a      	mov	r2, r3
 80065ba:	4b0a      	ldr	r3, [pc, #40]	@ (80065e4 <initBuffer+0x7c>)
 80065bc:	441a      	add	r2, r3
 80065be:	69bb      	ldr	r3, [r7, #24]
 80065c0:	609a      	str	r2, [r3, #8]
  thisBuffer->Buffer1Addr += ETHERNET_HEADER_PAD;   // use offset for alligning IP data...
 80065c2:	69bb      	ldr	r3, [r7, #24]
 80065c4:	689b      	ldr	r3, [r3, #8]
 80065c6:	1c9a      	adds	r2, r3, #2
 80065c8:	69bb      	ldr	r3, [r7, #24]
 80065ca:	609a      	str	r2, [r3, #8]
  thisBuffer->NextDescAddr = (uint32_t)nextBuffer;
 80065cc:	697a      	ldr	r2, [r7, #20]
 80065ce:	69bb      	ldr	r3, [r7, #24]
 80065d0:	60da      	str	r2, [r3, #12]

  // status must come last - as we might set the OWN bit.
  thisBuffer->Status = status;  
 80065d2:	69bb      	ldr	r3, [r7, #24]
 80065d4:	6afa      	ldr	r2, [r7, #44]	@ 0x2c
 80065d6:	601a      	str	r2, [r3, #0]
}
 80065d8:	bf00      	nop
 80065da:	3724      	adds	r7, #36	@ 0x24
 80065dc:	46bd      	mov	sp, r7
 80065de:	bc80      	pop	{r7}
 80065e0:	4770      	bx	lr
 80065e2:	bf00      	nop
 80065e4:	20005c04 	.word	0x20005c04

080065e8 <initInBuffer>:

// **************************************************************
// initiates an incoming buffer info.
// **************************************************************
void initInBuffer(unsigned int bufIndex, unsigned long statusMask)
{
 80065e8:	b580      	push	{r7, lr}
 80065ea:	b084      	sub	sp, #16
 80065ec:	af02      	add	r7, sp, #8
 80065ee:	6078      	str	r0, [r7, #4]
 80065f0:	6039      	str	r1, [r7, #0]
  statusMask |= ETHERNET_TX_OWN_MASK;      // always return buffers to DMA.
 80065f2:	683b      	ldr	r3, [r7, #0]
 80065f4:	f043 4300 	orr.w	r3, r3, #2147483648	@ 0x80000000
 80065f8:	603b      	str	r3, [r7, #0]
  initBuffer(bufIndex,
 80065fa:	683b      	ldr	r3, [r7, #0]
 80065fc:	9301      	str	r3, [sp, #4]
 80065fe:	f44f 4380 	mov.w	r3, #16384	@ 0x4000
 8006602:	9300      	str	r3, [sp, #0]
 8006604:	2300      	movs	r3, #0
 8006606:	220a      	movs	r2, #10
 8006608:	4903      	ldr	r1, [pc, #12]	@ (8006618 <initInBuffer+0x30>)
 800660a:	6878      	ldr	r0, [r7, #4]
 800660c:	f7ff ffac 	bl	8006568 <initBuffer>
             inPacketBuffers,
             IN_BUFFER_COUNT,   // entries count.
             0,                 // offset in 'buffer'.
             ETHERNET_TX_RCH_MASK, // size mask (chained list)
             statusMask);
}
 8006610:	bf00      	nop
 8006612:	3708      	adds	r7, #8
 8006614:	46bd      	mov	sp, r7
 8006616:	bd80      	pop	{r7, pc}
 8006618:	2000ab04 	.word	0x2000ab04

0800661c <initOutBuffer>:

// **************************************************************
// initiates a transmitting buffer info.
// **************************************************************
void initOutBuffer(unsigned int bufIndex, unsigned long statusMask)
{
 800661c:	b580      	push	{r7, lr}
 800661e:	b084      	sub	sp, #16
 8006620:	af02      	add	r7, sp, #8
 8006622:	6078      	str	r0, [r7, #4]
 8006624:	6039      	str	r1, [r7, #0]
  statusMask |= ETHERNET_TX_TCH_MASK;    // (chaned list)
 8006626:	683b      	ldr	r3, [r7, #0]
 8006628:	f443 1380 	orr.w	r3, r3, #1048576	@ 0x100000
 800662c:	603b      	str	r3, [r7, #0]
  initBuffer(bufIndex,
 800662e:	683b      	ldr	r3, [r7, #0]
 8006630:	9301      	str	r3, [sp, #4]
 8006632:	2300      	movs	r3, #0
 8006634:	9300      	str	r3, [sp, #0]
 8006636:	230a      	movs	r3, #10
 8006638:	2203      	movs	r2, #3
 800663a:	4904      	ldr	r1, [pc, #16]	@ (800664c <initOutBuffer+0x30>)
 800663c:	6878      	ldr	r0, [r7, #4]
 800663e:	f7ff ff93 	bl	8006568 <initBuffer>
             outPacketBuffers,
             OUT_BUFFER_COUNT,  // entries count.
             IN_BUFFER_COUNT,   // offset in 'buffer'.
             0,                 // size mask
             statusMask);
}
 8006642:	bf00      	nop
 8006644:	3708      	adds	r7, #8
 8006646:	46bd      	mov	sp, r7
 8006648:	bd80      	pop	{r7, pc}
 800664a:	bf00      	nop
 800664c:	2000aba4 	.word	0x2000aba4

08006650 <getNextRxPacketIndex>:
// looks for the first packet not owned by the DMA.
// starts at 'curInIndex'
// returns 'IN_BUFFER_COUNT' no message received.
// **************************************************************
unsigned int getNextRxPacketIndex()
{
 8006650:	b480      	push	{r7}
 8006652:	b085      	sub	sp, #20
 8006654:	af00      	add	r7, sp, #0
  EthernetDMAPacket* curInBuffer = inPacketBuffers + curInIndex;
 8006656:	4b1f      	ldr	r3, [pc, #124]	@ (80066d4 <getNextRxPacketIndex+0x84>)
 8006658:	681b      	ldr	r3, [r3, #0]
 800665a:	011b      	lsls	r3, r3, #4
 800665c:	4a1e      	ldr	r2, [pc, #120]	@ (80066d8 <getNextRxPacketIndex+0x88>)
 800665e:	4413      	add	r3, r2
 8006660:	607b      	str	r3, [r7, #4]
  uint32_t curBufStatus = curInBuffer->Status;
 8006662:	687b      	ldr	r3, [r7, #4]
 8006664:	681b      	ldr	r3, [r3, #0]
 8006666:	603b      	str	r3, [r7, #0]
  if (!(curBufStatus & ETHERNET_TX_OWN_MASK)) {
 8006668:	683b      	ldr	r3, [r7, #0]
 800666a:	2b00      	cmp	r3, #0
 800666c:	db02      	blt.n	8006674 <getNextRxPacketIndex+0x24>
    return curInIndex;
 800666e:	4b19      	ldr	r3, [pc, #100]	@ (80066d4 <getNextRxPacketIndex+0x84>)
 8006670:	681b      	ldr	r3, [r3, #0]
 8006672:	e029      	b.n	80066c8 <getNextRxPacketIndex+0x78>
  }

  unsigned int index = curInIndex;
 8006674:	4b17      	ldr	r3, [pc, #92]	@ (80066d4 <getNextRxPacketIndex+0x84>)
 8006676:	681b      	ldr	r3, [r3, #0]
 8006678:	60fb      	str	r3, [r7, #12]
  unsigned int packetCounter = IN_BUFFER_COUNT;
 800667a:	230a      	movs	r3, #10
 800667c:	60bb      	str	r3, [r7, #8]
  for (packetCounter = 0; packetCounter<IN_BUFFER_COUNT; packetCounter++)
 800667e:	2300      	movs	r3, #0
 8006680:	60bb      	str	r3, [r7, #8]
 8006682:	e00d      	b.n	80066a0 <getNextRxPacketIndex+0x50>
  {
    index++;
 8006684:	68fb      	ldr	r3, [r7, #12]
 8006686:	3301      	adds	r3, #1
 8006688:	60fb      	str	r3, [r7, #12]
    if (index >= IN_BUFFER_COUNT) {
 800668a:	68fb      	ldr	r3, [r7, #12]
 800668c:	2b09      	cmp	r3, #9
 800668e:	d901      	bls.n	8006694 <getNextRxPacketIndex+0x44>
      index = 0;
 8006690:	2300      	movs	r3, #0
 8006692:	60fb      	str	r3, [r7, #12]
    }
    //EthernetDMAPacket* thisInBuffer = inPacketBuffers + index;
    //uint32_t thisBufStatus = thisInBuffer->Status;
    if (!(curBufStatus & ETHERNET_TX_OWN_MASK)) {
 8006694:	683b      	ldr	r3, [r7, #0]
 8006696:	2b00      	cmp	r3, #0
 8006698:	da06      	bge.n	80066a8 <getNextRxPacketIndex+0x58>
  for (packetCounter = 0; packetCounter<IN_BUFFER_COUNT; packetCounter++)
 800669a:	68bb      	ldr	r3, [r7, #8]
 800669c:	3301      	adds	r3, #1
 800669e:	60bb      	str	r3, [r7, #8]
 80066a0:	68bb      	ldr	r3, [r7, #8]
 80066a2:	2b09      	cmp	r3, #9
 80066a4:	d9ee      	bls.n	8006684 <getNextRxPacketIndex+0x34>
 80066a6:	e000      	b.n	80066aa <getNextRxPacketIndex+0x5a>
      break;
 80066a8:	bf00      	nop
    }
  }

  if (packetCounter >= IN_BUFFER_COUNT) {
 80066aa:	68bb      	ldr	r3, [r7, #8]
 80066ac:	2b09      	cmp	r3, #9
 80066ae:	d901      	bls.n	80066b4 <getNextRxPacketIndex+0x64>
    // all packets are owned by the DMA
    return IN_BUFFER_COUNT;
 80066b0:	230a      	movs	r3, #10
 80066b2:	e009      	b.n	80066c8 <getNextRxPacketIndex+0x78>
  }

  // at this point we have some packet in list.
  // let the current packet have priority.
  curBufStatus = curInBuffer->Status;
 80066b4:	687b      	ldr	r3, [r7, #4]
 80066b6:	681b      	ldr	r3, [r3, #0]
 80066b8:	603b      	str	r3, [r7, #0]
  if (!(curBufStatus & ETHERNET_TX_OWN_MASK)) {
 80066ba:	683b      	ldr	r3, [r7, #0]
 80066bc:	2b00      	cmp	r3, #0
 80066be:	db02      	blt.n	80066c6 <getNextRxPacketIndex+0x76>
    // message received while we were looping around.
    return curInIndex;
 80066c0:	4b04      	ldr	r3, [pc, #16]	@ (80066d4 <getNextRxPacketIndex+0x84>)
 80066c2:	681b      	ldr	r3, [r3, #0]
 80066c4:	e000      	b.n	80066c8 <getNextRxPacketIndex+0x78>
  }

  // this is actually an error state...
  return index;
 80066c6:	68fb      	ldr	r3, [r7, #12]
}
 80066c8:	4618      	mov	r0, r3
 80066ca:	3714      	adds	r7, #20
 80066cc:	46bd      	mov	sp, r7
 80066ce:	bc80      	pop	{r7}
 80066d0:	4770      	bx	lr
 80066d2:	bf00      	nop
 80066d4:	2000abd4 	.word	0x2000abd4
 80066d8:	2000ab04 	.word	0x2000ab04

080066dc <handleIncomingPackets>:
// if found an inbound message, handle it.
// will handle only a single message.
// returns '0' if no message pending.
// **************************************************************
int handleIncomingPackets()
{
 80066dc:	b580      	push	{r7, lr}
 80066de:	b082      	sub	sp, #8
 80066e0:	af00      	add	r7, sp, #0
  unsigned int rxIndex = getNextRxPacketIndex();
 80066e2:	f7ff ffb5 	bl	8006650 <getNextRxPacketIndex>
 80066e6:	6078      	str	r0, [r7, #4]
  if (rxIndex >= IN_BUFFER_COUNT) {
 80066e8:	687b      	ldr	r3, [r7, #4]
 80066ea:	2b09      	cmp	r3, #9
 80066ec:	d901      	bls.n	80066f2 <handleIncomingPackets+0x16>
    return 0;
 80066ee:	2300      	movs	r3, #0
 80066f0:	e007      	b.n	8006702 <handleIncomingPackets+0x26>
  }

  int retVal = handleIncomingPacket(rxIndex);
 80066f2:	6878      	ldr	r0, [r7, #4]
 80066f4:	f000 f80a 	bl	800670c <handleIncomingPacket>
 80066f8:	6038      	str	r0, [r7, #0]
  incAndSetRxIndex(rxIndex);
 80066fa:	6878      	ldr	r0, [r7, #4]
 80066fc:	f7ff ff1a 	bl	8006534 <incAndSetRxIndex>

  return retVal;
 8006700:	683b      	ldr	r3, [r7, #0]
}
 8006702:	4618      	mov	r0, r3
 8006704:	3708      	adds	r7, #8
 8006706:	46bd      	mov	sp, r7
 8006708:	bd80      	pop	{r7, pc}
	...

0800670c <handleIncomingPacket>:
// process message in 'rxIndex'.
// returns '1' if a single message was processed.
// returns negative on error.
// **************************************************************
int handleIncomingPacket(unsigned int rxIndex)
{
 800670c:	b580      	push	{r7, lr}
 800670e:	b088      	sub	sp, #32
 8006710:	af00      	add	r7, sp, #0
 8006712:	6078      	str	r0, [r7, #4]
#ifdef DEBUG
  // error injection. will loose 1 package of every 'INCOMING_PACKAGE_DROP'
  uint16_t randomNum = get16RandomNumber();
 8006714:	f001 ff62 	bl	80085dc <get16RandomNumber>
 8006718:	4603      	mov	r3, r0
 800671a:	83fb      	strh	r3, [r7, #30]
  if ((RX_PACKAGE_DROP != 0) && ((randomNum % RX_PACKAGE_DROP) == 0)) {
    return 0;
  }
#endif // DEBUG

  EthernetDMAPacket* curInBuffer = inPacketBuffers + rxIndex;
 800671c:	687b      	ldr	r3, [r7, #4]
 800671e:	011b      	lsls	r3, r3, #4
 8006720:	4a28      	ldr	r2, [pc, #160]	@ (80067c4 <handleIncomingPacket+0xb8>)
 8006722:	4413      	add	r3, r2
 8006724:	61bb      	str	r3, [r7, #24]
  uint32_t curBufStatus = curInBuffer->Status;
 8006726:	69bb      	ldr	r3, [r7, #24]
 8006728:	681b      	ldr	r3, [r3, #0]
 800672a:	617b      	str	r3, [r7, #20]

  if (!(curBufStatus & ETHERNET_RX_FS_MASK) ||
 800672c:	697b      	ldr	r3, [r7, #20]
 800672e:	f403 7300 	and.w	r3, r3, #512	@ 0x200
 8006732:	2b00      	cmp	r3, #0
 8006734:	d004      	beq.n	8006740 <handleIncomingPacket+0x34>
      !(curBufStatus & ETHERNET_RX_LS_MASK)) {
 8006736:	697b      	ldr	r3, [r7, #20]
 8006738:	f403 7380 	and.w	r3, r3, #256	@ 0x100
  if (!(curBufStatus & ETHERNET_RX_FS_MASK) ||
 800673c:	2b00      	cmp	r3, #0
 800673e:	d102      	bne.n	8006746 <handleIncomingPacket+0x3a>
    // we handle only single packets.
    return -21;
 8006740:	f06f 0314 	mvn.w	r3, #20
 8006744:	e039      	b.n	80067ba <handleIncomingPacket+0xae>
  }
  if ((curBufStatus & ETHERNET_RX_ES_MASK) ||
 8006746:	697b      	ldr	r3, [r7, #20]
 8006748:	f403 4300 	and.w	r3, r3, #32768	@ 0x8000
 800674c:	2b00      	cmp	r3, #0
 800674e:	d104      	bne.n	800675a <handleIncomingPacket+0x4e>
      (curBufStatus & ETHERNET_RX_DE_MASK)){
 8006750:	697b      	ldr	r3, [r7, #20]
 8006752:	f403 4380 	and.w	r3, r3, #16384	@ 0x4000
  if ((curBufStatus & ETHERNET_RX_ES_MASK) ||
 8006756:	2b00      	cmp	r3, #0
 8006758:	d002      	beq.n	8006760 <handleIncomingPacket+0x54>
    // packets contains some error - ignore it...
    return -22;
 800675a:	f06f 0315 	mvn.w	r3, #21
 800675e:	e02c      	b.n	80067ba <handleIncomingPacket+0xae>
  }

  unsigned int frameLen = (curBufStatus & ETHERNET_RX_FL_MASK) >> 16;
 8006760:	697b      	ldr	r3, [r7, #20]
 8006762:	0c1b      	lsrs	r3, r3, #16
 8006764:	f3c3 030d 	ubfx	r3, r3, #0, #14
 8006768:	613b      	str	r3, [r7, #16]
  if ((frameLen < ETHERNET_MIN_MESSAGE_SIZE) || (frameLen > ETHERNET_MAX_MESSAGE_SIZE)) {
 800676a:	693b      	ldr	r3, [r7, #16]
 800676c:	2b27      	cmp	r3, #39	@ 0x27
 800676e:	d903      	bls.n	8006778 <handleIncomingPacket+0x6c>
 8006770:	693b      	ldr	r3, [r7, #16]
 8006772:	f5b3 6fbe 	cmp.w	r3, #1520	@ 0x5f0
 8006776:	d902      	bls.n	800677e <handleIncomingPacket+0x72>
    // packet too small/large.
    return -23;
 8006778:	f06f 0316 	mvn.w	r3, #22
 800677c:	e01d      	b.n	80067ba <handleIncomingPacket+0xae>
  }
  
    if ((curBufStatus & ETHERNET_RX_LE_MASK) &&
 800677e:	697b      	ldr	r3, [r7, #20]
 8006780:	f403 5380 	and.w	r3, r3, #4096	@ 0x1000
 8006784:	2b00      	cmp	r3, #0
 8006786:	d007      	beq.n	8006798 <handleIncomingPacket+0x8c>
        !(curBufStatus & ETHERNET_RX_FT_MASK)) {
 8006788:	697b      	ldr	r3, [r7, #20]
 800678a:	f003 0320 	and.w	r3, r3, #32
    if ((curBufStatus & ETHERNET_RX_LE_MASK) &&
 800678e:	2b00      	cmp	r3, #0
 8006790:	d102      	bne.n	8006798 <handleIncomingPacket+0x8c>
    //"Length error"
    return -25;
 8006792:	f06f 0318 	mvn.w	r3, #24
 8006796:	e010      	b.n	80067ba <handleIncomingPacket+0xae>
  }

  const char* messageBase = messageBuffer +
                            (ETHERNET_MESSAGE_BUFFER_SIZE*rxIndex) +
 8006798:	687a      	ldr	r2, [r7, #4]
 800679a:	4613      	mov	r3, r2
 800679c:	005b      	lsls	r3, r3, #1
 800679e:	4413      	add	r3, r2
 80067a0:	025b      	lsls	r3, r3, #9
 80067a2:	3302      	adds	r3, #2
  const char* messageBase = messageBuffer +
 80067a4:	4a08      	ldr	r2, [pc, #32]	@ (80067c8 <handleIncomingPacket+0xbc>)
 80067a6:	4413      	add	r3, r2
 80067a8:	60fb      	str	r3, [r7, #12]
                            ETHERNET_HEADER_PAD;
  // remove CRC trailer length.
  frameLen -= ETHERNET_CRC_LEN;
 80067aa:	693b      	ldr	r3, [r7, #16]
 80067ac:	3b04      	subs	r3, #4
 80067ae:	613b      	str	r3, [r7, #16]
  return processEthernetMsg(messageBase, frameLen);
 80067b0:	6939      	ldr	r1, [r7, #16]
 80067b2:	68f8      	ldr	r0, [r7, #12]
 80067b4:	f7ff f946 	bl	8005a44 <processEthernetMsg>
 80067b8:	4603      	mov	r3, r0
}
 80067ba:	4618      	mov	r0, r3
 80067bc:	3720      	adds	r7, #32
 80067be:	46bd      	mov	sp, r7
 80067c0:	bd80      	pop	{r7, pc}
 80067c2:	bf00      	nop
 80067c4:	2000ab04 	.word	0x2000ab04
 80067c8:	20005c04 	.word	0x20005c04

080067cc <initializeTransmitBuffers>:

// **************************************************************
// initializes list of transmition buffers
// **************************************************************
int initializeTransmitBuffers()
{
 80067cc:	b580      	push	{r7, lr}
 80067ce:	b082      	sub	sp, #8
 80067d0:	af00      	add	r7, sp, #0
  unsigned int i;
  for (i=0; i<OUT_BUFFER_COUNT; i++) {
 80067d2:	2300      	movs	r3, #0
 80067d4:	607b      	str	r3, [r7, #4]
 80067d6:	e007      	b.n	80067e8 <initializeTransmitBuffers+0x1c>
    initOutBuffer(i, ETHERNET_TX_TCH_MASK);
 80067d8:	f44f 1180 	mov.w	r1, #1048576	@ 0x100000
 80067dc:	6878      	ldr	r0, [r7, #4]
 80067de:	f7ff ff1d 	bl	800661c <initOutBuffer>
  for (i=0; i<OUT_BUFFER_COUNT; i++) {
 80067e2:	687b      	ldr	r3, [r7, #4]
 80067e4:	3301      	adds	r3, #1
 80067e6:	607b      	str	r3, [r7, #4]
 80067e8:	687b      	ldr	r3, [r7, #4]
 80067ea:	2b02      	cmp	r3, #2
 80067ec:	d9f4      	bls.n	80067d8 <initializeTransmitBuffers+0xc>
  }
  //the actual data buffers address initialized to "0"
  curOutIndex = 0;
 80067ee:	4b06      	ldr	r3, [pc, #24]	@ (8006808 <initializeTransmitBuffers+0x3c>)
 80067f0:	2200      	movs	r2, #0
 80067f2:	601a      	str	r2, [r3, #0]
  ETH->DMATDLAR = (uint32_t) outPacketBuffers;
 80067f4:	4a05      	ldr	r2, [pc, #20]	@ (800680c <initializeTransmitBuffers+0x40>)
 80067f6:	4b06      	ldr	r3, [pc, #24]	@ (8006810 <initializeTransmitBuffers+0x44>)
 80067f8:	f502 5280 	add.w	r2, r2, #4096	@ 0x1000
 80067fc:	6113      	str	r3, [r2, #16]
 
  return 0;
 80067fe:	2300      	movs	r3, #0
}
 8006800:	4618      	mov	r0, r3
 8006802:	3708      	adds	r7, #8
 8006804:	46bd      	mov	sp, r7
 8006806:	bd80      	pop	{r7, pc}
 8006808:	2000abd8 	.word	0x2000abd8
 800680c:	40028000 	.word	0x40028000
 8006810:	2000aba4 	.word	0x2000aba4

08006814 <initializeReceiveBuffers>:

// **************************************************************
// initializes list of receiving buffers
// **************************************************************
int initializeReceiveBuffers()
{
 8006814:	b580      	push	{r7, lr}
 8006816:	b082      	sub	sp, #8
 8006818:	af00      	add	r7, sp, #0
  unsigned int i;
  for (i=0; i<IN_BUFFER_COUNT; i++) {
 800681a:	2300      	movs	r3, #0
 800681c:	607b      	str	r3, [r7, #4]
 800681e:	e006      	b.n	800682e <initializeReceiveBuffers+0x1a>
    initInBuffer(i, 0);
 8006820:	2100      	movs	r1, #0
 8006822:	6878      	ldr	r0, [r7, #4]
 8006824:	f7ff fee0 	bl	80065e8 <initInBuffer>
  for (i=0; i<IN_BUFFER_COUNT; i++) {
 8006828:	687b      	ldr	r3, [r7, #4]
 800682a:	3301      	adds	r3, #1
 800682c:	607b      	str	r3, [r7, #4]
 800682e:	687b      	ldr	r3, [r7, #4]
 8006830:	2b09      	cmp	r3, #9
 8006832:	d9f5      	bls.n	8006820 <initializeReceiveBuffers+0xc>
  }
  //the actual data buffers address initialized to "0"
  curInIndex = 0;
 8006834:	4b06      	ldr	r3, [pc, #24]	@ (8006850 <initializeReceiveBuffers+0x3c>)
 8006836:	2200      	movs	r2, #0
 8006838:	601a      	str	r2, [r3, #0]
  ETH->DMARDLAR = (uint32_t) inPacketBuffers;
 800683a:	4a06      	ldr	r2, [pc, #24]	@ (8006854 <initializeReceiveBuffers+0x40>)
 800683c:	4b06      	ldr	r3, [pc, #24]	@ (8006858 <initializeReceiveBuffers+0x44>)
 800683e:	f502 5280 	add.w	r2, r2, #4096	@ 0x1000
 8006842:	60d3      	str	r3, [r2, #12]

  return 0;
 8006844:	2300      	movs	r3, #0
}
 8006846:	4618      	mov	r0, r3
 8006848:	3708      	adds	r7, #8
 800684a:	46bd      	mov	sp, r7
 800684c:	bd80      	pop	{r7, pc}
 800684e:	bf00      	nop
 8006850:	2000abd4 	.word	0x2000abd4
 8006854:	40028000 	.word	0x40028000
 8006858:	2000ab04 	.word	0x2000ab04

0800685c <getFreeOutPacket>:
// a function for getting next outbound free buffer.
// If no buffer is free, wait at least 10 msec. If buffer is still not
// free, return NULL.
// **************************************************************
char* getFreeOutPacket()
{
 800685c:	b480      	push	{r7}
 800685e:	b085      	sub	sp, #20
 8006860:	af00      	add	r7, sp, #0
  EthernetDMAPacket* curOutBuffer = outPacketBuffers + curOutIndex;
 8006862:	4b11      	ldr	r3, [pc, #68]	@ (80068a8 <getFreeOutPacket+0x4c>)
 8006864:	681b      	ldr	r3, [r3, #0]
 8006866:	011b      	lsls	r3, r3, #4
 8006868:	4a10      	ldr	r2, [pc, #64]	@ (80068ac <getFreeOutPacket+0x50>)
 800686a:	4413      	add	r3, r2
 800686c:	60fb      	str	r3, [r7, #12]
  uint32_t curBufStatus = curOutBuffer->Status;
 800686e:	68fb      	ldr	r3, [r7, #12]
 8006870:	681b      	ldr	r3, [r3, #0]
 8006872:	60bb      	str	r3, [r7, #8]

  if (curBufStatus & ETH_DMATxDesc_OWN) {
 8006874:	68bb      	ldr	r3, [r7, #8]
 8006876:	2b00      	cmp	r3, #0
 8006878:	da01      	bge.n	800687e <getFreeOutPacket+0x22>
    return NULL;
 800687a:	2300      	movs	r3, #0
 800687c:	e00e      	b.n	800689c <getFreeOutPacket+0x40>
  }

  char* base = messageBuffer + (ETHERNET_MESSAGE_BUFFER_SIZE*(curOutIndex+IN_BUFFER_COUNT));
 800687e:	4b0a      	ldr	r3, [pc, #40]	@ (80068a8 <getFreeOutPacket+0x4c>)
 8006880:	681a      	ldr	r2, [r3, #0]
 8006882:	4613      	mov	r3, r2
 8006884:	005b      	lsls	r3, r3, #1
 8006886:	4413      	add	r3, r2
 8006888:	025b      	lsls	r3, r3, #9
 800688a:	f503 5370 	add.w	r3, r3, #15360	@ 0x3c00
 800688e:	4a08      	ldr	r2, [pc, #32]	@ (80068b0 <getFreeOutPacket+0x54>)
 8006890:	4413      	add	r3, r2
 8006892:	607b      	str	r3, [r7, #4]
  base += ETHERNET_HEADER_PAD;   // use offset for alligning IP data...
 8006894:	687b      	ldr	r3, [r7, #4]
 8006896:	3302      	adds	r3, #2
 8006898:	607b      	str	r3, [r7, #4]
  return base;
 800689a:	687b      	ldr	r3, [r7, #4]
}
 800689c:	4618      	mov	r0, r3
 800689e:	3714      	adds	r7, #20
 80068a0:	46bd      	mov	sp, r7
 80068a2:	bc80      	pop	{r7}
 80068a4:	4770      	bx	lr
 80068a6:	bf00      	nop
 80068a8:	2000abd8 	.word	0x2000abd8
 80068ac:	2000aba4 	.word	0x2000aba4
 80068b0:	20005c04 	.word	0x20005c04

080068b4 <ethernetSendPacket>:

// **************************************************************
// Notifies the DMA that we have a new ethernet package to send.
// **************************************************************
static void ethernetSendPacket()
{
 80068b4:	b480      	push	{r7}
 80068b6:	af00      	add	r7, sp, #0
  
  // When Tx Buffer unavailable flag is set: clear it and resume transmission
  if ((ETH->DMASR & ETH_DMASR_TBUS) != (uint32_t)RESET)
 80068b8:	4b0b      	ldr	r3, [pc, #44]	@ (80068e8 <ethernetSendPacket+0x34>)
 80068ba:	f503 5380 	add.w	r3, r3, #4096	@ 0x1000
 80068be:	695b      	ldr	r3, [r3, #20]
 80068c0:	f003 0304 	and.w	r3, r3, #4
 80068c4:	2b00      	cmp	r3, #0
 80068c6:	d005      	beq.n	80068d4 <ethernetSendPacket+0x20>
  {
    // Clear TBUS ETHERNET DMA flag
    ETH->DMASR = ETH_DMASR_TBUS;
 80068c8:	4b07      	ldr	r3, [pc, #28]	@ (80068e8 <ethernetSendPacket+0x34>)
 80068ca:	f503 5380 	add.w	r3, r3, #4096	@ 0x1000
 80068ce:	461a      	mov	r2, r3
 80068d0:	2304      	movs	r3, #4
 80068d2:	6153      	str	r3, [r2, #20]
  }
  
  // Resume DMA transmission
  ETH->DMATPDR = 0;
 80068d4:	4b04      	ldr	r3, [pc, #16]	@ (80068e8 <ethernetSendPacket+0x34>)
 80068d6:	f503 5380 	add.w	r3, r3, #4096	@ 0x1000
 80068da:	461a      	mov	r2, r3
 80068dc:	2300      	movs	r3, #0
 80068de:	6053      	str	r3, [r2, #4]
}
 80068e0:	bf00      	nop
 80068e2:	46bd      	mov	sp, r7
 80068e4:	bc80      	pop	{r7}
 80068e6:	4770      	bx	lr
 80068e8:	40028000 	.word	0x40028000

080068ec <sendCurOutPacket>:

// **************************************************************
// a function for sending out current buffer.
// **************************************************************
int sendCurOutPacket(char* base, uint32_t frameLen)
{
 80068ec:	b580      	push	{r7, lr}
 80068ee:	b084      	sub	sp, #16
 80068f0:	af00      	add	r7, sp, #0
 80068f2:	6078      	str	r0, [r7, #4]
 80068f4:	6039      	str	r1, [r7, #0]
  EthernetDMAPacket* curOutBuffer = outPacketBuffers + curOutIndex;
 80068f6:	4b14      	ldr	r3, [pc, #80]	@ (8006948 <sendCurOutPacket+0x5c>)
 80068f8:	681b      	ldr	r3, [r3, #0]
 80068fa:	011b      	lsls	r3, r3, #4
 80068fc:	4a13      	ldr	r2, [pc, #76]	@ (800694c <sendCurOutPacket+0x60>)
 80068fe:	4413      	add	r3, r2
 8006900:	60bb      	str	r3, [r7, #8]
  //uint32_t curBufStatus = curOutBuffer->Status;

  unsigned int nextOutIndex = curOutIndex+1;
 8006902:	4b11      	ldr	r3, [pc, #68]	@ (8006948 <sendCurOutPacket+0x5c>)
 8006904:	681b      	ldr	r3, [r3, #0]
 8006906:	3301      	adds	r3, #1
 8006908:	60fb      	str	r3, [r7, #12]
  if (nextOutIndex >= OUT_BUFFER_COUNT) {
 800690a:	68fb      	ldr	r3, [r7, #12]
 800690c:	2b02      	cmp	r3, #2
 800690e:	d901      	bls.n	8006914 <sendCurOutPacket+0x28>
    nextOutIndex = 0;
 8006910:	2300      	movs	r3, #0
 8006912:	60fb      	str	r3, [r7, #12]
  }

  // prepare transmition buffer.
  curOutBuffer->NextDescAddr = (uint32_t)(outPacketBuffers + nextOutIndex);
 8006914:	68fb      	ldr	r3, [r7, #12]
 8006916:	011b      	lsls	r3, r3, #4
 8006918:	4a0c      	ldr	r2, [pc, #48]	@ (800694c <sendCurOutPacket+0x60>)
 800691a:	4413      	add	r3, r2
 800691c:	461a      	mov	r2, r3
 800691e:	68bb      	ldr	r3, [r7, #8]
 8006920:	60da      	str	r2, [r3, #12]
  curOutBuffer->ControlBufferSize = frameLen;
 8006922:	68bb      	ldr	r3, [r7, #8]
 8006924:	683a      	ldr	r2, [r7, #0]
 8006926:	605a      	str	r2, [r3, #4]
  curOutBuffer->Buffer1Addr = (uint32_t)base;
 8006928:	687a      	ldr	r2, [r7, #4]
 800692a:	68bb      	ldr	r3, [r7, #8]
 800692c:	609a      	str	r2, [r3, #8]
  curOutBuffer->Status = (ETH_DMATxDesc_OWN |
 800692e:	68bb      	ldr	r3, [r7, #8]
 8006930:	4a07      	ldr	r2, [pc, #28]	@ (8006950 <sendCurOutPacket+0x64>)
 8006932:	601a      	str	r2, [r3, #0]
                          ETH_DMATxDesc_LS |
                          ETH_DMATxDesc_FS |
                          ETH_DMATxDesc_TCH);

  // update the transmition buffer index
  curOutIndex = nextOutIndex;
 8006934:	4a04      	ldr	r2, [pc, #16]	@ (8006948 <sendCurOutPacket+0x5c>)
 8006936:	68fb      	ldr	r3, [r7, #12]
 8006938:	6013      	str	r3, [r2, #0]
  // give the transmitter a hint, just in case it fell asleep...
  ethernetSendPacket();
 800693a:	f7ff ffbb 	bl	80068b4 <ethernetSendPacket>

  return 0;
 800693e:	2300      	movs	r3, #0
}
 8006940:	4618      	mov	r0, r3
 8006942:	3710      	adds	r7, #16
 8006944:	46bd      	mov	sp, r7
 8006946:	bd80      	pop	{r7, pc}
 8006948:	2000abd8 	.word	0x2000abd8
 800694c:	2000aba4 	.word	0x2000aba4
 8006950:	b0100000 	.word	0xb0100000

08006954 <_ZNK13UDPConnection10getOtherIPEv>:
  virtual int handleIncomingMsg(uint32_t srcIP, uint32_t dstIP,
                                const unsigned char* msgBase,
                                unsigned int msgLen);
  virtual void periodicCall();
  virtual bool isClosed() const;
  virtual uint32_t getOtherIP() const {return mTargetIP;}
 8006954:	6900      	ldr	r0, [r0, #16]
 8006956:	4770      	bx	lr

08006958 <_ZNK13UDPConnection8isClosedEv>:
// **************************************************************
// Tests whether connection is closed
// **************************************************************
bool UDPConnection::isClosed() const
{
  return !mObjectOpen;
 8006958:	7f00      	ldrb	r0, [r0, #28]
}
 800695a:	f080 0001 	eor.w	r0, r0, #1
 800695e:	4770      	bx	lr

08006960 <_ZN13UDPConnection17handleIncomingMsgEmmPKhj>:
{
 8006960:	e92d 41f0 	stmdb	sp!, {r4, r5, r6, r7, r8, lr}
 8006964:	b084      	sub	sp, #16
 8006966:	4604      	mov	r4, r0
 8006968:	460d      	mov	r5, r1
 800696a:	4617      	mov	r7, r2
 800696c:	461e      	mov	r6, r3
 800696e:	f8dd 8028 	ldr.w	r8, [sp, #40]	@ 0x28
  if (isClosed()) {
 8006972:	6803      	ldr	r3, [r0, #0]
 8006974:	689b      	ldr	r3, [r3, #8]
 8006976:	4798      	blx	r3
 8006978:	bb20      	cbnz	r0, 80069c4 <_ZN13UDPConnection17handleIncomingMsgEmmPKhj+0x64>
  if (srcIP == 0) {
 800697a:	b335      	cbz	r5, 80069ca <_ZN13UDPConnection17handleIncomingMsgEmmPKhj+0x6a>
  if (msgLen < 8) {
 800697c:	f1b8 0f07 	cmp.w	r8, #7
 8006980:	d926      	bls.n	80069d0 <_ZN13UDPConnection17handleIncomingMsgEmmPKhj+0x70>
  UDPHeaderData udpHeader(msgBase, srcIP, dstIP, msgLen);
 8006982:	f8cd 8000 	str.w	r8, [sp]
 8006986:	463b      	mov	r3, r7
 8006988:	462a      	mov	r2, r5
 800698a:	4631      	mov	r1, r6
 800698c:	a802      	add	r0, sp, #8
 800698e:	f000 f8b6 	bl	8006afe <_ZN13UDPHeaderDataC1EPKhmmj>
  if (udpHeader.mTargetSocket == 0) {
 8006992:	f8bd 300a 	ldrh.w	r3, [sp, #10]
 8006996:	b1f3      	cbz	r3, 80069d6 <_ZN13UDPConnection17handleIncomingMsgEmmPKhj+0x76>
  if (udpHeader.mTargetSocket != mMySocket) {
 8006998:	89a2      	ldrh	r2, [r4, #12]
 800699a:	429a      	cmp	r2, r3
 800699c:	d11e      	bne.n	80069dc <_ZN13UDPConnection17handleIncomingMsgEmmPKhj+0x7c>
  unsigned int freeSpace = mBuffers.getInBuffer().getFreeSize();
 800699e:	69a0      	ldr	r0, [r4, #24]
 80069a0:	f7fe fa20 	bl	8004de4 <_ZNK6Buffer11getFreeSizeEv>
  if (udpHeader.mMsgLen > freeSpace) {
 80069a4:	9a03      	ldr	r2, [sp, #12]
 80069a6:	4282      	cmp	r2, r0
 80069a8:	d81b      	bhi.n	80069e2 <_ZN13UDPConnection17handleIncomingMsgEmmPKhj+0x82>
  LastRecievedSocket = udpHeader.mSourceSocket;
 80069aa:	f8bd 3008 	ldrh.w	r3, [sp, #8]
 80069ae:	80a3      	strh	r3, [r4, #4]
  LastRecievedIP = srcIP;
 80069b0:	60a5      	str	r5, [r4, #8]
  return mBuffers.getInBuffer().writeBlock(dataBase,
 80069b2:	3a08      	subs	r2, #8
 80069b4:	f106 0108 	add.w	r1, r6, #8
 80069b8:	69a0      	ldr	r0, [r4, #24]
 80069ba:	f7fe fadd 	bl	8004f78 <_ZN6Buffer10writeBlockEPKvj>
}
 80069be:	b004      	add	sp, #16
 80069c0:	e8bd 81f0 	ldmia.w	sp!, {r4, r5, r6, r7, r8, pc}
    return -3;
 80069c4:	f06f 0002 	mvn.w	r0, #2
 80069c8:	e7f9      	b.n	80069be <_ZN13UDPConnection17handleIncomingMsgEmmPKhj+0x5e>
    return -1;
 80069ca:	f04f 30ff 	mov.w	r0, #4294967295
 80069ce:	e7f6      	b.n	80069be <_ZN13UDPConnection17handleIncomingMsgEmmPKhj+0x5e>
    return -6;
 80069d0:	f06f 0005 	mvn.w	r0, #5
 80069d4:	e7f3      	b.n	80069be <_ZN13UDPConnection17handleIncomingMsgEmmPKhj+0x5e>
    return -2;
 80069d6:	f06f 0001 	mvn.w	r0, #1
 80069da:	e7f0      	b.n	80069be <_ZN13UDPConnection17handleIncomingMsgEmmPKhj+0x5e>
    return -4;
 80069dc:	f06f 0003 	mvn.w	r0, #3
 80069e0:	e7ed      	b.n	80069be <_ZN13UDPConnection17handleIncomingMsgEmmPKhj+0x5e>
    return -5;
 80069e2:	f06f 0004 	mvn.w	r0, #4
 80069e6:	e7ea      	b.n	80069be <_ZN13UDPConnection17handleIncomingMsgEmmPKhj+0x5e>

080069e8 <_ZN13UDPConnectionC1ER19BidirectionalBufferR6Layer3>:
UDPConnection::UDPConnection(BidirectionalBuffer& buffer,
 80069e8:	b410      	push	{r4}
  mObjectOpen(false)
 80069ea:	4c06      	ldr	r4, [pc, #24]	@ (8006a04 <_ZN13UDPConnectionC1ER19BidirectionalBufferR6Layer3+0x1c>)
 80069ec:	6004      	str	r4, [r0, #0]
  mMySocket(0),
 80069ee:	f04f 0c00 	mov.w	ip, #0
 80069f2:	f8a0 c00c 	strh.w	ip, [r0, #12]
  mUDPLayer(udpLayer),
 80069f6:	6142      	str	r2, [r0, #20]
  mBuffers(buffer),
 80069f8:	6181      	str	r1, [r0, #24]
  mObjectOpen(false)
 80069fa:	f880 c01c 	strb.w	ip, [r0, #28]
}
 80069fe:	bc10      	pop	{r4}
 8006a00:	4770      	bx	lr
 8006a02:	bf00      	nop
 8006a04:	0800c698 	.word	0x0800c698

08006a08 <_ZN13UDPConnection11closeObjectEv>:
// **************************************************************
// Marks object as closed
// **************************************************************
void UDPConnection::closeObject()
{
  mObjectOpen = false;
 8006a08:	2300      	movs	r3, #0
 8006a0a:	7703      	strb	r3, [r0, #28]

  if (mMySocket != 0) {
 8006a0c:	8981      	ldrh	r1, [r0, #12]
 8006a0e:	b901      	cbnz	r1, 8006a12 <_ZN13UDPConnection11closeObjectEv+0xa>
 8006a10:	4770      	bx	lr
{
 8006a12:	b510      	push	{r4, lr}
 8006a14:	4604      	mov	r4, r0
    mUDPLayer.removeListener(mMySocket);
 8006a16:	6940      	ldr	r0, [r0, #20]
 8006a18:	f7fe fbc4 	bl	80051a4 <_ZN6Layer314removeListenerEt>
    mMySocket = 0;
 8006a1c:	2300      	movs	r3, #0
 8006a1e:	81a3      	strh	r3, [r4, #12]
  }
}
 8006a20:	bd10      	pop	{r4, pc}

08006a22 <_ZN13UDPConnection10openObjectEttm>:
// Marks object as opened
// **************************************************************
void UDPConnection::openObject(uint16_t mySocket,
                               uint16_t targetSocket,
                               uint32_t targetIP)
{
 8006a22:	b5f8      	push	{r3, r4, r5, r6, r7, lr}
 8006a24:	461e      	mov	r6, r3
  if ((mObjectOpen) || (mySocket == 0)) {
 8006a26:	7f03      	ldrb	r3, [r0, #28]
 8006a28:	b953      	cbnz	r3, 8006a40 <_ZN13UDPConnection10openObjectEttm+0x1e>
 8006a2a:	4604      	mov	r4, r0
 8006a2c:	460d      	mov	r5, r1
 8006a2e:	4617      	mov	r7, r2
 8006a30:	b131      	cbz	r1, 8006a40 <_ZN13UDPConnection10openObjectEttm+0x1e>
    return;
  }

// allow invalid targets - that way we handle only incoming messages.
  if (targetSocket == 0) {
    targetIP = 0;
 8006a32:	2a00      	cmp	r2, #0
 8006a34:	bf08      	it	eq
 8006a36:	2600      	moveq	r6, #0
  }

  if (mUDPLayer.hasConnection(mySocket)) {
 8006a38:	6940      	ldr	r0, [r0, #20]
 8006a3a:	f7fe fc1b 	bl	8005274 <_ZN6Layer313hasConnectionEt>
 8006a3e:	b100      	cbz	r0, 8006a42 <_ZN13UDPConnection10openObjectEttm+0x20>
  mMySocket = mySocket;
  mTargetSocket = targetSocket;
  mTargetIP = targetIP;
  mUDPLayer.addListener(mySocket, this);
  mObjectOpen = true;
}
 8006a40:	bdf8      	pop	{r3, r4, r5, r6, r7, pc}
  mMySocket = mySocket;
 8006a42:	81a5      	strh	r5, [r4, #12]
  mTargetSocket = targetSocket;
 8006a44:	81e7      	strh	r7, [r4, #14]
  mTargetIP = targetIP;
 8006a46:	6126      	str	r6, [r4, #16]
  mUDPLayer.addListener(mySocket, this);
 8006a48:	4622      	mov	r2, r4
 8006a4a:	4629      	mov	r1, r5
 8006a4c:	6960      	ldr	r0, [r4, #20]
 8006a4e:	f7fe fc23 	bl	8005298 <_ZN6Layer311addListenerEtP16Layer3Connection>
  mObjectOpen = true;
 8006a52:	2301      	movs	r3, #1
 8006a54:	7723      	strb	r3, [r4, #28]
 8006a56:	e7f3      	b.n	8006a40 <_ZN13UDPConnection10openObjectEttm+0x1e>

08006a58 <_ZN13UDPConnection14sendUDPMessageEv>:

// **************************************************************
// Sends buffered data to target computer
// **************************************************************
void UDPConnection::sendUDPMessage()
{
 8006a58:	b530      	push	{r4, r5, lr}
 8006a5a:	b089      	sub	sp, #36	@ 0x24
 8006a5c:	4604      	mov	r4, r0
  void reset();                         // not multithreaded safe!

  void advanceReadTop();

  Buffer& getInBuffer() {return mBufferIn;}
  Buffer& getOutBuffer() {return mBufferOut;}
 8006a5e:	6980      	ldr	r0, [r0, #24]
  unsigned int dataLen = mBuffers.getOutBuffer().getDataSize();
 8006a60:	3010      	adds	r0, #16
 8006a62:	f7fe f9da 	bl	8004e1a <_ZNK6Buffer11getDataSizeEv>
  if (dataLen > MAX_LAYER3_MESSAGE) {
 8006a66:	f5b0 7f00 	cmp.w	r0, #512	@ 0x200
 8006a6a:	d802      	bhi.n	8006a72 <_ZN13UDPConnection14sendUDPMessageEv+0x1a>
 8006a6c:	4605      	mov	r5, r0
    dataLen = MAX_LAYER3_MESSAGE;
  }

  if (dataLen == 0) {
 8006a6e:	b910      	cbnz	r0, 8006a76 <_ZN13UDPConnection14sendUDPMessageEv+0x1e>
 8006a70:	e030      	b.n	8006ad4 <_ZN13UDPConnection14sendUDPMessageEv+0x7c>
    dataLen = MAX_LAYER3_MESSAGE;
 8006a72:	f44f 7500 	mov.w	r5, #512	@ 0x200
    // just in case
    return;
  }

  // if no valid target, just flush buffer
  if (mTargetIP == 0) {
 8006a76:	6923      	ldr	r3, [r4, #16]
 8006a78:	b30b      	cbz	r3, 8006abe <_ZN13UDPConnection14sendUDPMessageEv+0x66>
    mBuffers.getOutBuffer().advanceRead(dataLen);
  }

  // prepares message
  UDPHeaderData headerData(mMySocket,                                  // source socket
                           mTargetSocket);                             // target socket
 8006a7a:	89e2      	ldrh	r2, [r4, #14]
 8006a7c:	89a1      	ldrh	r1, [r4, #12]
 8006a7e:	a806      	add	r0, sp, #24
 8006a80:	f000 f85f 	bl	8006b42 <_ZN13UDPHeaderDataC1Ett>
  bool hasConnection(uint16_t targetSocket);

  bool addListener(uint16_t socket, Layer3Connection* connection);
  bool removeListener(uint16_t socket);

  CommunicationCenter& getCommunicationCenter() {return mCommunicationCenter;}
 8006a84:	6963      	ldr	r3, [r4, #20]
  OutUDPMsg answer(mTargetIP, headerData, mUDPLayer.getCommunicationCenter());
 8006a86:	6e5b      	ldr	r3, [r3, #100]	@ 0x64
 8006a88:	aa06      	add	r2, sp, #24
 8006a8a:	6921      	ldr	r1, [r4, #16]
 8006a8c:	4668      	mov	r0, sp
 8006a8e:	f000 f873 	bl	8006b78 <_ZN9OutUDPMsgC1EmRK13UDPHeaderDataR19CommunicationCenter>
 8006a92:	69a1      	ldr	r1, [r4, #24]
  answer.appendData(mBuffers.getOutBuffer(), dataLen);
 8006a94:	462a      	mov	r2, r5
 8006a96:	3110      	adds	r1, #16
 8006a98:	4668      	mov	r0, sp
 8006a9a:	f000 f88b 	bl	8006bb4 <_ZN9OutUDPMsg10appendDataERK6Bufferj>

  // sends message and updates the output buffer that message was sent
  if (answer.sendMsg() > 0) {
 8006a9e:	4668      	mov	r0, sp
 8006aa0:	f000 f8ad 	bl	8006bfe <_ZN9OutUDPMsg7sendMsgEv>
 8006aa4:	2800      	cmp	r0, #0
 8006aa6:	dc10      	bgt.n	8006aca <_ZN13UDPConnection14sendUDPMessageEv+0x72>
      {return ((mGlobalManagement.mState & SYSTEM_EXECUTE_ONESHOTS) != 0);}
 8006aa8:	4b0b      	ldr	r3, [pc, #44]	@ (8006ad8 <_ZN13UDPConnection14sendUDPMessageEv+0x80>)
 8006aaa:	695b      	ldr	r3, [r3, #20]
    mBuffers.getOutBuffer().advanceRead(dataLen);
  }
  else if (!SystemManagement::oneshotsPending()) {
 8006aac:	f013 0f02 	tst.w	r3, #2
 8006ab0:	d110      	bne.n	8006ad4 <_ZN13UDPConnection14sendUDPMessageEv+0x7c>
 8006ab2:	69a0      	ldr	r0, [r4, #24]
    // leave system some time to warm up before starting to discard data.
    mBuffers.getOutBuffer().advanceRead(dataLen);
 8006ab4:	4629      	mov	r1, r5
 8006ab6:	3010      	adds	r0, #16
 8006ab8:	f7fe fb00 	bl	80050bc <_ZN6Buffer11advanceReadEj>
 8006abc:	e00a      	b.n	8006ad4 <_ZN13UDPConnection14sendUDPMessageEv+0x7c>
 8006abe:	69a0      	ldr	r0, [r4, #24]
    mBuffers.getOutBuffer().advanceRead(dataLen);
 8006ac0:	4629      	mov	r1, r5
 8006ac2:	3010      	adds	r0, #16
 8006ac4:	f7fe fafa 	bl	80050bc <_ZN6Buffer11advanceReadEj>
 8006ac8:	e7d7      	b.n	8006a7a <_ZN13UDPConnection14sendUDPMessageEv+0x22>
 8006aca:	69a0      	ldr	r0, [r4, #24]
    mBuffers.getOutBuffer().advanceRead(dataLen);
 8006acc:	4629      	mov	r1, r5
 8006ace:	3010      	adds	r0, #16
 8006ad0:	f7fe faf4 	bl	80050bc <_ZN6Buffer11advanceReadEj>
  }
}
 8006ad4:	b009      	add	sp, #36	@ 0x24
 8006ad6:	bd30      	pop	{r4, r5, pc}
 8006ad8:	2000abe0 	.word	0x2000abe0

08006adc <_ZN13UDPConnection12periodicCallEv>:
{
 8006adc:	b510      	push	{r4, lr}
 8006ade:	4604      	mov	r4, r0
  if (isClosed()) {
 8006ae0:	6803      	ldr	r3, [r0, #0]
 8006ae2:	689b      	ldr	r3, [r3, #8]
 8006ae4:	4798      	blx	r3
 8006ae6:	b100      	cbz	r0, 8006aea <_ZN13UDPConnection12periodicCallEv+0xe>
}
 8006ae8:	bd10      	pop	{r4, pc}
 8006aea:	69a0      	ldr	r0, [r4, #24]
  unsigned int dataLen = mBuffers.getOutBuffer().getDataSize();
 8006aec:	3010      	adds	r0, #16
 8006aee:	f7fe f994 	bl	8004e1a <_ZNK6Buffer11getDataSizeEv>
  if (dataLen > 0) {
 8006af2:	2800      	cmp	r0, #0
 8006af4:	d0f8      	beq.n	8006ae8 <_ZN13UDPConnection12periodicCallEv+0xc>
    sendUDPMessage();
 8006af6:	4620      	mov	r0, r4
 8006af8:	f7ff ffae 	bl	8006a58 <_ZN13UDPConnection14sendUDPMessageEv>
 8006afc:	e7f4      	b.n	8006ae8 <_ZN13UDPConnection12periodicCallEv+0xc>

08006afe <_ZN13UDPHeaderDataC1EPKhmmj>:
// **************************************************************
// UDP Header constructor
// Decodes an incoming UDP message header.
// Set 'mTargetSocket' to '0' on error
// **************************************************************
UDPHeaderData::UDPHeaderData(const unsigned char* msgBase,
 8006afe:	b570      	push	{r4, r5, r6, lr}
 8006b00:	4604      	mov	r4, r0
 8006b02:	468c      	mov	ip, r1
 8006b04:	9904      	ldr	r1, [sp, #16]
                             uint32_t srcIP, uint32_t dstIP,
                             unsigned int msgLen) :
  mTargetSocket(0)
 8006b06:	2500      	movs	r5, #0
 8006b08:	8045      	strh	r5, [r0, #2]
{
  if (msgLen < UDP_HEADER_LEN) {
 8006b0a:	2907      	cmp	r1, #7
 8006b0c:	d912      	bls.n	8006b34 <_ZN13UDPHeaderDataC1EPKhmmj+0x36>
 8006b0e:	4610      	mov	r0, r2
    return;
  }

  mSourceSocket = hGetU16(msgBase, 0);
 8006b10:	f8bc 2000 	ldrh.w	r2, [ip]
 8006b14:	8022      	strh	r2, [r4, #0]
  uint16_t targetSocket = hGetU16(msgBase, 2);
 8006b16:	f8bc 6002 	ldrh.w	r6, [ip, #2]
  mMsgLen = hGetU16(msgBase, 4);
 8006b1a:	f8bc 2004 	ldrh.w	r2, [ip, #4]
  mMsgLen = ntohs(mMsgLen);
 8006b1e:	0215      	lsls	r5, r2, #8
 8006b20:	b2ad      	uxth	r5, r5
 8006b22:	ea45 2512 	orr.w	r5, r5, r2, lsr #8
 8006b26:	6065      	str	r5, [r4, #4]
  if (mMsgLen > msgLen) {
 8006b28:	428d      	cmp	r5, r1
 8006b2a:	d803      	bhi.n	8006b34 <_ZN13UDPHeaderDataC1EPKhmmj+0x36>
  }

  // UDP tests checksum only if field is not '+0'. Use '-0' instead.
  // this is opposed to TCP, as well as to IP protocols.
  uint16_t checksum = hGetU16(msgBase, 6);
  if (checksum != 0) {
 8006b2c:	f8bc 2006 	ldrh.w	r2, [ip, #6]
 8006b30:	b912      	cbnz	r2, 8006b38 <_ZN13UDPHeaderDataC1EPKhmmj+0x3a>
    /*if (calcChecksum((const char*)msgBase, msgLen, virtualChecksum, 0) != 0) {
      return;
    }*/
  }

  mTargetSocket = targetSocket;
 8006b32:	8066      	strh	r6, [r4, #2]
}
 8006b34:	4620      	mov	r0, r4
 8006b36:	bd70      	pop	{r4, r5, r6, pc}
    uint32_t virtualChecksum = Layer3Connection::calcBaseChecksum(srcIP, dstIP, false);
 8006b38:	2200      	movs	r2, #0
 8006b3a:	4619      	mov	r1, r3
 8006b3c:	f7fe fb09 	bl	8005152 <_ZN16Layer3Connection16calcBaseChecksumEmmb>
    virtualChecksum = virtualChecksum + mMsgLen;
 8006b40:	e7f7      	b.n	8006b32 <_ZN13UDPHeaderDataC1EPKhmmj+0x34>

08006b42 <_ZN13UDPHeaderDataC1Ett>:
// UDP Header constructor
// Used for outbound messages.
// **************************************************************
UDPHeaderData::UDPHeaderData(uint16_t sourceSocket,
                             uint16_t targetSocket) :
  mSourceSocket(sourceSocket),
 8006b42:	8001      	strh	r1, [r0, #0]
  mTargetSocket(targetSocket),
 8006b44:	8042      	strh	r2, [r0, #2]
  mMsgLen(0)
 8006b46:	2200      	movs	r2, #0
 8006b48:	6042      	str	r2, [r0, #4]
{
}
 8006b4a:	4770      	bx	lr

08006b4c <_ZN9OutUDPMsg14writeUDPHeaderERK13UDPHeaderData>:

// **************************************************************
// Constructs a simple UDP outbound packet
// **************************************************************
void OutUDPMsg::writeUDPHeader(const UDPHeaderData& udpHeaderData)
{
 8006b4c:	b538      	push	{r3, r4, r5, lr}
  if (isBad()) {
 8006b4e:	6883      	ldr	r3, [r0, #8]
 8006b50:	b903      	cbnz	r3, 8006b54 <_ZN9OutUDPMsg14writeUDPHeaderERK13UDPHeaderData+0x8>
  writeHostU16(udpHeaderData.mTargetSocket);
  // length place holder
  writeHostU16(0);
  // crc place holder
  writeHostU16(0);
}
 8006b52:	bd38      	pop	{r3, r4, r5, pc}
 8006b54:	4604      	mov	r4, r0
 8006b56:	460d      	mov	r5, r1
  writeHostU16(udpHeaderData.mSourceSocket);
 8006b58:	8809      	ldrh	r1, [r1, #0]
 8006b5a:	f7ff f9db 	bl	8005f14 <_ZN8OutIPMsg12writeHostU16Et>
  writeHostU16(udpHeaderData.mTargetSocket);
 8006b5e:	8869      	ldrh	r1, [r5, #2]
 8006b60:	4620      	mov	r0, r4
 8006b62:	f7ff f9d7 	bl	8005f14 <_ZN8OutIPMsg12writeHostU16Et>
  writeHostU16(0);
 8006b66:	2100      	movs	r1, #0
 8006b68:	4620      	mov	r0, r4
 8006b6a:	f7ff f9d3 	bl	8005f14 <_ZN8OutIPMsg12writeHostU16Et>
  writeHostU16(0);
 8006b6e:	2100      	movs	r1, #0
 8006b70:	4620      	mov	r0, r4
 8006b72:	f7ff f9cf 	bl	8005f14 <_ZN8OutIPMsg12writeHostU16Et>
 8006b76:	e7ec      	b.n	8006b52 <_ZN9OutUDPMsg14writeUDPHeaderERK13UDPHeaderData+0x6>

08006b78 <_ZN9OutUDPMsgC1EmRK13UDPHeaderDataR19CommunicationCenter>:
OutUDPMsg::OutUDPMsg(uint32_t targetIP,
 8006b78:	b5f8      	push	{r3, r4, r5, r6, r7, lr}
 8006b7a:	4604      	mov	r4, r0
 8006b7c:	460f      	mov	r7, r1
 8006b7e:	4616      	mov	r6, r2
 8006b80:	461d      	mov	r5, r3
    mUDPHeaderBase(NULL)
 8006b82:	2202      	movs	r2, #2
 8006b84:	f7ff fbaa 	bl	80062dc <_ZN8OutIPMsgC1Em11IPFrameTypeR19CommunicationCenter>
 8006b88:	2300      	movs	r3, #0
 8006b8a:	6163      	str	r3, [r4, #20]
  if (isBad()) {
 8006b8c:	68a3      	ldr	r3, [r4, #8]
 8006b8e:	b90b      	cbnz	r3, 8006b94 <_ZN9OutUDPMsgC1EmRK13UDPHeaderDataR19CommunicationCenter+0x1c>
}
 8006b90:	4620      	mov	r0, r4
 8006b92:	bdf8      	pop	{r3, r4, r5, r6, r7, pc}
  mUDPHeaderBase = OutIPMsg::getCurPtr();
 8006b94:	4620      	mov	r0, r4
 8006b96:	f7ff f9b9 	bl	8005f0c <_ZN8OutIPMsg9getCurPtrEv>
 8006b9a:	6160      	str	r0, [r4, #20]
  writeUDPHeader(udpHeaderData);
 8006b9c:	4631      	mov	r1, r6
 8006b9e:	4620      	mov	r0, r4
 8006ba0:	f7ff ffd4 	bl	8006b4c <_ZN9OutUDPMsg14writeUDPHeaderERK13UDPHeaderData>
  mVirtualChecksum = Layer3Connection::calcBaseChecksum(targetIP, communicationCenter.getIPAddr() , false);
 8006ba4:	2200      	movs	r2, #0
 8006ba6:	f8d5 171c 	ldr.w	r1, [r5, #1820]	@ 0x71c
 8006baa:	4638      	mov	r0, r7
 8006bac:	f7fe fad1 	bl	8005152 <_ZN16Layer3Connection16calcBaseChecksumEmmb>
 8006bb0:	6120      	str	r0, [r4, #16]
 8006bb2:	e7ed      	b.n	8006b90 <_ZN9OutUDPMsgC1EmRK13UDPHeaderDataR19CommunicationCenter+0x18>

08006bb4 <_ZN9OutUDPMsg10appendDataERK6Bufferj>:

// **************************************************************
// Invokes the IP layer 'appendData' method
// **************************************************************
int OutUDPMsg::appendData(const Buffer& src, unsigned int blockSize)
{
 8006bb4:	b508      	push	{r3, lr}
  return OutIPMsg::appendData(src, blockSize);
 8006bb6:	f7ff f9b5 	bl	8005f24 <_ZN8OutIPMsg10appendDataERK6Bufferj>
}
 8006bba:	bd08      	pop	{r3, pc}

08006bbc <_ZN9OutUDPMsg14updateChecksumEv>:
// **************************************************************
// Updates the checksum for this TCP message after appending all data.
// **************************************************************
void OutUDPMsg::updateChecksum()
{
  if (isBad()) {
 8006bbc:	6883      	ldr	r3, [r0, #8]
 8006bbe:	b1eb      	cbz	r3, 8006bfc <_ZN9OutUDPMsg14updateChecksumEv+0x40>
{
 8006bc0:	b510      	push	{r4, lr}
 8006bc2:	4604      	mov	r4, r0
    return;
  }

  if (mUDPHeaderBase == NULL) {
 8006bc4:	6943      	ldr	r3, [r0, #20]
 8006bc6:	b1bb      	cbz	r3, 8006bf8 <_ZN9OutUDPMsg14updateChecksumEv+0x3c>
                  {return OutIPMsg::appendData(blockBase, blockSize);}
  int resetMsg();

  int sendMsg();
  int appendData(const Buffer& src, unsigned int blockSize);
  char* getCurPtr() {return OutIPMsg::getCurPtr();}
 8006bc8:	f7ff f9a0 	bl	8005f0c <_ZN8OutIPMsg9getCurPtrEv>
    setBad();
    return;
  }

  uint16_t msgLen = getCurPtr() - mUDPHeaderBase;
 8006bcc:	6963      	ldr	r3, [r4, #20]
 8006bce:	1ac0      	subs	r0, r0, r3
  *(uint16_t*)(mUDPHeaderBase+4) = htons(msgLen);
 8006bd0:	b281      	uxth	r1, r0
 8006bd2:	f3c0 2007 	ubfx	r0, r0, #8, #8
 8006bd6:	ea40 2001 	orr.w	r0, r0, r1, lsl #8
 8006bda:	8098      	strh	r0, [r3, #4]

  // note that we turn message offset to network order in the virtual message
  // so we do not need to apply 'htons' on 'msgLen'.
  uint32_t virtualChecksum = mVirtualChecksum + msgLen;
 8006bdc:	6922      	ldr	r2, [r4, #16]
  uint16_t checkSum = calcChecksum(mUDPHeaderBase, msgLen, virtualChecksum, 0);
 8006bde:	2300      	movs	r3, #0
 8006be0:	440a      	add	r2, r1
 8006be2:	6960      	ldr	r0, [r4, #20]
 8006be4:	f7fe fe98 	bl	8005918 <calcChecksum>
  if (checkSum == 0) {
    // turn '+0' to '-0' according to UDP protocol.
    checkSum = 0xFFFF;
 8006be8:	f64f 73ff 	movw	r3, #65535	@ 0xffff
 8006bec:	2800      	cmp	r0, #0
 8006bee:	bf18      	it	ne
 8006bf0:	4603      	movne	r3, r0
  }
  *(uint16_t*)(mUDPHeaderBase+6) = checkSum;
 8006bf2:	6962      	ldr	r2, [r4, #20]
 8006bf4:	80d3      	strh	r3, [r2, #6]
}
 8006bf6:	bd10      	pop	{r4, pc}
  void setBad() {mThisFrame = 0;}
 8006bf8:	6083      	str	r3, [r0, #8]
    return;
 8006bfa:	e7fc      	b.n	8006bf6 <_ZN9OutUDPMsg14updateChecksumEv+0x3a>
 8006bfc:	4770      	bx	lr

08006bfe <_ZN9OutUDPMsg7sendMsgEv>:
  if (isBad()) {
 8006bfe:	6883      	ldr	r3, [r0, #8]
 8006c00:	b13b      	cbz	r3, 8006c12 <_ZN9OutUDPMsg7sendMsgEv+0x14>
{
 8006c02:	b510      	push	{r4, lr}
 8006c04:	4604      	mov	r4, r0
  updateChecksum();
 8006c06:	f7ff ffd9 	bl	8006bbc <_ZN9OutUDPMsg14updateChecksumEv>
  return OutIPMsg::sendMsg();
 8006c0a:	4620      	mov	r0, r4
 8006c0c:	f7ff f9ab 	bl	8005f66 <_ZN8OutIPMsg7sendMsgEv>
}
 8006c10:	bd10      	pop	{r4, pc}
    return -1;
 8006c12:	f04f 30ff 	mov.w	r0, #4294967295
}
 8006c16:	4770      	bx	lr

08006c18 <_ZN10ControllerC1ER6Layer3R19CommunicationCenter>:
// **********************************************************************

// **************************************************************
// constructor
// **************************************************************
Controller::Controller( Layer3& udpLayer, CommunicationCenter& comm_center) : 
 8006c18:	b570      	push	{r4, r5, r6, lr}
 8006c1a:	4604      	mov	r4, r0
 8006c1c:	460e      	mov	r6, r1
 8006c1e:	4615      	mov	r5, r2
mBuffers(UDP_PORT_COMMANDS),
 8006c20:	2103      	movs	r1, #3
 8006c22:	f7fe f89f 	bl	8004d64 <_ZN19BidirectionalBufferC1E12TCPPortTypes>
mUDPConnection(mBuffers, udpLayer),
 8006c26:	4632      	mov	r2, r6
 8006c28:	4621      	mov	r1, r4
 8006c2a:	f104 0020 	add.w	r0, r4, #32
 8006c2e:	f7ff fedb 	bl	80069e8 <_ZN13UDPConnectionC1ER19BidirectionalBufferR6Layer3>
mCommunicationCenter(comm_center),
 8006c32:	6425      	str	r5, [r4, #64]	@ 0x40
isReset(0),
 8006c34:	2300      	movs	r3, #0
 8006c36:	f884 3044 	strb.w	r3, [r4, #68]	@ 0x44
State(0), State_flag(0)
 8006c3a:	f884 3045 	strb.w	r3, [r4, #69]	@ 0x45
 8006c3e:	f884 3046 	strb.w	r3, [r4, #70]	@ 0x46
{ 
}
 8006c42:	4620      	mov	r0, r4
 8006c44:	bd70      	pop	{r4, r5, r6, pc}

08006c46 <_ZN10Controller10openSocketEv>:
 
// **************************************************************
// initialization call.
// notifies that persistent settings are loaded.
// **************************************************************
void Controller::openSocket(){
 8006c46:	b508      	push	{r3, lr}
  mUDPConnection.openObject(CONTROL_CLIENT_PORT, CONTROL_SERVER_PORT, 0 );
 8006c48:	2300      	movs	r3, #0
 8006c4a:	f648 0213 	movw	r2, #34835	@ 0x8813
 8006c4e:	4611      	mov	r1, r2
 8006c50:	3020      	adds	r0, #32
 8006c52:	f7ff fee6 	bl	8006a22 <_ZN13UDPConnection10openObjectEttm>
}
 8006c56:	bd08      	pop	{r3, pc}

08006c58 <_ZN10Controller10SendStatusE14CONTROL_OPCODEh>:

// **************************************************************
// Sends Status Message
// notifies that persistent settings are loaded.
// **************************************************************
void Controller::SendStatus(CONTROL_OPCODE  op, uint8_t broadcast){
 8006c58:	b570      	push	{r4, r5, r6, lr}
 8006c5a:	b0a2      	sub	sp, #136	@ 0x88
 8006c5c:	460d      	mov	r5, r1
  if (op == CONTROL_OPCODE_KEEPALIVE) {
 8006c5e:	295a      	cmp	r1, #90	@ 0x5a
  virtual uint32_t getOtherIP() const {return mTargetIP;}

  void closeObject();
  void openObject(uint16_t mySocket, uint16_t targetSocket, uint32_t targetIP);
  bool isObjectClosed() const {return !mObjectOpen;}
  void changeTargetSocket(uint16_t socket) { mTargetSocket = socket;}
 8006c60:	bf04      	itt	eq
 8006c62:	f249 2313 	movweq	r3, #37395	@ 0x9213
 8006c66:	85c3      	strheq	r3, [r0, #46]	@ 0x2e
    mUDPConnection.changeTargetSocket(CONTROL_KEPPALIVE_PORT);
  }
  if (broadcast)
 8006c68:	b112      	cbz	r2, 8006c70 <_ZN10Controller10SendStatusE14CONTROL_OPCODEh+0x18>
  void changeTargetIP(uint32_t ip) { mTargetIP = ip;}
 8006c6a:	f04f 33ff 	mov.w	r3, #4294967295
 8006c6e:	6303      	str	r3, [r0, #48]	@ 0x30
  void reset();                         // not multithreaded safe!

  void advanceReadTop();

  Buffer& getInBuffer() {return mBufferIn;}
  Buffer& getOutBuffer() {return mBufferOut;}
 8006c70:	f100 0410 	add.w	r4, r0, #16
  {
    //const IPData& myIPData = SystemManagement::getCommunicationCenter().getIPData();
    //mUDPConnection.changeTargetIP((myIPData.mAddr & myIPData.mMask) | (~myIPData.mMask) );
    mUDPConnection.changeTargetIP(0xFFFFFFFF);
  }
  mBuffers.getOutBuffer().writeChar(op);
 8006c74:	4629      	mov	r1, r5
 8006c76:	4620      	mov	r0, r4
 8006c78:	f7fe f8f1 	bl	8004e5e <_ZN6Buffer9writeCharEc>
} Status_Msg_T;
 8006c7c:	f44f 43f0 	mov.w	r3, #30720	@ 0x7800
 8006c80:	f8ad 3010 	strh.w	r3, [sp, #16]
} Status_EXT_T;
 8006c84:	f44f 5380 	mov.w	r3, #4096	@ 0x1000
 8006c88:	f8ad 3000 	strh.w	r3, [sp]
    if (mSingelton == NULL)
 8006c8c:	4b4d      	ldr	r3, [pc, #308]	@ (8006dc4 <_ZN10Controller10SendStatusE14CONTROL_OPCODEh+0x16c>)
 8006c8e:	681b      	ldr	r3, [r3, #0]
 8006c90:	2b00      	cmp	r3, #0
 8006c92:	f000 8083 	beq.w	8006d9c <_ZN10Controller10SendStatusE14CONTROL_OPCODEh+0x144>
    return *mSingelton; 
 8006c96:	4e4b      	ldr	r6, [pc, #300]	@ (8006dc4 <_ZN10Controller10SendStatusE14CONTROL_OPCODEh+0x16c>)
  Status_Msg_T Status_Msg;
  Status_EXT_T Status_EXT_Msg;
  HardwareCenter::GetInstance().GetStatus(Status_Msg);
 8006c98:	a904      	add	r1, sp, #16
 8006c9a:	6830      	ldr	r0, [r6, #0]
 8006c9c:	f7fd fa80 	bl	80041a0 <_ZN14HardwareCenter9GetStatusER12Status_Msg_T>
    if (mSingelton == NULL)
 8006ca0:	6833      	ldr	r3, [r6, #0]
 8006ca2:	2b00      	cmp	r3, #0
 8006ca4:	f000 8084 	beq.w	8006db0 <_ZN10Controller10SendStatusE14CONTROL_OPCODEh+0x158>
  HardwareCenter::GetInstance().GetStatusEXT(Status_EXT_Msg);
 8006ca8:	4669      	mov	r1, sp
 8006caa:	4b46      	ldr	r3, [pc, #280]	@ (8006dc4 <_ZN10Controller10SendStatusE14CONTROL_OPCODEh+0x16c>)
 8006cac:	6818      	ldr	r0, [r3, #0]
 8006cae:	f7fd fa2f 	bl	8004110 <_ZN14HardwareCenter12GetStatusEXTER12Status_EXT_T>
  /* Every parameter with more than 1 byte length, has to be sent in a reverse order */
  Status_Msg.TEMP = htons(Status_Msg.TEMP);
 8006cb2:	f9bd 2084 	ldrsh.w	r2, [sp, #132]	@ 0x84
 8006cb6:	f99d 3085 	ldrsb.w	r3, [sp, #133]	@ 0x85
 8006cba:	b2db      	uxtb	r3, r3
 8006cbc:	b292      	uxth	r2, r2
 8006cbe:	ea43 2302 	orr.w	r3, r3, r2, lsl #8
 8006cc2:	f8ad 3084 	strh.w	r3, [sp, #132]	@ 0x84
  for (int i=0; i<NUM_OF_CB; i++)
 8006cc6:	aa0a      	add	r2, sp, #40	@ 0x28
 8006cc8:	a812      	add	r0, sp, #72	@ 0x48
 8006cca:	4684      	mov	ip, r0
  {
    Status_Msg.OUT_VOLT[i] = htons(Status_Msg.OUT_VOLT[i]);
 8006ccc:	f932 3f02 	ldrsh.w	r3, [r2, #2]!
 8006cd0:	f3c3 2107 	ubfx	r1, r3, #8, #8
 8006cd4:	b29b      	uxth	r3, r3
 8006cd6:	ea41 2303 	orr.w	r3, r1, r3, lsl #8
 8006cda:	8013      	strh	r3, [r2, #0]
    Status_Msg.OUT_CURR[i] = htons(Status_Msg.OUT_CURR[i]);
 8006cdc:	f930 3f02 	ldrsh.w	r3, [r0, #2]!
 8006ce0:	f3c3 2107 	ubfx	r1, r3, #8, #8
 8006ce4:	b29b      	uxth	r3, r3
 8006ce6:	ea41 2303 	orr.w	r3, r1, r3, lsl #8
 8006cea:	8003      	strh	r3, [r0, #0]
  for (int i=0; i<NUM_OF_CB; i++)
 8006cec:	4562      	cmp	r2, ip
 8006cee:	d1ed      	bne.n	8006ccc <_ZN10Controller10SendStatusE14CONTROL_OPCODEh+0x74>
  }
  Status_Msg.INPUT_VOLT = htons(Status_Msg.INPUT_VOLT);
 8006cf0:	f9bd 207a 	ldrsh.w	r2, [sp, #122]	@ 0x7a
 8006cf4:	f99d 307b 	ldrsb.w	r3, [sp, #123]	@ 0x7b
 8006cf8:	b2db      	uxtb	r3, r3
 8006cfa:	b292      	uxth	r2, r2
 8006cfc:	ea43 2302 	orr.w	r3, r3, r2, lsl #8
 8006d00:	f8ad 307a 	strh.w	r3, [sp, #122]	@ 0x7a
  Status_Msg.INPUT_CURR = htons(Status_Msg.INPUT_CURR);
 8006d04:	f9bd 207c 	ldrsh.w	r2, [sp, #124]	@ 0x7c
 8006d08:	f99d 307d 	ldrsb.w	r3, [sp, #125]	@ 0x7d
 8006d0c:	b2db      	uxtb	r3, r3
 8006d0e:	b292      	uxth	r2, r2
 8006d10:	ea43 2302 	orr.w	r3, r3, r2, lsl #8
 8006d14:	f8ad 307c 	strh.w	r3, [sp, #124]	@ 0x7c
  Status_EXT_Msg.ETC = htonl(Status_EXT_Msg.ETC);
 8006d18:	f8dd 3002 	ldr.w	r3, [sp, #2]
 8006d1c:	0e1a      	lsrs	r2, r3, #24
 8006d1e:	ea42 6203 	orr.w	r2, r2, r3, lsl #24
 8006d22:	0219      	lsls	r1, r3, #8
 8006d24:	f401 017f 	and.w	r1, r1, #16711680	@ 0xff0000
 8006d28:	430a      	orrs	r2, r1
 8006d2a:	0a1b      	lsrs	r3, r3, #8
 8006d2c:	f403 437f 	and.w	r3, r3, #65280	@ 0xff00
 8006d30:	4313      	orrs	r3, r2
 8006d32:	f8cd 3002 	str.w	r3, [sp, #2]
  Status_EXT_Msg.INPUT_CURR_1 = htons(Status_EXT_Msg.INPUT_CURR_1);
 8006d36:	f9bd 200a 	ldrsh.w	r2, [sp, #10]
 8006d3a:	f99d 300b 	ldrsb.w	r3, [sp, #11]
 8006d3e:	b2db      	uxtb	r3, r3
 8006d40:	b292      	uxth	r2, r2
 8006d42:	ea43 2302 	orr.w	r3, r3, r2, lsl #8
 8006d46:	f8ad 300a 	strh.w	r3, [sp, #10]
  Status_EXT_Msg.INPUT_CURR_2 = htons(Status_EXT_Msg.INPUT_CURR_2);
 8006d4a:	f9bd 200c 	ldrsh.w	r2, [sp, #12]
 8006d4e:	f99d 300d 	ldrsb.w	r3, [sp, #13]
 8006d52:	b2db      	uxtb	r3, r3
 8006d54:	b292      	uxth	r2, r2
 8006d56:	ea43 2302 	orr.w	r3, r3, r2, lsl #8
 8006d5a:	f8ad 300c 	strh.w	r3, [sp, #12]
  Status_EXT_Msg.INPUT_VOLT_1 = htons(Status_EXT_Msg.INPUT_VOLT_1);
 8006d5e:	f9bd 2006 	ldrsh.w	r2, [sp, #6]
 8006d62:	f99d 3007 	ldrsb.w	r3, [sp, #7]
 8006d66:	b2db      	uxtb	r3, r3
 8006d68:	b292      	uxth	r2, r2
 8006d6a:	ea43 2302 	orr.w	r3, r3, r2, lsl #8
 8006d6e:	f8ad 3006 	strh.w	r3, [sp, #6]
  Status_EXT_Msg.INPUT_VOLT_2 = htons(Status_EXT_Msg.INPUT_VOLT_2);
 8006d72:	f9bd 2008 	ldrsh.w	r2, [sp, #8]
 8006d76:	f99d 3009 	ldrsb.w	r3, [sp, #9]
 8006d7a:	b2db      	uxtb	r3, r3
 8006d7c:	b292      	uxth	r2, r2
 8006d7e:	ea43 2302 	orr.w	r3, r3, r2, lsl #8
 8006d82:	f8ad 3008 	strh.w	r3, [sp, #8]
  if (op == CONTROL_OPCODE_STATUS_EXT)
 8006d86:	2d79      	cmp	r5, #121	@ 0x79
	  mBuffers.getOutBuffer().writeBlock(&Status_EXT_Msg , sizeof(Status_EXT_T));
 8006d88:	bf07      	ittee	eq
 8006d8a:	220f      	moveq	r2, #15
 8006d8c:	4669      	moveq	r1, sp
  else
	  mBuffers.getOutBuffer().writeBlock(&Status_Msg , sizeof(Status_Msg_T));
 8006d8e:	2277      	movne	r2, #119	@ 0x77
 8006d90:	a904      	addne	r1, sp, #16
 8006d92:	4620      	mov	r0, r4
 8006d94:	f7fe f8f0 	bl	8004f78 <_ZN6Buffer10writeBlockEPKvj>
  
}
 8006d98:	b022      	add	sp, #136	@ 0x88
 8006d9a:	bd70      	pop	{r4, r5, r6, pc}
      mSingelton = new HardwareCenter;
 8006d9c:	f44f 702e 	mov.w	r0, #696	@ 0x2b8
 8006da0:	f005 f8aa 	bl	800bef8 <_Znwj>
 8006da4:	4606      	mov	r6, r0
 8006da6:	f7fd f967 	bl	8004078 <_ZN14HardwareCenterC1Ev>
 8006daa:	4b06      	ldr	r3, [pc, #24]	@ (8006dc4 <_ZN10Controller10SendStatusE14CONTROL_OPCODEh+0x16c>)
 8006dac:	601e      	str	r6, [r3, #0]
 8006dae:	e772      	b.n	8006c96 <_ZN10Controller10SendStatusE14CONTROL_OPCODEh+0x3e>
 8006db0:	f44f 702e 	mov.w	r0, #696	@ 0x2b8
 8006db4:	f005 f8a0 	bl	800bef8 <_Znwj>
 8006db8:	4606      	mov	r6, r0
 8006dba:	f7fd f95d 	bl	8004078 <_ZN14HardwareCenterC1Ev>
 8006dbe:	4b01      	ldr	r3, [pc, #4]	@ (8006dc4 <_ZN10Controller10SendStatusE14CONTROL_OPCODEh+0x16c>)
 8006dc0:	601e      	str	r6, [r3, #0]
 8006dc2:	e771      	b.n	8006ca8 <_ZN10Controller10SendStatusE14CONTROL_OPCODEh+0x50>
 8006dc4:	200003f4 	.word	0x200003f4

08006dc8 <_ZN10Controller8SetStateEhm>:

void Controller::SetState(uint8_t nState, uint32_t Ip)
{
  State = nState;
 8006dc8:	f880 1045 	strb.w	r1, [r0, #69]	@ 0x45
  State_flag = 3;
 8006dcc:	2303      	movs	r3, #3
 8006dce:	f880 3046 	strb.w	r3, [r0, #70]	@ 0x46
  StateIP = Ip;
 8006dd2:	6482      	str	r2, [r0, #72]	@ 0x48
  return;
}
 8006dd4:	4770      	bx	lr
	...

08006dd8 <_ZN10Controller9SendStateEv>:


void Controller::SendState()
{
 8006dd8:	b538      	push	{r3, r4, r5, lr}
 8006dda:	4604      	mov	r4, r0
  void changeTargetSocket(uint16_t socket) { mTargetSocket = socket;}
 8006ddc:	f648 0313 	movw	r3, #34835	@ 0x8813
 8006de0:	85c3      	strh	r3, [r0, #46]	@ 0x2e
  void changeTargetIP(uint32_t ip) { mTargetIP = ip;}
 8006de2:	6c83      	ldr	r3, [r0, #72]	@ 0x48
 8006de4:	6303      	str	r3, [r0, #48]	@ 0x30
 8006de6:	f100 0510 	add.w	r5, r0, #16
   mUDPConnection.changeTargetSocket(CONTROL_CLIENT_PORT);
   mUDPConnection.changeTargetIP(StateIP);
   mBuffers.getOutBuffer().writeChar(CONTROL_OPCODE_SET_STATE);
 8006dea:	218a      	movs	r1, #138	@ 0x8a
 8006dec:	4628      	mov	r0, r5
 8006dee:	f7fe f836 	bl	8004e5e <_ZN6Buffer9writeCharEc>
   mBuffers.getOutBuffer().writeShort(5);
 8006df2:	2105      	movs	r1, #5
 8006df4:	4628      	mov	r0, r5
 8006df6:	f7fe f84d 	bl	8004e94 <_ZN6Buffer10writeShortEt>
   mBuffers.getOutBuffer().writeChar(State);
 8006dfa:	f894 1045 	ldrb.w	r1, [r4, #69]	@ 0x45
 8006dfe:	4628      	mov	r0, r5
 8006e00:	f7fe f82d 	bl	8004e5e <_ZN6Buffer9writeCharEc>
    if (mSingelton == NULL)
 8006e04:	4b0c      	ldr	r3, [pc, #48]	@ (8006e38 <_ZN10Controller9SendStateEv+0x60>)
 8006e06:	681b      	ldr	r3, [r3, #0]
 8006e08:	b15b      	cbz	r3, 8006e22 <_ZN10Controller9SendStateEv+0x4a>
   mBuffers.getOutBuffer().writeChar(GPIO::GetInstance().IsRemote());
 8006e0a:	4b0b      	ldr	r3, [pc, #44]	@ (8006e38 <_ZN10Controller9SendStateEv+0x60>)
 8006e0c:	6818      	ldr	r0, [r3, #0]
 8006e0e:	f7fd f809 	bl	8003e24 <_ZN4GPIO8IsRemoteEv>
 8006e12:	4601      	mov	r1, r0
 8006e14:	4628      	mov	r0, r5
 8006e16:	f7fe f822 	bl	8004e5e <_ZN6Buffer9writeCharEc>
   mBuffers.getOutBuffer().advanceReadTop();
 8006e1a:	4628      	mov	r0, r5
 8006e1c:	f7fe f970 	bl	8005100 <_ZN6Buffer14advanceReadTopEv>
   return;
}
 8006e20:	bd38      	pop	{r3, r4, r5, pc}
      mSingelton = new GPIO;
 8006e22:	f44f 70c8 	mov.w	r0, #400	@ 0x190
 8006e26:	f005 f867 	bl	800bef8 <_Znwj>
 8006e2a:	4604      	mov	r4, r0
 8006e2c:	f7fc fe58 	bl	8003ae0 <_ZN4GPIOC1Ev>
 8006e30:	4b01      	ldr	r3, [pc, #4]	@ (8006e38 <_ZN10Controller9SendStateEv+0x60>)
 8006e32:	601c      	str	r4, [r3, #0]
 8006e34:	e7e9      	b.n	8006e0a <_ZN10Controller9SendStateEv+0x32>
 8006e36:	bf00      	nop
 8006e38:	200003d0 	.word	0x200003d0

08006e3c <_ZN10Controller19handleRecievedStateER6Buffer>:
  
}


COMMAND_SUCCESS Controller::handleRecievedState(Buffer &DataIn)                                          
{
 8006e3c:	b538      	push	{r3, r4, r5, lr}
 8006e3e:	4604      	mov	r4, r0
 8006e40:	460d      	mov	r5, r1
  if (mBuffers.getInBuffer().readShort()!= 5){
 8006e42:	f7fe f883 	bl	8004f4c <_ZN6Buffer9readShortEv>
 8006e46:	2805      	cmp	r0, #5
 8006e48:	d001      	beq.n	8006e4e <_ZN10Controller19handleRecievedStateER6Buffer+0x12>
    return NACK;
 8006e4a:	2001      	movs	r0, #1
    RecivedRemote = DataIn.readChar();
    if (RecivedRemote < 2)
    	return ACK;
    RecivedRemote = 0;
    return NACK;
}
 8006e4c:	bd38      	pop	{r3, r4, r5, pc}
    RecivedState = DataIn.readChar();
 8006e4e:	4628      	mov	r0, r5
 8006e50:	f7fe f862 	bl	8004f18 <_ZN6Buffer8readCharEv>
 8006e54:	f884 004c 	strb.w	r0, [r4, #76]	@ 0x4c
    RecivedRemote = DataIn.readChar();
 8006e58:	4628      	mov	r0, r5
 8006e5a:	f7fe f85d 	bl	8004f18 <_ZN6Buffer8readCharEv>
 8006e5e:	b2c0      	uxtb	r0, r0
    if (RecivedRemote < 2)
 8006e60:	2801      	cmp	r0, #1
 8006e62:	d904      	bls.n	8006e6e <_ZN10Controller19handleRecievedStateER6Buffer+0x32>
    RecivedRemote = 0;
 8006e64:	2300      	movs	r3, #0
 8006e66:	f884 304d 	strb.w	r3, [r4, #77]	@ 0x4d
    return NACK;
 8006e6a:	2001      	movs	r0, #1
 8006e6c:	e7ee      	b.n	8006e4c <_ZN10Controller19handleRecievedStateER6Buffer+0x10>
    RecivedRemote = DataIn.readChar();
 8006e6e:	f884 004d 	strb.w	r0, [r4, #77]	@ 0x4d
    	return ACK;
 8006e72:	2000      	movs	r0, #0
 8006e74:	e7ea      	b.n	8006e4c <_ZN10Controller19handleRecievedStateER6Buffer+0x10>

08006e76 <_ZN10Controller11sendAckNackE14CONTROL_OPCODE15COMMAND_SUCCESS>:


void Controller::sendAckNack(CONTROL_OPCODE OpCode, COMMAND_SUCCESS result)
{
 8006e76:	b538      	push	{r3, r4, r5, lr}
 8006e78:	4615      	mov	r5, r2
 8006e7a:	f100 0410 	add.w	r4, r0, #16
  mBuffers.getOutBuffer().writeChar(OpCode);
 8006e7e:	4620      	mov	r0, r4
 8006e80:	f7fd ffed 	bl	8004e5e <_ZN6Buffer9writeCharEc>
  mBuffers.getOutBuffer().writeChar(0);
 8006e84:	2100      	movs	r1, #0
 8006e86:	4620      	mov	r0, r4
 8006e88:	f7fd ffe9 	bl	8004e5e <_ZN6Buffer9writeCharEc>
  mBuffers.getOutBuffer().writeChar(4);
 8006e8c:	2104      	movs	r1, #4
 8006e8e:	4620      	mov	r0, r4
 8006e90:	f7fd ffe5 	bl	8004e5e <_ZN6Buffer9writeCharEc>
  mBuffers.getOutBuffer().writeChar(result);
 8006e94:	4629      	mov	r1, r5
 8006e96:	4620      	mov	r0, r4
 8006e98:	f7fd ffe1 	bl	8004e5e <_ZN6Buffer9writeCharEc>
}
 8006e9c:	bd38      	pop	{r3, r4, r5, pc}
	...

08006ea0 <_ZN10Controller16handleGetPDUInfoER6Buffer>:

void Controller::handleGetPDUInfo( Buffer& DataOut ){
 8006ea0:	b538      	push	{r3, r4, r5, lr}
 8006ea2:	460c      	mov	r4, r1
  DataOut.writeChar(CONTROL_OPCODE_PDU_INFO);
 8006ea4:	2177      	movs	r1, #119	@ 0x77
 8006ea6:	4620      	mov	r0, r4
 8006ea8:	f7fd ffd9 	bl	8004e5e <_ZN6Buffer9writeCharEc>
  DataOut.writeChar(0);
 8006eac:	2100      	movs	r1, #0
 8006eae:	4620      	mov	r0, r4
 8006eb0:	f7fd ffd5 	bl	8004e5e <_ZN6Buffer9writeCharEc>
  DataOut.writeChar(59);
 8006eb4:	213b      	movs	r1, #59	@ 0x3b
 8006eb6:	4620      	mov	r0, r4
 8006eb8:	f7fd ffd1 	bl	8004e5e <_ZN6Buffer9writeCharEc>
  
  DataOut.writeBlock(CUSTOMER_PN, strlen(CUSTOMER_PN)+1);
 8006ebc:	220c      	movs	r2, #12
 8006ebe:	4911      	ldr	r1, [pc, #68]	@ (8006f04 <_ZN10Controller16handleGetPDUInfoER6Buffer+0x64>)
 8006ec0:	4620      	mov	r0, r4
 8006ec2:	f7fe f859 	bl	8004f78 <_ZN6Buffer10writeBlockEPKvj>
  DataOut.writeNChar(0, 16-strlen(CUSTOMER_PN)-1);
 8006ec6:	2204      	movs	r2, #4
 8006ec8:	2100      	movs	r1, #0
 8006eca:	4620      	mov	r0, r4
 8006ecc:	f7fd ffed 	bl	8004eaa <_ZN6Buffer10writeNCharEci>
      {return mGlobalManagement.mPersistentDataCenter;}
 8006ed0:	4d0d      	ldr	r5, [pc, #52]	@ (8006f08 <_ZN10Controller16handleGetPDUInfoER6Buffer+0x68>)
 8006ed2:	69e8      	ldr	r0, [r5, #28]
  DataOut.writeBlock(SystemManagement::getPersistentDataCenter().getSerialNumber(), 8);
 8006ed4:	6803      	ldr	r3, [r0, #0]
 8006ed6:	695b      	ldr	r3, [r3, #20]
 8006ed8:	4798      	blx	r3
 8006eda:	4601      	mov	r1, r0
 8006edc:	2208      	movs	r2, #8
 8006ede:	4620      	mov	r0, r4
 8006ee0:	f7fe f84a 	bl	8004f78 <_ZN6Buffer10writeBlockEPKvj>
 8006ee4:	69e8      	ldr	r0, [r5, #28]
  DataOut.writeBlock(SystemManagement::getPersistentDataCenter().getSystemVersion().SW_Version_Raw, 20);
 8006ee6:	6803      	ldr	r3, [r0, #0]
 8006ee8:	68db      	ldr	r3, [r3, #12]
 8006eea:	4798      	blx	r3
 8006eec:	2214      	movs	r2, #20
 8006eee:	6901      	ldr	r1, [r0, #16]
 8006ef0:	4620      	mov	r0, r4
 8006ef2:	f7fe f841 	bl	8004f78 <_ZN6Buffer10writeBlockEPKvj>
  DataOut.writeNChar(0, 32-20);
 8006ef6:	220c      	movs	r2, #12
 8006ef8:	2100      	movs	r1, #0
 8006efa:	4620      	mov	r0, r4
 8006efc:	f7fd ffd5 	bl	8004eaa <_ZN6Buffer10writeNCharEci>
}
 8006f00:	bd38      	pop	{r3, r4, r5, pc}
 8006f02:	bf00      	nop
 8006f04:	0800c6a8 	.word	0x0800c6a8
 8006f08:	2000abe0 	.word	0x2000abe0

08006f0c <_ZN10Controller14handleSetDebugEv>:

COMMAND_SUCCESS Controller::handleSetDebug(){
 8006f0c:	b530      	push	{r4, r5, lr}
 8006f0e:	b083      	sub	sp, #12
 8006f10:	4604      	mov	r4, r0
  uint16_t length = mBuffers.getInBuffer().readShort();
 8006f12:	f7fe f81b 	bl	8004f4c <_ZN6Buffer9readShortEv>
 8006f16:	b285      	uxth	r5, r0
  switch (mBuffers.getInBuffer().readChar())
 8006f18:	4620      	mov	r0, r4
 8006f1a:	f7fd fffd 	bl	8004f18 <_ZN6Buffer8readCharEv>
 8006f1e:	b120      	cbz	r0, 8006f2a <_ZN10Controller14handleSetDebugEv+0x1e>
 8006f20:	2801      	cmp	r0, #1
 8006f22:	d01f      	beq.n	8006f64 <_ZN10Controller14handleSetDebugEv+0x58>
 8006f24:	2001      	movs	r0, #1
    HardwareCenter::GetInstance().handelGetOutsTemp(mBuffers.getOutBuffer());
    return ACK;
  default:
    return NACK;
  }
}
 8006f26:	b003      	add	sp, #12
 8006f28:	bd30      	pop	{r4, r5, pc}
    if (length != 12)
 8006f2a:	2d0c      	cmp	r5, #12
 8006f2c:	d006      	beq.n	8006f3c <_ZN10Controller14handleSetDebugEv+0x30>
      sendAckNack(CONTROL_OPCODE_DEBUG_ACK, NACK);
 8006f2e:	2201      	movs	r2, #1
 8006f30:	21b1      	movs	r1, #177	@ 0xb1
 8006f32:	4620      	mov	r0, r4
 8006f34:	f7ff ff9f 	bl	8006e76 <_ZN10Controller11sendAckNackE14CONTROL_OPCODE15COMMAND_SUCCESS>
      return NACK;
 8006f38:	2001      	movs	r0, #1
 8006f3a:	e7f4      	b.n	8006f26 <_ZN10Controller14handleSetDebugEv+0x1a>
    mBuffers.getInBuffer().readBlock(Serial,8);
 8006f3c:	2208      	movs	r2, #8
 8006f3e:	4669      	mov	r1, sp
 8006f40:	4620      	mov	r0, r4
 8006f42:	f7fe f8b5 	bl	80050b0 <_ZNK6Buffer9readBlockEPcj>
 8006f46:	4b1e      	ldr	r3, [pc, #120]	@ (8006fc0 <_ZN10Controller14handleSetDebugEv+0xb4>)
 8006f48:	69d8      	ldr	r0, [r3, #28]
    sendAckNack(CONTROL_OPCODE_DEBUG_ACK, (SystemManagement::getPersistentDataCenter().setSerialNumber(Serial) == 0) ? ACK : NACK);
 8006f4a:	6803      	ldr	r3, [r0, #0]
 8006f4c:	691b      	ldr	r3, [r3, #16]
 8006f4e:	4669      	mov	r1, sp
 8006f50:	4798      	blx	r3
 8006f52:	1e02      	subs	r2, r0, #0
 8006f54:	bf18      	it	ne
 8006f56:	2201      	movne	r2, #1
 8006f58:	21b1      	movs	r1, #177	@ 0xb1
 8006f5a:	4620      	mov	r0, r4
 8006f5c:	f7ff ff8b 	bl	8006e76 <_ZN10Controller11sendAckNackE14CONTROL_OPCODE15COMMAND_SUCCESS>
    return ACK;
 8006f60:	2000      	movs	r0, #0
 8006f62:	e7e0      	b.n	8006f26 <_ZN10Controller14handleSetDebugEv+0x1a>
    if (length != 4)
 8006f64:	2d04      	cmp	r5, #4
 8006f66:	d006      	beq.n	8006f76 <_ZN10Controller14handleSetDebugEv+0x6a>
      sendAckNack(CONTROL_OPCODE_DEBUG_ACK, NACK);
 8006f68:	2201      	movs	r2, #1
 8006f6a:	21b1      	movs	r1, #177	@ 0xb1
 8006f6c:	4620      	mov	r0, r4
 8006f6e:	f7ff ff82 	bl	8006e76 <_ZN10Controller11sendAckNackE14CONTROL_OPCODE15COMMAND_SUCCESS>
      return NACK;
 8006f72:	2001      	movs	r0, #1
 8006f74:	e7d7      	b.n	8006f26 <_ZN10Controller14handleSetDebugEv+0x1a>
 8006f76:	3410      	adds	r4, #16
    mBuffers.getOutBuffer().writeChar(CONTROL_OPCODE_DEBUG_ACK);
 8006f78:	21b1      	movs	r1, #177	@ 0xb1
 8006f7a:	4620      	mov	r0, r4
 8006f7c:	f7fd ff6f 	bl	8004e5e <_ZN6Buffer9writeCharEc>
    mBuffers.getOutBuffer().writeChar(0);
 8006f80:	2100      	movs	r1, #0
 8006f82:	4620      	mov	r0, r4
 8006f84:	f7fd ff6b 	bl	8004e5e <_ZN6Buffer9writeCharEc>
    mBuffers.getOutBuffer().writeChar(NUM_OF_CB*2+4);
 8006f88:	2124      	movs	r1, #36	@ 0x24
 8006f8a:	4620      	mov	r0, r4
 8006f8c:	f7fd ff67 	bl	8004e5e <_ZN6Buffer9writeCharEc>
    mBuffers.getOutBuffer().writeChar(1);
 8006f90:	2101      	movs	r1, #1
 8006f92:	4620      	mov	r0, r4
 8006f94:	f7fd ff63 	bl	8004e5e <_ZN6Buffer9writeCharEc>
    if (mSingelton == NULL)
 8006f98:	4b0a      	ldr	r3, [pc, #40]	@ (8006fc4 <_ZN10Controller14handleSetDebugEv+0xb8>)
 8006f9a:	681b      	ldr	r3, [r3, #0]
 8006f9c:	b133      	cbz	r3, 8006fac <_ZN10Controller14handleSetDebugEv+0xa0>
    HardwareCenter::GetInstance().handelGetOutsTemp(mBuffers.getOutBuffer());
 8006f9e:	4621      	mov	r1, r4
 8006fa0:	4b08      	ldr	r3, [pc, #32]	@ (8006fc4 <_ZN10Controller14handleSetDebugEv+0xb8>)
 8006fa2:	6818      	ldr	r0, [r3, #0]
 8006fa4:	f7fd fbc9 	bl	800473a <_ZN14HardwareCenter17handelGetOutsTempER6Buffer>
    return ACK;
 8006fa8:	2000      	movs	r0, #0
 8006faa:	e7bc      	b.n	8006f26 <_ZN10Controller14handleSetDebugEv+0x1a>
      mSingelton = new HardwareCenter;
 8006fac:	f44f 702e 	mov.w	r0, #696	@ 0x2b8
 8006fb0:	f004 ffa2 	bl	800bef8 <_Znwj>
 8006fb4:	4605      	mov	r5, r0
 8006fb6:	f7fd f85f 	bl	8004078 <_ZN14HardwareCenterC1Ev>
 8006fba:	4b02      	ldr	r3, [pc, #8]	@ (8006fc4 <_ZN10Controller14handleSetDebugEv+0xb8>)
 8006fbc:	601d      	str	r5, [r3, #0]
 8006fbe:	e7ee      	b.n	8006f9e <_ZN10Controller14handleSetDebugEv+0x92>
 8006fc0:	2000abe0 	.word	0x2000abe0
 8006fc4:	200003f4 	.word	0x200003f4

08006fc8 <_ZN10Controller11handleEraseEv>:


COMMAND_SUCCESS Controller::handleErase()
{
 8006fc8:	b510      	push	{r4, lr}
 8006fca:	b088      	sub	sp, #32
 8006fcc:	4604      	mov	r4, r0
  if (mBuffers.getInBuffer().readShort()!= 35){
 8006fce:	f7fd ffbd 	bl	8004f4c <_ZN6Buffer9readShortEv>
 8006fd2:	2823      	cmp	r0, #35	@ 0x23
 8006fd4:	d002      	beq.n	8006fdc <_ZN10Controller11handleEraseEv+0x14>
    return NACK;
 8006fd6:	2001      	movs	r0, #1
  if (strcmp(str, "ERASE EEPROM PDU") == 0){
    isReset = 1;
    return SystemManagement::getPersistentDataCenter().FactoryReset() == SUCCESS ? ACK : EEPROM_ERROR;
  }
  return NACK;
}
 8006fd8:	b008      	add	sp, #32
 8006fda:	bd10      	pop	{r4, pc}
  mBuffers.getInBuffer().readBlock(str,32);
 8006fdc:	2220      	movs	r2, #32
 8006fde:	4669      	mov	r1, sp
 8006fe0:	4620      	mov	r0, r4
 8006fe2:	f7fe f865 	bl	80050b0 <_ZNK6Buffer9readBlockEPcj>
  if (strcmp(str, "ERASE EEPROM PDU") == 0){
 8006fe6:	490a      	ldr	r1, [pc, #40]	@ (8007010 <_ZN10Controller11handleEraseEv+0x48>)
 8006fe8:	4668      	mov	r0, sp
 8006fea:	f7fb f8db 	bl	80021a4 <strcmp>
 8006fee:	b960      	cbnz	r0, 800700a <_ZN10Controller11handleEraseEv+0x42>
    isReset = 1;
 8006ff0:	2301      	movs	r3, #1
 8006ff2:	f884 3044 	strb.w	r3, [r4, #68]	@ 0x44
 8006ff6:	4b07      	ldr	r3, [pc, #28]	@ (8007014 <_ZN10Controller11handleEraseEv+0x4c>)
 8006ff8:	69d8      	ldr	r0, [r3, #28]
    return SystemManagement::getPersistentDataCenter().FactoryReset() == SUCCESS ? ACK : EEPROM_ERROR;
 8006ffa:	6803      	ldr	r3, [r0, #0]
 8006ffc:	685b      	ldr	r3, [r3, #4]
 8006ffe:	4798      	blx	r3
 8007000:	3801      	subs	r0, #1
 8007002:	bf18      	it	ne
 8007004:	2001      	movne	r0, #1
 8007006:	0040      	lsls	r0, r0, #1
 8007008:	e7e6      	b.n	8006fd8 <_ZN10Controller11handleEraseEv+0x10>
  return NACK;
 800700a:	2001      	movs	r0, #1
 800700c:	e7e4      	b.n	8006fd8 <_ZN10Controller11handleEraseEv+0x10>
 800700e:	bf00      	nop
 8007010:	0800c6b4 	.word	0x0800c6b4
 8007014:	2000abe0 	.word	0x2000abe0

08007018 <_ZN10Controller10readBufferEv>:
{
 8007018:	b5f0      	push	{r4, r5, r6, r7, lr}
 800701a:	b083      	sub	sp, #12
 800701c:	4604      	mov	r4, r0
  unsigned int inSize = mBuffers.getInBuffer().getUnreadSize();
 800701e:	f7fd feef 	bl	8004e00 <_ZNK6Buffer13getUnreadSizeEv>
  while (inSize > 0) {
 8007022:	4606      	mov	r6, r0
 8007024:	b180      	cbz	r0, 8007048 <_ZN10Controller10readBufferEv+0x30>
    mBuffers.getInBuffer().advanceReadTop(1);
 8007026:	2701      	movs	r7, #1
 8007028:	4639      	mov	r1, r7
 800702a:	4620      	mov	r0, r4
 800702c:	f7fe f86b 	bl	8005106 <_ZN6Buffer14advanceReadTopEj>
    Op = mBuffers.getInBuffer().readChar(); //advance read base by 1
 8007030:	4620      	mov	r0, r4
 8007032:	f7fd ff71 	bl	8004f18 <_ZN6Buffer8readCharEv>
    if (Op != 0)
 8007036:	f010 05ff 	ands.w	r5, r0, #255	@ 0xff
 800703a:	d112      	bne.n	8007062 <_ZN10Controller10readBufferEv+0x4a>
    inSize = mBuffers.getInBuffer().getUnreadSize();
 800703c:	4620      	mov	r0, r4
 800703e:	f7fd fedf 	bl	8004e00 <_ZNK6Buffer13getUnreadSizeEv>
  while (inSize > 0) {
 8007042:	4606      	mov	r6, r0
 8007044:	2800      	cmp	r0, #0
 8007046:	d1ef      	bne.n	8007028 <_ZN10Controller10readBufferEv+0x10>
    mBuffers.getInBuffer().advanceReadTop(inSize-1);
 8007048:	1e71      	subs	r1, r6, #1
 800704a:	4620      	mov	r0, r4
 800704c:	f7fe f85b 	bl	8005106 <_ZN6Buffer14advanceReadTopEj>
    mBuffers.getInBuffer().advanceRead(mBuffers.getInBuffer().getDataSize());
 8007050:	4620      	mov	r0, r4
 8007052:	f7fd fee2 	bl	8004e1a <_ZNK6Buffer11getDataSizeEv>
 8007056:	4601      	mov	r1, r0
 8007058:	4620      	mov	r0, r4
 800705a:	f7fe f82f 	bl	80050bc <_ZN6Buffer11advanceReadEj>
    return 0;
 800705e:	2000      	movs	r0, #0
 8007060:	e099      	b.n	8007196 <_ZN10Controller10readBufferEv+0x17e>
  if (inSize < 3) {
 8007062:	2e02      	cmp	r6, #2
 8007064:	d9f0      	bls.n	8007048 <_ZN10Controller10readBufferEv+0x30>
  mBuffers.getInBuffer().advanceReadTop(2);
 8007066:	2102      	movs	r1, #2
 8007068:	4620      	mov	r0, r4
 800706a:	f7fe f84c 	bl	8005106 <_ZN6Buffer14advanceReadTopEj>
 800706e:	6aa3      	ldr	r3, [r4, #40]	@ 0x28
 8007070:	6323      	str	r3, [r4, #48]	@ 0x30
  void changeTargetSocket(uint16_t socket) { mTargetSocket = socket;}
 8007072:	8ca3      	ldrh	r3, [r4, #36]	@ 0x24
 8007074:	85e3      	strh	r3, [r4, #46]	@ 0x2e
  mBuffers.getInBuffer().readBlock((char *)&Length, 2);
 8007076:	2202      	movs	r2, #2
 8007078:	f10d 0106 	add.w	r1, sp, #6
 800707c:	4620      	mov	r0, r4
 800707e:	f7fe f817 	bl	80050b0 <_ZNK6Buffer9readBlockEPcj>
  Length = ntohs(Length);
 8007082:	f8bd 2006 	ldrh.w	r2, [sp, #6]
 8007086:	0213      	lsls	r3, r2, #8
 8007088:	ea43 2312 	orr.w	r3, r3, r2, lsr #8
 800708c:	f8ad 3006 	strh.w	r3, [sp, #6]
  if ((int32_t)mBuffers.getInBuffer().getUnreadSize() < Length - 3)
 8007090:	4620      	mov	r0, r4
 8007092:	f7fd feb5 	bl	8004e00 <_ZNK6Buffer13getUnreadSizeEv>
 8007096:	f8bd 1006 	ldrh.w	r1, [sp, #6]
 800709a:	3903      	subs	r1, #3
 800709c:	4288      	cmp	r0, r1
 800709e:	db61      	blt.n	8007164 <_ZN10Controller10readBufferEv+0x14c>
  mBuffers.getInBuffer().advanceReadTop(Length-3);
 80070a0:	4620      	mov	r0, r4
 80070a2:	f7fe f830 	bl	8005106 <_ZN6Buffer14advanceReadTopEj>
  switch (Op){
 80070a6:	f1a5 0074 	sub.w	r0, r5, #116	@ 0x74
 80070aa:	2858      	cmp	r0, #88	@ 0x58
 80070ac:	d86b      	bhi.n	8007186 <_ZN10Controller10readBufferEv+0x16e>
 80070ae:	e8df f010 	tbh	[pc, r0, lsl #1]
 80070b2:	0065      	.short	0x0065
 80070b4:	0074006a 	.word	0x0074006a
 80070b8:	007a006a 	.word	0x007a006a
 80070bc:	006a006a 	.word	0x006a006a
 80070c0:	006a006a 	.word	0x006a006a
 80070c4:	006a006a 	.word	0x006a006a
 80070c8:	0080006a 	.word	0x0080006a
 80070cc:	0098006a 	.word	0x0098006a
 80070d0:	00b0006a 	.word	0x00b0006a
 80070d4:	00b9006a 	.word	0x00b9006a
 80070d8:	00d1006a 	.word	0x00d1006a
 80070dc:	00e9006a 	.word	0x00e9006a
 80070e0:	006a006a 	.word	0x006a006a
 80070e4:	006a006a 	.word	0x006a006a
 80070e8:	006a006a 	.word	0x006a006a
 80070ec:	006a006a 	.word	0x006a006a
 80070f0:	00f3006a 	.word	0x00f3006a
 80070f4:	00ff006a 	.word	0x00ff006a
 80070f8:	006a006a 	.word	0x006a006a
 80070fc:	010b006a 	.word	0x010b006a
 8007100:	0119006a 	.word	0x0119006a
 8007104:	006a006a 	.word	0x006a006a
 8007108:	006a006a 	.word	0x006a006a
 800710c:	006a006a 	.word	0x006a006a
 8007110:	006a006a 	.word	0x006a006a
 8007114:	006a006a 	.word	0x006a006a
 8007118:	006a006a 	.word	0x006a006a
 800711c:	006a006a 	.word	0x006a006a
 8007120:	006a006a 	.word	0x006a006a
 8007124:	006a006a 	.word	0x006a006a
 8007128:	0122006a 	.word	0x0122006a
 800712c:	006a006a 	.word	0x006a006a
 8007130:	006a006a 	.word	0x006a006a
 8007134:	006a006a 	.word	0x006a006a
 8007138:	006a006a 	.word	0x006a006a
 800713c:	006a006a 	.word	0x006a006a
 8007140:	006a006a 	.word	0x006a006a
 8007144:	006a006a 	.word	0x006a006a
 8007148:	006a006a 	.word	0x006a006a
 800714c:	006a006a 	.word	0x006a006a
 8007150:	006a006a 	.word	0x006a006a
 8007154:	006a006a 	.word	0x006a006a
 8007158:	006a006a 	.word	0x006a006a
 800715c:	0126006a 	.word	0x0126006a
 8007160:	012e006a 	.word	0x012e006a
    mBuffers.getInBuffer().advanceReadTop();
 8007164:	4620      	mov	r0, r4
 8007166:	f7fd ffcb 	bl	8005100 <_ZN6Buffer14advanceReadTopEv>
    mBuffers.getInBuffer().advanceRead(mBuffers.getInBuffer().getDataSize());
 800716a:	4620      	mov	r0, r4
 800716c:	f7fd fe55 	bl	8004e1a <_ZNK6Buffer11getDataSizeEv>
 8007170:	4601      	mov	r1, r0
 8007172:	4620      	mov	r0, r4
 8007174:	f7fd ffa2 	bl	80050bc <_ZN6Buffer11advanceReadEj>
    return 0;
 8007178:	2000      	movs	r0, #0
 800717a:	e00c      	b.n	8007196 <_ZN10Controller10readBufferEv+0x17e>
    SendStatus(CONTROL_OPCODE_STATUS,0);
 800717c:	2200      	movs	r2, #0
 800717e:	2175      	movs	r1, #117	@ 0x75
 8007180:	4620      	mov	r0, r4
 8007182:	f7ff fd69 	bl	8006c58 <_ZN10Controller10SendStatusE14CONTROL_OPCODEh>
  mBuffers.getInBuffer().advanceRead(mBuffers.getInBuffer().getDataSize());    
 8007186:	4620      	mov	r0, r4
 8007188:	f7fd fe47 	bl	8004e1a <_ZNK6Buffer11getDataSizeEv>
 800718c:	4601      	mov	r1, r0
 800718e:	4620      	mov	r0, r4
 8007190:	f7fd ff94 	bl	80050bc <_ZN6Buffer11advanceReadEj>
  return 1;
 8007194:	2001      	movs	r0, #1
}
 8007196:	b003      	add	sp, #12
 8007198:	bdf0      	pop	{r4, r5, r6, r7, pc}
    handleGetPDUInfo( mBuffers.getOutBuffer() );
 800719a:	f104 0110 	add.w	r1, r4, #16
 800719e:	4620      	mov	r0, r4
 80071a0:	f7ff fe7e 	bl	8006ea0 <_ZN10Controller16handleGetPDUInfoER6Buffer>
    break;
 80071a4:	e7ef      	b.n	8007186 <_ZN10Controller10readBufferEv+0x16e>
	SendStatus(CONTROL_OPCODE_STATUS_EXT,0);
 80071a6:	2200      	movs	r2, #0
 80071a8:	2179      	movs	r1, #121	@ 0x79
 80071aa:	4620      	mov	r0, r4
 80071ac:	f7ff fd54 	bl	8006c58 <_ZN10Controller10SendStatusE14CONTROL_OPCODEh>
	break;
 80071b0:	e7e9      	b.n	8007186 <_ZN10Controller10readBufferEv+0x16e>
    if (mSingelton == NULL)
 80071b2:	4b5d      	ldr	r3, [pc, #372]	@ (8007328 <_ZN10Controller10readBufferEv+0x310>)
 80071b4:	681b      	ldr	r3, [r3, #0]
 80071b6:	b153      	cbz	r3, 80071ce <_ZN10Controller10readBufferEv+0x1b6>
    sendAckNack(CONTROL_OPCODE_OUTPUT_ACK, HardwareCenter::GetInstance().handleSetOutput(mBuffers.getInBuffer()));
 80071b8:	4621      	mov	r1, r4
 80071ba:	4b5b      	ldr	r3, [pc, #364]	@ (8007328 <_ZN10Controller10readBufferEv+0x310>)
 80071bc:	6818      	ldr	r0, [r3, #0]
 80071be:	f7fd fb79 	bl	80048b4 <_ZN14HardwareCenter15handleSetOutputER6Buffer>
 80071c2:	4602      	mov	r2, r0
 80071c4:	2181      	movs	r1, #129	@ 0x81
 80071c6:	4620      	mov	r0, r4
 80071c8:	f7ff fe55 	bl	8006e76 <_ZN10Controller11sendAckNackE14CONTROL_OPCODE15COMMAND_SUCCESS>
    break;
 80071cc:	e7db      	b.n	8007186 <_ZN10Controller10readBufferEv+0x16e>
      mSingelton = new HardwareCenter;
 80071ce:	f44f 702e 	mov.w	r0, #696	@ 0x2b8
 80071d2:	f004 fe91 	bl	800bef8 <_Znwj>
 80071d6:	4605      	mov	r5, r0
 80071d8:	f7fc ff4e 	bl	8004078 <_ZN14HardwareCenterC1Ev>
 80071dc:	4b52      	ldr	r3, [pc, #328]	@ (8007328 <_ZN10Controller10readBufferEv+0x310>)
 80071de:	601d      	str	r5, [r3, #0]
 80071e0:	e7ea      	b.n	80071b8 <_ZN10Controller10readBufferEv+0x1a0>
    if (mSingelton == NULL)
 80071e2:	4b51      	ldr	r3, [pc, #324]	@ (8007328 <_ZN10Controller10readBufferEv+0x310>)
 80071e4:	681b      	ldr	r3, [r3, #0]
 80071e6:	b153      	cbz	r3, 80071fe <_ZN10Controller10readBufferEv+0x1e6>
    sendAckNack(CONTROL_OPCODE_TRIP_RESET_ACK, HardwareCenter::GetInstance().handleTripRest(mBuffers.getInBuffer()));
 80071e8:	4621      	mov	r1, r4
 80071ea:	4b4f      	ldr	r3, [pc, #316]	@ (8007328 <_ZN10Controller10readBufferEv+0x310>)
 80071ec:	6818      	ldr	r0, [r3, #0]
 80071ee:	f7fd fbf9 	bl	80049e4 <_ZN14HardwareCenter14handleTripRestER6Buffer>
 80071f2:	4602      	mov	r2, r0
 80071f4:	2183      	movs	r1, #131	@ 0x83
 80071f6:	4620      	mov	r0, r4
 80071f8:	f7ff fe3d 	bl	8006e76 <_ZN10Controller11sendAckNackE14CONTROL_OPCODE15COMMAND_SUCCESS>
    break;
 80071fc:	e7c3      	b.n	8007186 <_ZN10Controller10readBufferEv+0x16e>
      mSingelton = new HardwareCenter;
 80071fe:	f44f 702e 	mov.w	r0, #696	@ 0x2b8
 8007202:	f004 fe79 	bl	800bef8 <_Znwj>
 8007206:	4605      	mov	r5, r0
 8007208:	f7fc ff36 	bl	8004078 <_ZN14HardwareCenterC1Ev>
 800720c:	4b46      	ldr	r3, [pc, #280]	@ (8007328 <_ZN10Controller10readBufferEv+0x310>)
 800720e:	601d      	str	r5, [r3, #0]
 8007210:	e7ea      	b.n	80071e8 <_ZN10Controller10readBufferEv+0x1d0>
    isReset = 1;
 8007212:	2301      	movs	r3, #1
 8007214:	f884 3044 	strb.w	r3, [r4, #68]	@ 0x44
    sendAckNack(CONTROL_OPCODE_RESET_ACK, COMMAND_SUCCESS::ACK);
 8007218:	2200      	movs	r2, #0
 800721a:	2185      	movs	r1, #133	@ 0x85
 800721c:	4620      	mov	r0, r4
 800721e:	f7ff fe2a 	bl	8006e76 <_ZN10Controller11sendAckNackE14CONTROL_OPCODE15COMMAND_SUCCESS>
    break;
 8007222:	e7b0      	b.n	8007186 <_ZN10Controller10readBufferEv+0x16e>
    if (mSingelton == NULL)
 8007224:	4b40      	ldr	r3, [pc, #256]	@ (8007328 <_ZN10Controller10readBufferEv+0x310>)
 8007226:	681b      	ldr	r3, [r3, #0]
 8007228:	b153      	cbz	r3, 8007240 <_ZN10Controller10readBufferEv+0x228>
    sendAckNack(CONTROL_OPCODE_BATTLE_ACK, HardwareCenter::GetInstance().handleSetBattle(mBuffers.getInBuffer()));
 800722a:	4621      	mov	r1, r4
 800722c:	4b3e      	ldr	r3, [pc, #248]	@ (8007328 <_ZN10Controller10readBufferEv+0x310>)
 800722e:	6818      	ldr	r0, [r3, #0]
 8007230:	f7fd fbaa 	bl	8004988 <_ZN14HardwareCenter15handleSetBattleER6Buffer>
 8007234:	4602      	mov	r2, r0
 8007236:	2187      	movs	r1, #135	@ 0x87
 8007238:	4620      	mov	r0, r4
 800723a:	f7ff fe1c 	bl	8006e76 <_ZN10Controller11sendAckNackE14CONTROL_OPCODE15COMMAND_SUCCESS>
    break;  
 800723e:	e7a2      	b.n	8007186 <_ZN10Controller10readBufferEv+0x16e>
      mSingelton = new HardwareCenter;
 8007240:	f44f 702e 	mov.w	r0, #696	@ 0x2b8
 8007244:	f004 fe58 	bl	800bef8 <_Znwj>
 8007248:	4605      	mov	r5, r0
 800724a:	f7fc ff15 	bl	8004078 <_ZN14HardwareCenterC1Ev>
 800724e:	4b36      	ldr	r3, [pc, #216]	@ (8007328 <_ZN10Controller10readBufferEv+0x310>)
 8007250:	601d      	str	r5, [r3, #0]
 8007252:	e7ea      	b.n	800722a <_ZN10Controller10readBufferEv+0x212>
    if (mSingelton == NULL)
 8007254:	4b34      	ldr	r3, [pc, #208]	@ (8007328 <_ZN10Controller10readBufferEv+0x310>)
 8007256:	681b      	ldr	r3, [r3, #0]
 8007258:	b153      	cbz	r3, 8007270 <_ZN10Controller10readBufferEv+0x258>
    sendAckNack(CONTROL_OPCODE_GPO_ACK,HardwareCenter::GetInstance().handleSetGPO(mBuffers.getInBuffer()));
 800725a:	4621      	mov	r1, r4
 800725c:	4b32      	ldr	r3, [pc, #200]	@ (8007328 <_ZN10Controller10readBufferEv+0x310>)
 800725e:	6818      	ldr	r0, [r3, #0]
 8007260:	f7fd fa50 	bl	8004704 <_ZN14HardwareCenter12handleSetGPOER6Buffer>
 8007264:	4602      	mov	r2, r0
 8007266:	2189      	movs	r1, #137	@ 0x89
 8007268:	4620      	mov	r0, r4
 800726a:	f7ff fe04 	bl	8006e76 <_ZN10Controller11sendAckNackE14CONTROL_OPCODE15COMMAND_SUCCESS>
    break;
 800726e:	e78a      	b.n	8007186 <_ZN10Controller10readBufferEv+0x16e>
      mSingelton = new HardwareCenter;
 8007270:	f44f 702e 	mov.w	r0, #696	@ 0x2b8
 8007274:	f004 fe40 	bl	800bef8 <_Znwj>
 8007278:	4605      	mov	r5, r0
 800727a:	f7fc fefd 	bl	8004078 <_ZN14HardwareCenterC1Ev>
 800727e:	4b2a      	ldr	r3, [pc, #168]	@ (8007328 <_ZN10Controller10readBufferEv+0x310>)
 8007280:	601d      	str	r5, [r3, #0]
 8007282:	e7ea      	b.n	800725a <_ZN10Controller10readBufferEv+0x242>
    sendAckNack(CONTROL_OPCODE_STATE_ACK, handleRecievedState(mBuffers.getInBuffer()));
 8007284:	4621      	mov	r1, r4
 8007286:	4620      	mov	r0, r4
 8007288:	f7ff fdd8 	bl	8006e3c <_ZN10Controller19handleRecievedStateER6Buffer>
 800728c:	4602      	mov	r2, r0
 800728e:	218b      	movs	r1, #139	@ 0x8b
 8007290:	4620      	mov	r0, r4
 8007292:	f7ff fdf0 	bl	8006e76 <_ZN10Controller11sendAckNackE14CONTROL_OPCODE15COMMAND_SUCCESS>
    break;
 8007296:	e776      	b.n	8007186 <_ZN10Controller10readBufferEv+0x16e>
 8007298:	4b24      	ldr	r3, [pc, #144]	@ (800732c <_ZN10Controller10readBufferEv+0x314>)
 800729a:	69d8      	ldr	r0, [r3, #28]
    sendAckNack(CONTROL_OPCODE_MACRO_ACK, SystemManagement::getPersistentDataCenter().handleSetMacro(mBuffers.getInBuffer()));
 800729c:	6803      	ldr	r3, [r0, #0]
 800729e:	6adb      	ldr	r3, [r3, #44]	@ 0x2c
 80072a0:	4621      	mov	r1, r4
 80072a2:	4798      	blx	r3
 80072a4:	4602      	mov	r2, r0
 80072a6:	2195      	movs	r1, #149	@ 0x95
 80072a8:	4620      	mov	r0, r4
 80072aa:	f7ff fde4 	bl	8006e76 <_ZN10Controller11sendAckNackE14CONTROL_OPCODE15COMMAND_SUCCESS>
    break;
 80072ae:	e76a      	b.n	8007186 <_ZN10Controller10readBufferEv+0x16e>
 80072b0:	4b1e      	ldr	r3, [pc, #120]	@ (800732c <_ZN10Controller10readBufferEv+0x314>)
 80072b2:	69d8      	ldr	r0, [r3, #28]
    sendAckNack(CONTROL_OPCODE_CONFIG_ACK, SystemManagement::getPersistentDataCenter().handleSetConfig(mBuffers.getInBuffer()));
 80072b4:	6803      	ldr	r3, [r0, #0]
 80072b6:	6b1b      	ldr	r3, [r3, #48]	@ 0x30
 80072b8:	4621      	mov	r1, r4
 80072ba:	4798      	blx	r3
 80072bc:	4602      	mov	r2, r0
 80072be:	2197      	movs	r1, #151	@ 0x97
 80072c0:	4620      	mov	r0, r4
 80072c2:	f7ff fdd8 	bl	8006e76 <_ZN10Controller11sendAckNackE14CONTROL_OPCODE15COMMAND_SUCCESS>
    break;
 80072c6:	e75e      	b.n	8007186 <_ZN10Controller10readBufferEv+0x16e>
 80072c8:	f104 0510 	add.w	r5, r4, #16
    mBuffers.getOutBuffer().writeChar(CONTROL_OPCODE_CONFIG);
 80072cc:	219b      	movs	r1, #155	@ 0x9b
 80072ce:	4628      	mov	r0, r5
 80072d0:	f7fd fdc5 	bl	8004e5e <_ZN6Buffer9writeCharEc>
 80072d4:	4b15      	ldr	r3, [pc, #84]	@ (800732c <_ZN10Controller10readBufferEv+0x314>)
 80072d6:	69d8      	ldr	r0, [r3, #28]
    SystemManagement::getPersistentDataCenter().handleGetConfig(mBuffers.getInBuffer(), mBuffers.getOutBuffer());
 80072d8:	6803      	ldr	r3, [r0, #0]
 80072da:	6c5b      	ldr	r3, [r3, #68]	@ 0x44
 80072dc:	462a      	mov	r2, r5
 80072de:	4621      	mov	r1, r4
 80072e0:	4798      	blx	r3
    break;    
 80072e2:	e750      	b.n	8007186 <_ZN10Controller10readBufferEv+0x16e>
    sendAckNack(CONTROL_OPCODE_ERASE_ACK, handleErase());
 80072e4:	4620      	mov	r0, r4
 80072e6:	f7ff fe6f 	bl	8006fc8 <_ZN10Controller11handleEraseEv>
 80072ea:	4602      	mov	r2, r0
 80072ec:	219d      	movs	r1, #157	@ 0x9d
 80072ee:	4620      	mov	r0, r4
 80072f0:	f7ff fdc1 	bl	8006e76 <_ZN10Controller11sendAckNackE14CONTROL_OPCODE15COMMAND_SUCCESS>
    break;
 80072f4:	e747      	b.n	8007186 <_ZN10Controller10readBufferEv+0x16e>
    handleSetDebug();
 80072f6:	4620      	mov	r0, r4
 80072f8:	f7ff fe08 	bl	8006f0c <_ZN10Controller14handleSetDebugEv>
    break;
 80072fc:	e743      	b.n	8007186 <_ZN10Controller10readBufferEv+0x16e>
    mCommunicationCenter.getUpgradeMan().handleGetSoftwareInfo(mBuffers.getOutBuffer());
 80072fe:	6c20      	ldr	r0, [r4, #64]	@ 0x40
 8007300:	f7fd fd22 	bl	8004d48 <_ZN19CommunicationCenter13getUpgradeManEv>
 8007304:	f104 0110 	add.w	r1, r4, #16
 8007308:	f000 feba 	bl	8008080 <_ZN14upgradeManager21handleGetSoftwareInfoER6Buffer>
    break;
 800730c:	e73b      	b.n	8007186 <_ZN10Controller10readBufferEv+0x16e>
    sendAckNack(CONTROL_OPCODE_SW_UPDATE_ACK, mCommunicationCenter.getUpgradeMan().handleSetSoftwareUpdate(mBuffers.getInBuffer()));
 800730e:	6c20      	ldr	r0, [r4, #64]	@ 0x40
 8007310:	f7fd fd1a 	bl	8004d48 <_ZN19CommunicationCenter13getUpgradeManEv>
 8007314:	4621      	mov	r1, r4
 8007316:	f000 fe8b 	bl	8008030 <_ZN14upgradeManager23handleSetSoftwareUpdateER6Buffer>
 800731a:	4602      	mov	r2, r0
 800731c:	21cd      	movs	r1, #205	@ 0xcd
 800731e:	4620      	mov	r0, r4
 8007320:	f7ff fda9 	bl	8006e76 <_ZN10Controller11sendAckNackE14CONTROL_OPCODE15COMMAND_SUCCESS>
    break;
 8007324:	e72f      	b.n	8007186 <_ZN10Controller10readBufferEv+0x16e>
 8007326:	bf00      	nop
 8007328:	200003f4 	.word	0x200003f4
 800732c:	2000abe0 	.word	0x2000abe0

08007330 <_ZN10Controller12periodicCallEv>:
void Controller::periodicCall(){
 8007330:	b538      	push	{r3, r4, r5, lr}
 8007332:	4604      	mov	r4, r0
// returns an indication whether server is closed.
// server is closed only when connection is closed as well.
// **************************************************************
bool Controller::isClosed() const
{
  if (!mUDPConnection.isClosed()) {
 8007334:	3020      	adds	r0, #32
 8007336:	f7ff fb0f 	bl	8006958 <_ZNK13UDPConnection8isClosedEv>
  if (isClosed()) return;
 800733a:	b100      	cbz	r0, 800733e <_ZN10Controller12periodicCallEv+0xe>
}
 800733c:	bd38      	pop	{r3, r4, r5, pc}
  if(readBuffer())
 800733e:	4620      	mov	r0, r4
 8007340:	f7ff fe6a 	bl	8007018 <_ZN10Controller10readBufferEv>
 8007344:	2800      	cmp	r0, #0
 8007346:	d15a      	bne.n	80073fe <_ZN10Controller12periodicCallEv+0xce>
    if (mSingelton == NULL)
 8007348:	4b55      	ldr	r3, [pc, #340]	@ (80074a0 <_ZN10Controller12periodicCallEv+0x170>)
 800734a:	681b      	ldr	r3, [r3, #0]
 800734c:	2b00      	cmp	r3, #0
 800734e:	d05b      	beq.n	8007408 <_ZN10Controller12periodicCallEv+0xd8>
  if(HardwareCenter::GetInstance().GetAlert())
 8007350:	4b53      	ldr	r3, [pc, #332]	@ (80074a0 <_ZN10Controller12periodicCallEv+0x170>)
 8007352:	6818      	ldr	r0, [r3, #0]
 8007354:	f7fd f9c0 	bl	80046d8 <_ZNK14HardwareCenter8GetAlertEv>
 8007358:	2800      	cmp	r0, #0
 800735a:	d15f      	bne.n	800741c <_ZN10Controller12periodicCallEv+0xec>
  if ((getTimerTicks() % STATE_INTERVAL < 300 && State_flag == 1) || (State_flag == 3))
 800735c:	f002 ffb8 	bl	800a2d0 <getTimerTicks>
 8007360:	4b50      	ldr	r3, [pc, #320]	@ (80074a4 <_ZN10Controller12periodicCallEv+0x174>)
 8007362:	fba3 2300 	umull	r2, r3, r3, r0
 8007366:	099b      	lsrs	r3, r3, #6
 8007368:	f44f 727a 	mov.w	r2, #1000	@ 0x3e8
 800736c:	fb02 0013 	mls	r0, r2, r3, r0
 8007370:	f5b0 7f96 	cmp.w	r0, #300	@ 0x12c
 8007374:	d203      	bcs.n	800737e <_ZN10Controller12periodicCallEv+0x4e>
 8007376:	f894 3046 	ldrb.w	r3, [r4, #70]	@ 0x46
 800737a:	2b01      	cmp	r3, #1
 800737c:	d06c      	beq.n	8007458 <_ZN10Controller12periodicCallEv+0x128>
 800737e:	f894 3046 	ldrb.w	r3, [r4, #70]	@ 0x46
 8007382:	2b03      	cmp	r3, #3
 8007384:	d068      	beq.n	8007458 <_ZN10Controller12periodicCallEv+0x128>
  else if ( getTimerTicks() % STATE_INTERVAL > 300 && State_flag == 2)
 8007386:	f002 ffa3 	bl	800a2d0 <getTimerTicks>
 800738a:	4b46      	ldr	r3, [pc, #280]	@ (80074a4 <_ZN10Controller12periodicCallEv+0x174>)
 800738c:	fba3 2300 	umull	r2, r3, r3, r0
 8007390:	099b      	lsrs	r3, r3, #6
 8007392:	f44f 727a 	mov.w	r2, #1000	@ 0x3e8
 8007396:	fb02 0013 	mls	r0, r2, r3, r0
 800739a:	f5b0 7f96 	cmp.w	r0, #300	@ 0x12c
 800739e:	d862      	bhi.n	8007466 <_ZN10Controller12periodicCallEv+0x136>
  if ( getTimerTicks() % KEEPALIVE_INTERVAL < 300 && sec_5_flag == 1){
 80073a0:	f002 ff96 	bl	800a2d0 <getTimerTicks>
 80073a4:	4b3f      	ldr	r3, [pc, #252]	@ (80074a4 <_ZN10Controller12periodicCallEv+0x174>)
 80073a6:	fba3 2300 	umull	r2, r3, r3, r0
 80073aa:	099b      	lsrs	r3, r3, #6
 80073ac:	f44f 727a 	mov.w	r2, #1000	@ 0x3e8
 80073b0:	fb02 0013 	mls	r0, r2, r3, r0
 80073b4:	f5b0 7f96 	cmp.w	r0, #300	@ 0x12c
 80073b8:	d203      	bcs.n	80073c2 <_ZN10Controller12periodicCallEv+0x92>
 80073ba:	4b3b      	ldr	r3, [pc, #236]	@ (80074a8 <_ZN10Controller12periodicCallEv+0x178>)
 80073bc:	781b      	ldrb	r3, [r3, #0]
 80073be:	2b01      	cmp	r3, #1
 80073c0:	d059      	beq.n	8007476 <_ZN10Controller12periodicCallEv+0x146>
  else if ( getTimerTicks() % KEEPALIVE_INTERVAL > 300)
 80073c2:	f002 ff85 	bl	800a2d0 <getTimerTicks>
 80073c6:	4b37      	ldr	r3, [pc, #220]	@ (80074a4 <_ZN10Controller12periodicCallEv+0x174>)
 80073c8:	fba3 2300 	umull	r2, r3, r3, r0
 80073cc:	099b      	lsrs	r3, r3, #6
 80073ce:	f44f 727a 	mov.w	r2, #1000	@ 0x3e8
 80073d2:	fb02 0013 	mls	r0, r2, r3, r0
 80073d6:	f5b0 7f96 	cmp.w	r0, #300	@ 0x12c
 80073da:	d85c      	bhi.n	8007496 <_ZN10Controller12periodicCallEv+0x166>
 80073dc:	f104 0510 	add.w	r5, r4, #16
  mBuffers.getOutBuffer().advanceReadTop();
 80073e0:	4628      	mov	r0, r5
 80073e2:	f7fd fe8d 	bl	8005100 <_ZN6Buffer14advanceReadTopEv>
  if (mBuffers.getOutBuffer().getDataSize() == 0 && isReset)
 80073e6:	4628      	mov	r0, r5
 80073e8:	f7fd fd17 	bl	8004e1a <_ZNK6Buffer11getDataSizeEv>
 80073ec:	2800      	cmp	r0, #0
 80073ee:	d1a5      	bne.n	800733c <_ZN10Controller12periodicCallEv+0xc>
 80073f0:	f894 3044 	ldrb.w	r3, [r4, #68]	@ 0x44
 80073f4:	2b00      	cmp	r3, #0
 80073f6:	d0a1      	beq.n	800733c <_ZN10Controller12periodicCallEv+0xc>
    SystemManagement::registerReboot();
 80073f8:	f001 f8b0 	bl	800855c <_ZN16SystemManagement14registerRebootEv>
 80073fc:	e79e      	b.n	800733c <_ZN10Controller12periodicCallEv+0xc>
    mBuffers.getOutBuffer().advanceReadTop();
 80073fe:	f104 0010 	add.w	r0, r4, #16
 8007402:	f7fd fe7d 	bl	8005100 <_ZN6Buffer14advanceReadTopEv>
    return;
 8007406:	e799      	b.n	800733c <_ZN10Controller12periodicCallEv+0xc>
      mSingelton = new HardwareCenter;
 8007408:	f44f 702e 	mov.w	r0, #696	@ 0x2b8
 800740c:	f004 fd74 	bl	800bef8 <_Znwj>
 8007410:	4605      	mov	r5, r0
 8007412:	f7fc fe31 	bl	8004078 <_ZN14HardwareCenterC1Ev>
 8007416:	4b22      	ldr	r3, [pc, #136]	@ (80074a0 <_ZN10Controller12periodicCallEv+0x170>)
 8007418:	601d      	str	r5, [r3, #0]
 800741a:	e799      	b.n	8007350 <_ZN10Controller12periodicCallEv+0x20>
 800741c:	f649 4313 	movw	r3, #39955	@ 0x9c13
 8007420:	85e3      	strh	r3, [r4, #46]	@ 0x2e
    SendStatus(CONTROL_OPCODE_STATUS,1);
 8007422:	2201      	movs	r2, #1
 8007424:	2175      	movs	r1, #117	@ 0x75
 8007426:	4620      	mov	r0, r4
 8007428:	f7ff fc16 	bl	8006c58 <_ZN10Controller10SendStatusE14CONTROL_OPCODEh>
    mBuffers.getOutBuffer().advanceReadTop();
 800742c:	f104 0010 	add.w	r0, r4, #16
 8007430:	f7fd fe66 	bl	8005100 <_ZN6Buffer14advanceReadTopEv>
    if (mSingelton == NULL)
 8007434:	4b1a      	ldr	r3, [pc, #104]	@ (80074a0 <_ZN10Controller12periodicCallEv+0x170>)
 8007436:	681b      	ldr	r3, [r3, #0]
 8007438:	b123      	cbz	r3, 8007444 <_ZN10Controller12periodicCallEv+0x114>
    HardwareCenter::GetInstance().AlertAcknoledge();
 800743a:	4b19      	ldr	r3, [pc, #100]	@ (80074a0 <_ZN10Controller12periodicCallEv+0x170>)
 800743c:	6818      	ldr	r0, [r3, #0]
 800743e:	f7fd f957 	bl	80046f0 <_ZN14HardwareCenter15AlertAcknoledgeEv>
    return;
 8007442:	e77b      	b.n	800733c <_ZN10Controller12periodicCallEv+0xc>
      mSingelton = new HardwareCenter;
 8007444:	f44f 702e 	mov.w	r0, #696	@ 0x2b8
 8007448:	f004 fd56 	bl	800bef8 <_Znwj>
 800744c:	4604      	mov	r4, r0
 800744e:	f7fc fe13 	bl	8004078 <_ZN14HardwareCenterC1Ev>
 8007452:	4b13      	ldr	r3, [pc, #76]	@ (80074a0 <_ZN10Controller12periodicCallEv+0x170>)
 8007454:	601c      	str	r4, [r3, #0]
 8007456:	e7f0      	b.n	800743a <_ZN10Controller12periodicCallEv+0x10a>
    State_flag = 2;
 8007458:	2302      	movs	r3, #2
 800745a:	f884 3046 	strb.w	r3, [r4, #70]	@ 0x46
    SendState();
 800745e:	4620      	mov	r0, r4
 8007460:	f7ff fcba 	bl	8006dd8 <_ZN10Controller9SendStateEv>
    return;
 8007464:	e76a      	b.n	800733c <_ZN10Controller12periodicCallEv+0xc>
  else if ( getTimerTicks() % STATE_INTERVAL > 300 && State_flag == 2)
 8007466:	f894 3046 	ldrb.w	r3, [r4, #70]	@ 0x46
 800746a:	2b02      	cmp	r3, #2
    State_flag = 1; 
 800746c:	bf04      	itt	eq
 800746e:	2301      	moveq	r3, #1
 8007470:	f884 3046 	strbeq.w	r3, [r4, #70]	@ 0x46
 8007474:	e794      	b.n	80073a0 <_ZN10Controller12periodicCallEv+0x70>
    sec_5_flag = 0;
 8007476:	4b0c      	ldr	r3, [pc, #48]	@ (80074a8 <_ZN10Controller12periodicCallEv+0x178>)
 8007478:	2200      	movs	r2, #0
 800747a:	701a      	strb	r2, [r3, #0]
 800747c:	f648 0313 	movw	r3, #34835	@ 0x8813
 8007480:	85e3      	strh	r3, [r4, #46]	@ 0x2e
    SendStatus(CONTROL_OPCODE_KEEPALIVE,1);
 8007482:	2201      	movs	r2, #1
 8007484:	215a      	movs	r1, #90	@ 0x5a
 8007486:	4620      	mov	r0, r4
 8007488:	f7ff fbe6 	bl	8006c58 <_ZN10Controller10SendStatusE14CONTROL_OPCODEh>
    mBuffers.getOutBuffer().advanceReadTop();
 800748c:	f104 0010 	add.w	r0, r4, #16
 8007490:	f7fd fe36 	bl	8005100 <_ZN6Buffer14advanceReadTopEv>
    return;
 8007494:	e752      	b.n	800733c <_ZN10Controller12periodicCallEv+0xc>
    sec_5_flag = 1;  
 8007496:	4b04      	ldr	r3, [pc, #16]	@ (80074a8 <_ZN10Controller12periodicCallEv+0x178>)
 8007498:	2201      	movs	r2, #1
 800749a:	701a      	strb	r2, [r3, #0]
 800749c:	e79e      	b.n	80073dc <_ZN10Controller12periodicCallEv+0xac>
 800749e:	bf00      	nop
 80074a0:	200003f4 	.word	0x200003f4
 80074a4:	10624dd3 	.word	0x10624dd3
 80074a8:	20000016 	.word	0x20000016

080074ac <_ZN10DHCPClientC1ER6IPDataR6Layer3>:
// **********************************************************************

// **************************************************************
// constructor
// **************************************************************
DHCPClient::DHCPClient( IPData& IP, Layer3& udpLayer) :
 80074ac:	b570      	push	{r4, r5, r6, lr}
 80074ae:	4604      	mov	r4, r0
 80074b0:	460d      	mov	r5, r1
 80074b2:	4616      	mov	r6, r2
  mBuffers(UDP_PORT_DHCP),
 80074b4:	2100      	movs	r1, #0
 80074b6:	f7fd fc55 	bl	8004d64 <_ZN19BidirectionalBufferC1E12TCPPortTypes>
  mUDPConnection(mBuffers, udpLayer),
 80074ba:	4632      	mov	r2, r6
 80074bc:	4621      	mov	r1, r4
 80074be:	f104 0020 	add.w	r0, r4, #32
 80074c2:	f7ff fa91 	bl	80069e8 <_ZN13UDPConnectionC1ER19BidirectionalBufferR6Layer3>
  mRenew_Time(0),
 80074c6:	2300      	movs	r3, #0
 80074c8:	6423      	str	r3, [r4, #64]	@ 0x40
  mRebind_Time(0),
 80074ca:	6463      	str	r3, [r4, #68]	@ 0x44
  mLease_Time(0),
 80074cc:	64a3      	str	r3, [r4, #72]	@ 0x48
  mTimeFlag(0),
 80074ce:	f884 304c 	strb.w	r3, [r4, #76]	@ 0x4c
  mLastServer(0),
 80074d2:	6523      	str	r3, [r4, #80]	@ 0x50
  mIPData(IP),
 80074d4:	6565      	str	r5, [r4, #84]	@ 0x54
  mState(DHCP_State_INIT),
 80074d6:	f884 3058 	strb.w	r3, [r4, #88]	@ 0x58
  mXID(0)
 80074da:	65e3      	str	r3, [r4, #92]	@ 0x5c

    
  { 
  }
 80074dc:	4620      	mov	r0, r4
 80074de:	bd70      	pop	{r4, r5, r6, pc}

080074e0 <_ZN10DHCPClient10openSocketEv>:
  // **************************************************************
  // initialization call.
  // notifies that persistent settings are loaded.
  // **************************************************************
  void DHCPClient::openSocket()
  {
 80074e0:	b508      	push	{r3, lr}
    mUDPConnection.openObject(DHCP_CLIENT_PORT, DHCP_SERVER_PORT, 0xFFFFFFFF );
 80074e2:	f04f 33ff 	mov.w	r3, #4294967295
 80074e6:	f44f 4286 	mov.w	r2, #17152	@ 0x4300
 80074ea:	f44f 4188 	mov.w	r1, #17408	@ 0x4400
 80074ee:	3020      	adds	r0, #32
 80074f0:	f7ff fa97 	bl	8006a22 <_ZN13UDPConnection10openObjectEttm>
  }
 80074f4:	bd08      	pop	{r3, pc}

080074f6 <_ZN10DHCPClient11closeSocketEv>:
  
  // **************************************************************
  // marks the telnet server as closing.
  // **************************************************************
  void DHCPClient::closeSocket()
  {
 80074f6:	b508      	push	{r3, lr}
    mUDPConnection.closeObject();
 80074f8:	3020      	adds	r0, #32
 80074fa:	f7ff fa85 	bl	8006a08 <_ZN13UDPConnection11closeObjectEv>
  }
 80074fe:	bd08      	pop	{r3, pc}

08007500 <_ZN10DHCPClient11sendMessageE17DHCP_Message_Typemm>:
  return;
  }
  
  }
  */ 
  void DHCPClient::sendMessage(DHCP_Message_Type messageType, uint32_t requestIP, uint32_t serverIP){
 8007500:	b5f0      	push	{r4, r5, r6, r7, lr}
 8007502:	b085      	sub	sp, #20
 8007504:	4605      	mov	r5, r0
 8007506:	460e      	mov	r6, r1
 8007508:	9201      	str	r2, [sp, #4]
 800750a:	9300      	str	r3, [sp, #0]
  void reset();                         // not multithreaded safe!

  void advanceReadTop();

  Buffer& getInBuffer() {return mBufferIn;}
  Buffer& getOutBuffer() {return mBufferOut;}
 800750c:	f100 0410 	add.w	r4, r0, #16
    mBuffers.getOutBuffer().writeBlock("\x01\x01\x06\x00",4);
 8007510:	4f2c      	ldr	r7, [pc, #176]	@ (80075c4 <_ZN10DHCPClient11sendMessageE17DHCP_Message_Typemm+0xc4>)
 8007512:	2204      	movs	r2, #4
 8007514:	4639      	mov	r1, r7
 8007516:	4620      	mov	r0, r4
 8007518:	f7fd fd2e 	bl	8004f78 <_ZN6Buffer10writeBlockEPKvj>
    mBuffers.getOutBuffer().writeBlock(&mXID,4);
 800751c:	2204      	movs	r2, #4
 800751e:	f105 015c 	add.w	r1, r5, #92	@ 0x5c
 8007522:	4620      	mov	r0, r4
 8007524:	f7fd fd28 	bl	8004f78 <_ZN6Buffer10writeBlockEPKvj>
    mBuffers.getOutBuffer().writeBlock("\x00\x00\x80\x00",4); //SECS, FLAGS
 8007528:	2204      	movs	r2, #4
 800752a:	f107 0108 	add.w	r1, r7, #8
 800752e:	4620      	mov	r0, r4
 8007530:	f7fd fd22 	bl	8004f78 <_ZN6Buffer10writeBlockEPKvj>
    //mBuffers.getOutBuffer().writeBlock(&requestIP,4); //CIADDR
    mBuffers.getOutBuffer().writeNChar(0, 16);  //CIADDR, YIADDR , SIADDR , GIADDR
 8007534:	2210      	movs	r2, #16
 8007536:	2100      	movs	r1, #0
 8007538:	4620      	mov	r0, r4
 800753a:	f7fd fcb6 	bl	8004eaa <_ZN6Buffer10writeNCharEci>
 800753e:	4b22      	ldr	r3, [pc, #136]	@ (80075c8 <_ZN10DHCPClient11sendMessageE17DHCP_Message_Typemm+0xc8>)
 8007540:	69d8      	ldr	r0, [r3, #28]
    MACAddr macaddr = SystemManagement::getPersistentDataCenter().getMacAddr();
 8007542:	6803      	ldr	r3, [r0, #0]
 8007544:	689b      	ldr	r3, [r3, #8]
 8007546:	4798      	blx	r3
 8007548:	4601      	mov	r1, r0
 800754a:	a802      	add	r0, sp, #8
 800754c:	f7fe ffb1 	bl	80064b2 <_ZN7MACAddrC1ERKS_>
    mBuffers.getOutBuffer().writeBlock(macaddr.getAddr(),6); //CHADDR
 8007550:	2206      	movs	r2, #6
 8007552:	a902      	add	r1, sp, #8
 8007554:	4620      	mov	r0, r4
 8007556:	f7fd fd0f 	bl	8004f78 <_ZN6Buffer10writeBlockEPKvj>
    mBuffers.getOutBuffer().writeNChar(0, 202);  //all the rest that is not used
 800755a:	22ca      	movs	r2, #202	@ 0xca
 800755c:	2100      	movs	r1, #0
 800755e:	4620      	mov	r0, r4
 8007560:	f7fd fca3 	bl	8004eaa <_ZN6Buffer10writeNCharEci>
    mBuffers.getOutBuffer().writeBlock("\x63\x82\x53\x63",4); //Magic cookie
 8007564:	2204      	movs	r2, #4
 8007566:	4919      	ldr	r1, [pc, #100]	@ (80075cc <_ZN10DHCPClient11sendMessageE17DHCP_Message_Typemm+0xcc>)
 8007568:	4620      	mov	r0, r4
 800756a:	f7fd fd05 	bl	8004f78 <_ZN6Buffer10writeBlockEPKvj>
    mBuffers.getOutBuffer().writeBlock("\x35\x01",2); //Discover Option
 800756e:	2202      	movs	r2, #2
 8007570:	4917      	ldr	r1, [pc, #92]	@ (80075d0 <_ZN10DHCPClient11sendMessageE17DHCP_Message_Typemm+0xd0>)
 8007572:	4620      	mov	r0, r4
 8007574:	f7fd fd00 	bl	8004f78 <_ZN6Buffer10writeBlockEPKvj>
    mBuffers.getOutBuffer().writeChar(messageType);
 8007578:	4631      	mov	r1, r6
 800757a:	4620      	mov	r0, r4
 800757c:	f7fd fc6f 	bl	8004e5e <_ZN6Buffer9writeCharEc>
    if (requestIP != 0){
 8007580:	9b01      	ldr	r3, [sp, #4]
 8007582:	b943      	cbnz	r3, 8007596 <_ZN10DHCPClient11sendMessageE17DHCP_Message_Typemm+0x96>
      mBuffers.getOutBuffer().writeBlock("\x32\x04",2); // My IP that I request
      mBuffers.getOutBuffer().writeBlock(&requestIP, 4);
    }
    if (serverIP != 0){
 8007584:	9b00      	ldr	r3, [sp, #0]
 8007586:	b993      	cbnz	r3, 80075ae <_ZN10DHCPClient11sendMessageE17DHCP_Message_Typemm+0xae>
      mBuffers.getOutBuffer().writeBlock("\x36\x04",2); // Server IP
      mBuffers.getOutBuffer().writeBlock(&serverIP , 4);
    }
    mBuffers.getOutBuffer().writeBlock("\xFF",1);
 8007588:	2201      	movs	r2, #1
 800758a:	4912      	ldr	r1, [pc, #72]	@ (80075d4 <_ZN10DHCPClient11sendMessageE17DHCP_Message_Typemm+0xd4>)
 800758c:	4620      	mov	r0, r4
 800758e:	f7fd fcf3 	bl	8004f78 <_ZN6Buffer10writeBlockEPKvj>
  }
 8007592:	b005      	add	sp, #20
 8007594:	bdf0      	pop	{r4, r5, r6, r7, pc}
      mBuffers.getOutBuffer().writeBlock("\x32\x04",2); // My IP that I request
 8007596:	2202      	movs	r2, #2
 8007598:	490f      	ldr	r1, [pc, #60]	@ (80075d8 <_ZN10DHCPClient11sendMessageE17DHCP_Message_Typemm+0xd8>)
 800759a:	4620      	mov	r0, r4
 800759c:	f7fd fcec 	bl	8004f78 <_ZN6Buffer10writeBlockEPKvj>
      mBuffers.getOutBuffer().writeBlock(&requestIP, 4);
 80075a0:	2204      	movs	r2, #4
 80075a2:	eb0d 0102 	add.w	r1, sp, r2
 80075a6:	4620      	mov	r0, r4
 80075a8:	f7fd fce6 	bl	8004f78 <_ZN6Buffer10writeBlockEPKvj>
 80075ac:	e7ea      	b.n	8007584 <_ZN10DHCPClient11sendMessageE17DHCP_Message_Typemm+0x84>
      mBuffers.getOutBuffer().writeBlock("\x36\x04",2); // Server IP
 80075ae:	2202      	movs	r2, #2
 80075b0:	490a      	ldr	r1, [pc, #40]	@ (80075dc <_ZN10DHCPClient11sendMessageE17DHCP_Message_Typemm+0xdc>)
 80075b2:	4620      	mov	r0, r4
 80075b4:	f7fd fce0 	bl	8004f78 <_ZN6Buffer10writeBlockEPKvj>
      mBuffers.getOutBuffer().writeBlock(&serverIP , 4);
 80075b8:	2204      	movs	r2, #4
 80075ba:	4669      	mov	r1, sp
 80075bc:	4620      	mov	r0, r4
 80075be:	f7fd fcdb 	bl	8004f78 <_ZN6Buffer10writeBlockEPKvj>
 80075c2:	e7e1      	b.n	8007588 <_ZN10DHCPClient11sendMessageE17DHCP_Message_Typemm+0x88>
 80075c4:	0800c250 	.word	0x0800c250
 80075c8:	2000abe0 	.word	0x2000abe0
 80075cc:	0800c6c8 	.word	0x0800c6c8
 80075d0:	0800c6d0 	.word	0x0800c6d0
 80075d4:	0800c6dc 	.word	0x0800c6dc
 80075d8:	0800c6d4 	.word	0x0800c6d4
 80075dc:	0800c6d8 	.word	0x0800c6d8

080075e0 <_ZN10DHCPClient11recvMessageER6IPDataPmS2_>:
  
  DHCP_Message_Type  DHCPClient::recvMessage(IPData& offerIP, uint32_t *serverIP, uint32_t *Lease ){
 80075e0:	e92d 47f0 	stmdb	sp!, {r4, r5, r6, r7, r8, r9, sl, lr}
 80075e4:	b088      	sub	sp, #32
 80075e6:	4605      	mov	r5, r0
 80075e8:	4688      	mov	r8, r1
 80075ea:	4617      	mov	r7, r2
 80075ec:	461e      	mov	r6, r3
    uint32_t octet;
    uint32_t MyIP;
    uint32_t serverAddress;
    uint32_t getway = 0x0000A8C0;
 80075ee:	f64a 03c0 	movw	r3, #43200	@ 0xa8c0
 80075f2:	9304      	str	r3, [sp, #16]
    uint32_t subnetMask = 0x00FFFFFF;
 80075f4:	f06f 437f 	mvn.w	r3, #4278190080	@ 0xff000000
 80075f8:	9303      	str	r3, [sp, #12]
    DHCP_Message_Type rc = NAN;
    //Check if Message is correct
    mBuffers.getInBuffer().readBlock((char *)&octet, 4); //options
 80075fa:	2204      	movs	r2, #4
 80075fc:	a907      	add	r1, sp, #28
 80075fe:	f7fd fd57 	bl	80050b0 <_ZNK6Buffer9readBlockEPcj>
    mBuffers.getInBuffer().advanceRead(4);
 8007602:	2104      	movs	r1, #4
 8007604:	4628      	mov	r0, r5
 8007606:	f7fd fd59 	bl	80050bc <_ZN6Buffer11advanceReadEj>
    if (octet != 0x00060102) return DHCPERROR;
 800760a:	4b79      	ldr	r3, [pc, #484]	@ (80077f0 <_ZN10DHCPClient11recvMessageER6IPDataPmS2_+0x210>)
 800760c:	9a07      	ldr	r2, [sp, #28]
 800760e:	429a      	cmp	r2, r3
 8007610:	d005      	beq.n	800761e <_ZN10DHCPClient11recvMessageER6IPDataPmS2_+0x3e>
 8007612:	f04f 090d 	mov.w	r9, #13
    if (serverIP != NULL)
      *serverIP = serverAddress;
    offerIP.setData(MyIP, subnetMask, getway);

    return rc;
  }
 8007616:	4648      	mov	r0, r9
 8007618:	b008      	add	sp, #32
 800761a:	e8bd 87f0 	ldmia.w	sp!, {r4, r5, r6, r7, r8, r9, sl, pc}
    mBuffers.getInBuffer().readBlock((char *)&octet, 4); // XID
 800761e:	2204      	movs	r2, #4
 8007620:	a907      	add	r1, sp, #28
 8007622:	4628      	mov	r0, r5
 8007624:	f7fd fd44 	bl	80050b0 <_ZNK6Buffer9readBlockEPcj>
    mBuffers.getInBuffer().advanceRead(4);
 8007628:	2104      	movs	r1, #4
 800762a:	4628      	mov	r0, r5
 800762c:	f7fd fd46 	bl	80050bc <_ZN6Buffer11advanceReadEj>
    if (octet != mXID) return DHCPERROR; 
 8007630:	6dea      	ldr	r2, [r5, #92]	@ 0x5c
 8007632:	9b07      	ldr	r3, [sp, #28]
 8007634:	429a      	cmp	r2, r3
 8007636:	d002      	beq.n	800763e <_ZN10DHCPClient11recvMessageER6IPDataPmS2_+0x5e>
 8007638:	f04f 090d 	mov.w	r9, #13
 800763c:	e7eb      	b.n	8007616 <_ZN10DHCPClient11recvMessageER6IPDataPmS2_+0x36>
    mBuffers.getInBuffer().advanceRead(8);
 800763e:	2108      	movs	r1, #8
 8007640:	4628      	mov	r0, r5
 8007642:	f7fd fd3b 	bl	80050bc <_ZN6Buffer11advanceReadEj>
    mBuffers.getInBuffer().readBlock((char *)&MyIP, 4);  //YIADDR
 8007646:	2204      	movs	r2, #4
 8007648:	a906      	add	r1, sp, #24
 800764a:	4628      	mov	r0, r5
 800764c:	f7fd fd30 	bl	80050b0 <_ZNK6Buffer9readBlockEPcj>
    mBuffers.getInBuffer().advanceRead(12);
 8007650:	210c      	movs	r1, #12
 8007652:	4628      	mov	r0, r5
 8007654:	f7fd fd32 	bl	80050bc <_ZN6Buffer11advanceReadEj>
      mBuffers.getInBuffer().readBlock(macComp, 8);
 8007658:	2208      	movs	r2, #8
 800765a:	a901      	add	r1, sp, #4
 800765c:	4628      	mov	r0, r5
 800765e:	f7fd fd27 	bl	80050b0 <_ZNK6Buffer9readBlockEPcj>
      macComp[7] = 0x01;
 8007662:	2301      	movs	r3, #1
 8007664:	f88d 300b 	strb.w	r3, [sp, #11]
 8007668:	4b62      	ldr	r3, [pc, #392]	@ (80077f4 <_ZN10DHCPClient11recvMessageER6IPDataPmS2_+0x214>)
 800766a:	69d8      	ldr	r0, [r3, #28]
      if (memcmp(macComp,SystemManagement::getPersistentDataCenter().getMacAddr().getAddr(),8) != 0) return DHCPERROR;
 800766c:	6803      	ldr	r3, [r0, #0]
 800766e:	689b      	ldr	r3, [r3, #8]
 8007670:	4798      	blx	r3
 8007672:	4601      	mov	r1, r0
 8007674:	2208      	movs	r2, #8
 8007676:	a801      	add	r0, sp, #4
 8007678:	f004 fd16 	bl	800c0a8 <memcmp>
 800767c:	b9a8      	cbnz	r0, 80076aa <_ZN10DHCPClient11recvMessageER6IPDataPmS2_+0xca>
      mBuffers.getInBuffer().advanceRead(208);
 800767e:	21d0      	movs	r1, #208	@ 0xd0
 8007680:	4628      	mov	r0, r5
 8007682:	f7fd fd1b 	bl	80050bc <_ZN6Buffer11advanceReadEj>
    mBuffers.getInBuffer().readBlock((char *)&octet, 4);
 8007686:	2204      	movs	r2, #4
 8007688:	a907      	add	r1, sp, #28
 800768a:	4628      	mov	r0, r5
 800768c:	f7fd fd10 	bl	80050b0 <_ZNK6Buffer9readBlockEPcj>
    mBuffers.getInBuffer().advanceRead(4);
 8007690:	2104      	movs	r1, #4
 8007692:	4628      	mov	r0, r5
 8007694:	f7fd fd12 	bl	80050bc <_ZN6Buffer11advanceReadEj>
    if (octet != 0x63538263) return DHCPERROR;
 8007698:	4b57      	ldr	r3, [pc, #348]	@ (80077f8 <_ZN10DHCPClient11recvMessageER6IPDataPmS2_+0x218>)
 800769a:	9a07      	ldr	r2, [sp, #28]
 800769c:	429a      	cmp	r2, r3
 800769e:	f040 80a1 	bne.w	80077e4 <_ZN10DHCPClient11recvMessageER6IPDataPmS2_+0x204>
    DHCP_Message_Type rc = NAN;
 80076a2:	f04f 0900 	mov.w	r9, #0
      octet = 0;
 80076a6:	46ca      	mov	sl, r9
 80076a8:	e013      	b.n	80076d2 <_ZN10DHCPClient11recvMessageER6IPDataPmS2_+0xf2>
      if (memcmp(macComp,SystemManagement::getPersistentDataCenter().getMacAddr().getAddr(),8) != 0) return DHCPERROR;
 80076aa:	f04f 090d 	mov.w	r9, #13
 80076ae:	e7b2      	b.n	8007616 <_ZN10DHCPClient11recvMessageER6IPDataPmS2_+0x36>
        c = mBuffers.getInBuffer().readChar();
 80076b0:	4628      	mov	r0, r5
 80076b2:	f7fd fc31 	bl	8004f18 <_ZN6Buffer8readCharEv>
        if (c != 1) return DHCPERROR;
 80076b6:	b2c0      	uxtb	r0, r0
 80076b8:	2801      	cmp	r0, #1
 80076ba:	f040 8096 	bne.w	80077ea <_ZN10DHCPClient11recvMessageER6IPDataPmS2_+0x20a>
        rc = (DHCP_Message_Type)mBuffers.getInBuffer().readChar();
 80076be:	4628      	mov	r0, r5
 80076c0:	f7fd fc2a 	bl	8004f18 <_ZN6Buffer8readCharEv>
 80076c4:	fa5f f980 	uxtb.w	r9, r0
        break;
 80076c8:	e003      	b.n	80076d2 <_ZN10DHCPClient11recvMessageER6IPDataPmS2_+0xf2>
        mBuffers.getInBuffer().advanceRead(c);
 80076ca:	b2e1      	uxtb	r1, r4
 80076cc:	4628      	mov	r0, r5
 80076ce:	f7fd fcf5 	bl	80050bc <_ZN6Buffer11advanceReadEj>
    while ( (c = mBuffers.getInBuffer().readChar()) != 0xFF && mBuffers.getInBuffer().getDataSize() > 0){
 80076d2:	4628      	mov	r0, r5
 80076d4:	f7fd fc20 	bl	8004f18 <_ZN6Buffer8readCharEv>
 80076d8:	4604      	mov	r4, r0
 80076da:	b2c3      	uxtb	r3, r0
 80076dc:	2bff      	cmp	r3, #255	@ 0xff
 80076de:	d077      	beq.n	80077d0 <_ZN10DHCPClient11recvMessageER6IPDataPmS2_+0x1f0>
 80076e0:	4628      	mov	r0, r5
 80076e2:	f7fd fb9a 	bl	8004e1a <_ZNK6Buffer11getDataSizeEv>
 80076e6:	2800      	cmp	r0, #0
 80076e8:	d072      	beq.n	80077d0 <_ZN10DHCPClient11recvMessageER6IPDataPmS2_+0x1f0>
      octet = 0;
 80076ea:	f8cd a01c 	str.w	sl, [sp, #28]
      switch (c){
 80076ee:	fa5f fc84 	uxtb.w	ip, r4
 80076f2:	f1bc 0f33 	cmp.w	ip, #51	@ 0x33
 80076f6:	d013      	beq.n	8007720 <_ZN10DHCPClient11recvMessageER6IPDataPmS2_+0x140>
 80076f8:	dd58      	ble.n	80077ac <_ZN10DHCPClient11recvMessageER6IPDataPmS2_+0x1cc>
 80076fa:	f1bc 0f35 	cmp.w	ip, #53	@ 0x35
 80076fe:	d0d7      	beq.n	80076b0 <_ZN10DHCPClient11recvMessageER6IPDataPmS2_+0xd0>
 8007700:	f1bc 0f36 	cmp.w	ip, #54	@ 0x36
 8007704:	d14a      	bne.n	800779c <_ZN10DHCPClient11recvMessageER6IPDataPmS2_+0x1bc>
        c = mBuffers.getInBuffer().readChar();
 8007706:	4628      	mov	r0, r5
 8007708:	f7fd fc06 	bl	8004f18 <_ZN6Buffer8readCharEv>
 800770c:	4604      	mov	r4, r0
        if (c == 4)
 800770e:	b2c3      	uxtb	r3, r0
 8007710:	2b04      	cmp	r3, #4
 8007712:	d1da      	bne.n	80076ca <_ZN10DHCPClient11recvMessageER6IPDataPmS2_+0xea>
          mBuffers.getInBuffer().readBlock((char *)&serverAddress, 4);
 8007714:	2204      	movs	r2, #4
 8007716:	a905      	add	r1, sp, #20
 8007718:	4628      	mov	r0, r5
 800771a:	f7fd fcc9 	bl	80050b0 <_ZNK6Buffer9readBlockEPcj>
 800771e:	e7d4      	b.n	80076ca <_ZN10DHCPClient11recvMessageER6IPDataPmS2_+0xea>
        c = mBuffers.getInBuffer().readChar();
 8007720:	4628      	mov	r0, r5
 8007722:	f7fd fbf9 	bl	8004f18 <_ZN6Buffer8readCharEv>
        if (c == 4 && Lease != NULL){
 8007726:	b2c3      	uxtb	r3, r0
 8007728:	2b04      	cmp	r3, #4
 800772a:	d11a      	bne.n	8007762 <_ZN10DHCPClient11recvMessageER6IPDataPmS2_+0x182>
 800772c:	b1ce      	cbz	r6, 8007762 <_ZN10DHCPClient11recvMessageER6IPDataPmS2_+0x182>
          *Lease = mBuffers.getInBuffer().readChar() << 24;
 800772e:	4628      	mov	r0, r5
 8007730:	f7fd fbf2 	bl	8004f18 <_ZN6Buffer8readCharEv>
 8007734:	0600      	lsls	r0, r0, #24
 8007736:	6030      	str	r0, [r6, #0]
          *Lease += mBuffers.getInBuffer().readChar() << 16;
 8007738:	4628      	mov	r0, r5
 800773a:	f7fd fbed 	bl	8004f18 <_ZN6Buffer8readCharEv>
 800773e:	6833      	ldr	r3, [r6, #0]
 8007740:	eb03 4300 	add.w	r3, r3, r0, lsl #16
 8007744:	6033      	str	r3, [r6, #0]
          *Lease += mBuffers.getInBuffer().readChar() << 8;
 8007746:	4628      	mov	r0, r5
 8007748:	f7fd fbe6 	bl	8004f18 <_ZN6Buffer8readCharEv>
 800774c:	6833      	ldr	r3, [r6, #0]
 800774e:	eb03 2300 	add.w	r3, r3, r0, lsl #8
 8007752:	6033      	str	r3, [r6, #0]
          *Lease += mBuffers.getInBuffer().readChar();
 8007754:	4628      	mov	r0, r5
 8007756:	f7fd fbdf 	bl	8004f18 <_ZN6Buffer8readCharEv>
 800775a:	6833      	ldr	r3, [r6, #0]
 800775c:	4403      	add	r3, r0
 800775e:	6033      	str	r3, [r6, #0]
 8007760:	e7b7      	b.n	80076d2 <_ZN10DHCPClient11recvMessageER6IPDataPmS2_+0xf2>
          mBuffers.getInBuffer().advanceRead(c);
 8007762:	b2c1      	uxtb	r1, r0
 8007764:	4628      	mov	r0, r5
 8007766:	f7fd fca9 	bl	80050bc <_ZN6Buffer11advanceReadEj>
 800776a:	e7b2      	b.n	80076d2 <_ZN10DHCPClient11recvMessageER6IPDataPmS2_+0xf2>
        c = mBuffers.getInBuffer().readChar();
 800776c:	4628      	mov	r0, r5
 800776e:	f7fd fbd3 	bl	8004f18 <_ZN6Buffer8readCharEv>
 8007772:	4604      	mov	r4, r0
        if (c == 4)
 8007774:	b2c3      	uxtb	r3, r0
 8007776:	2b04      	cmp	r3, #4
 8007778:	d004      	beq.n	8007784 <_ZN10DHCPClient11recvMessageER6IPDataPmS2_+0x1a4>
        mBuffers.getInBuffer().advanceRead(c);
 800777a:	b2e1      	uxtb	r1, r4
 800777c:	4628      	mov	r0, r5
 800777e:	f7fd fc9d 	bl	80050bc <_ZN6Buffer11advanceReadEj>
        break;  
 8007782:	e7a6      	b.n	80076d2 <_ZN10DHCPClient11recvMessageER6IPDataPmS2_+0xf2>
          mBuffers.getInBuffer().readBlock((char *)&subnetMask, 4);
 8007784:	2204      	movs	r2, #4
 8007786:	a903      	add	r1, sp, #12
 8007788:	4628      	mov	r0, r5
 800778a:	f7fd fc91 	bl	80050b0 <_ZNK6Buffer9readBlockEPcj>
 800778e:	e7f4      	b.n	800777a <_ZN10DHCPClient11recvMessageER6IPDataPmS2_+0x19a>
          mBuffers.getInBuffer().readBlock((char *)&getway, 4);
 8007790:	2204      	movs	r2, #4
 8007792:	a904      	add	r1, sp, #16
 8007794:	4628      	mov	r0, r5
 8007796:	f7fd fc8b 	bl	80050b0 <_ZNK6Buffer9readBlockEPcj>
 800779a:	e014      	b.n	80077c6 <_ZN10DHCPClient11recvMessageER6IPDataPmS2_+0x1e6>
        c = mBuffers.getInBuffer().readChar();
 800779c:	4628      	mov	r0, r5
 800779e:	f7fd fbbb 	bl	8004f18 <_ZN6Buffer8readCharEv>
        mBuffers.getInBuffer().advanceRead(c);
 80077a2:	b2c1      	uxtb	r1, r0
 80077a4:	4628      	mov	r0, r5
 80077a6:	f7fd fc89 	bl	80050bc <_ZN6Buffer11advanceReadEj>
        break;
 80077aa:	e792      	b.n	80076d2 <_ZN10DHCPClient11recvMessageER6IPDataPmS2_+0xf2>
      switch (c){
 80077ac:	f1bc 0f01 	cmp.w	ip, #1
 80077b0:	d0dc      	beq.n	800776c <_ZN10DHCPClient11recvMessageER6IPDataPmS2_+0x18c>
 80077b2:	f1bc 0f03 	cmp.w	ip, #3
 80077b6:	d1f1      	bne.n	800779c <_ZN10DHCPClient11recvMessageER6IPDataPmS2_+0x1bc>
        c = mBuffers.getInBuffer().readChar();
 80077b8:	4628      	mov	r0, r5
 80077ba:	f7fd fbad 	bl	8004f18 <_ZN6Buffer8readCharEv>
 80077be:	4604      	mov	r4, r0
        if (c == 4)
 80077c0:	b2c3      	uxtb	r3, r0
 80077c2:	2b04      	cmp	r3, #4
 80077c4:	d0e4      	beq.n	8007790 <_ZN10DHCPClient11recvMessageER6IPDataPmS2_+0x1b0>
        mBuffers.getInBuffer().advanceRead(c);
 80077c6:	b2e1      	uxtb	r1, r4
 80077c8:	4628      	mov	r0, r5
 80077ca:	f7fd fc77 	bl	80050bc <_ZN6Buffer11advanceReadEj>
        break;
 80077ce:	e780      	b.n	80076d2 <_ZN10DHCPClient11recvMessageER6IPDataPmS2_+0xf2>
    if (serverIP != NULL)
 80077d0:	b10f      	cbz	r7, 80077d6 <_ZN10DHCPClient11recvMessageER6IPDataPmS2_+0x1f6>
      *serverIP = serverAddress;
 80077d2:	9b05      	ldr	r3, [sp, #20]
 80077d4:	603b      	str	r3, [r7, #0]
    offerIP.setData(MyIP, subnetMask, getway);
 80077d6:	9b04      	ldr	r3, [sp, #16]
 80077d8:	9a03      	ldr	r2, [sp, #12]
 80077da:	9906      	ldr	r1, [sp, #24]
 80077dc:	4640      	mov	r0, r8
 80077de:	f7fe fea2 	bl	8006526 <_ZN6IPData7setDataEmmm>
    return rc;
 80077e2:	e718      	b.n	8007616 <_ZN10DHCPClient11recvMessageER6IPDataPmS2_+0x36>
    if (octet != 0x63538263) return DHCPERROR;
 80077e4:	f04f 090d 	mov.w	r9, #13
 80077e8:	e715      	b.n	8007616 <_ZN10DHCPClient11recvMessageER6IPDataPmS2_+0x36>
        if (c != 1) return DHCPERROR;
 80077ea:	f04f 090d 	mov.w	r9, #13
 80077ee:	e712      	b.n	8007616 <_ZN10DHCPClient11recvMessageER6IPDataPmS2_+0x36>
 80077f0:	00060102 	.word	0x00060102
 80077f4:	2000abe0 	.word	0x2000abe0
 80077f8:	63538263 	.word	0x63538263

080077fc <_ZN10DHCPClient10readBufferEv>:
  {
 80077fc:	b530      	push	{r4, r5, lr}
 80077fe:	b087      	sub	sp, #28
 8007800:	4604      	mov	r4, r0
    mBuffers.advanceReadTop();
 8007802:	f7fd faa4 	bl	8004d4e <_ZN19BidirectionalBuffer14advanceReadTopEv>
    unsigned int inSize = mBuffers.getInBuffer().getDataSize();
 8007806:	4620      	mov	r0, r4
 8007808:	f7fd fb07 	bl	8004e1a <_ZNK6Buffer11getDataSizeEv>
    if (inSize == 0) {
 800780c:	b908      	cbnz	r0, 8007812 <_ZN10DHCPClient10readBufferEv+0x16>
  }
 800780e:	b007      	add	sp, #28
 8007810:	bd30      	pop	{r4, r5, pc}
    IPData NewIP;
 8007812:	a803      	add	r0, sp, #12
 8007814:	f7fe fe80 	bl	8006518 <_ZN6IPDataC1Ev>
    uint32_t lease = 1;
 8007818:	2301      	movs	r3, #1
 800781a:	9302      	str	r3, [sp, #8]
    uint32_t serverAddress = 0;
 800781c:	2300      	movs	r3, #0
 800781e:	9301      	str	r3, [sp, #4]
    switch (mState){
 8007820:	f894 3058 	ldrb.w	r3, [r4, #88]	@ 0x58
 8007824:	2b05      	cmp	r3, #5
 8007826:	d817      	bhi.n	8007858 <_ZN10DHCPClient10readBufferEv+0x5c>
 8007828:	a201      	add	r2, pc, #4	@ (adr r2, 8007830 <_ZN10DHCPClient10readBufferEv+0x34>)
 800782a:	f852 f023 	ldr.w	pc, [r2, r3, lsl #2]
 800782e:	bf00      	nop
 8007830:	0800780f 	.word	0x0800780f
 8007834:	08007849 	.word	0x08007849
 8007838:	0800787f 	.word	0x0800787f
 800783c:	08007859 	.word	0x08007859
 8007840:	0800787f 	.word	0x0800787f
 8007844:	0800787f 	.word	0x0800787f
      switch (recvMessage(NewIP, &serverAddress, NULL )){
 8007848:	2300      	movs	r3, #0
 800784a:	aa01      	add	r2, sp, #4
 800784c:	a903      	add	r1, sp, #12
 800784e:	4620      	mov	r0, r4
 8007850:	f7ff fec6 	bl	80075e0 <_ZN10DHCPClient11recvMessageER6IPDataPmS2_>
 8007854:	2802      	cmp	r0, #2
 8007856:	d005      	beq.n	8007864 <_ZN10DHCPClient10readBufferEv+0x68>
    while (mBuffers.getInBuffer().readChar() >= 0);
 8007858:	4620      	mov	r0, r4
 800785a:	f7fd fb5d 	bl	8004f18 <_ZN6Buffer8readCharEv>
 800785e:	2800      	cmp	r0, #0
 8007860:	dafa      	bge.n	8007858 <_ZN10DHCPClient10readBufferEv+0x5c>
 8007862:	e7d4      	b.n	800780e <_ZN10DHCPClient10readBufferEv+0x12>
        mIPData.mMask = NewIP.mMask;
 8007864:	6d63      	ldr	r3, [r4, #84]	@ 0x54
 8007866:	9a04      	ldr	r2, [sp, #16]
 8007868:	605a      	str	r2, [r3, #4]
        sendMessage(DHCPREQUEST, NewIP.mAddr, serverAddress);
 800786a:	9b01      	ldr	r3, [sp, #4]
 800786c:	9a03      	ldr	r2, [sp, #12]
 800786e:	2103      	movs	r1, #3
 8007870:	4620      	mov	r0, r4
 8007872:	f7ff fe45 	bl	8007500 <_ZN10DHCPClient11sendMessageE17DHCP_Message_Typemm>
        mState = DHCP_State_REQUESTING;
 8007876:	2302      	movs	r3, #2
 8007878:	f884 3058 	strb.w	r3, [r4, #88]	@ 0x58
        break;
 800787c:	e7ec      	b.n	8007858 <_ZN10DHCPClient10readBufferEv+0x5c>
      switch (recvMessage(NewIP, &serverAddress, &lease )){
 800787e:	ab02      	add	r3, sp, #8
 8007880:	aa01      	add	r2, sp, #4
 8007882:	a903      	add	r1, sp, #12
 8007884:	4620      	mov	r0, r4
 8007886:	f7ff feab 	bl	80075e0 <_ZN10DHCPClient11recvMessageER6IPDataPmS2_>
 800788a:	2805      	cmp	r0, #5
 800788c:	d007      	beq.n	800789e <_ZN10DHCPClient10readBufferEv+0xa2>
 800788e:	2806      	cmp	r0, #6
 8007890:	d1e2      	bne.n	8007858 <_ZN10DHCPClient10readBufferEv+0x5c>
        mIPData.mAddr = 0;
 8007892:	6d62      	ldr	r2, [r4, #84]	@ 0x54
 8007894:	2300      	movs	r3, #0
 8007896:	6013      	str	r3, [r2, #0]
        mState = DHCP_State_INIT;      
 8007898:	f884 3058 	strb.w	r3, [r4, #88]	@ 0x58
        break;
 800789c:	e7dc      	b.n	8007858 <_ZN10DHCPClient10readBufferEv+0x5c>
        mIPData = NewIP;
 800789e:	6d63      	ldr	r3, [r4, #84]	@ 0x54
 80078a0:	aa06      	add	r2, sp, #24
 80078a2:	e912 0007 	ldmdb	r2, {r0, r1, r2}
 80078a6:	e883 0007 	stmia.w	r3, {r0, r1, r2}
        mLastServer = serverAddress;
 80078aa:	9b01      	ldr	r3, [sp, #4]
 80078ac:	6523      	str	r3, [r4, #80]	@ 0x50
        mRenew_Time = lease *500 + getTimerTicks();
 80078ae:	9d02      	ldr	r5, [sp, #8]
 80078b0:	f002 fd0e 	bl	800a2d0 <getTimerTicks>
 80078b4:	f44f 73fa 	mov.w	r3, #500	@ 0x1f4
 80078b8:	fb03 0305 	mla	r3, r3, r5, r0
 80078bc:	6423      	str	r3, [r4, #64]	@ 0x40
        mRebind_Time = lease * 875 + getTimerTicks();
 80078be:	f002 fd07 	bl	800a2d0 <getTimerTicks>
 80078c2:	f240 336b 	movw	r3, #875	@ 0x36b
 80078c6:	fb03 0305 	mla	r3, r3, r5, r0
 80078ca:	6463      	str	r3, [r4, #68]	@ 0x44
        mLease_Time = lease * 1000 + getTimerTicks();
 80078cc:	f002 fd00 	bl	800a2d0 <getTimerTicks>
 80078d0:	f44f 737a 	mov.w	r3, #1000	@ 0x3e8
 80078d4:	fb03 0305 	mla	r3, r3, r5, r0
 80078d8:	64a3      	str	r3, [r4, #72]	@ 0x48
        if ( mRenew_Time < getTimerTicks())
 80078da:	6c25      	ldr	r5, [r4, #64]	@ 0x40
 80078dc:	f002 fcf8 	bl	800a2d0 <getTimerTicks>
 80078e0:	4285      	cmp	r5, r0
 80078e2:	bf2c      	ite	cs
 80078e4:	2500      	movcs	r5, #0
 80078e6:	2501      	movcc	r5, #1
 80078e8:	f884 504c 	strb.w	r5, [r4, #76]	@ 0x4c
        mState = DHCP_State_BOND;
 80078ec:	2303      	movs	r3, #3
 80078ee:	f884 3058 	strb.w	r3, [r4, #88]	@ 0x58
        break;
 80078f2:	e7b1      	b.n	8007858 <_ZN10DHCPClient10readBufferEv+0x5c>

080078f4 <_ZNK10DHCPClient8isClosedEv>:
  {
 80078f4:	b508      	push	{r3, lr}
    if (!mUDPConnection.isClosed()) {
 80078f6:	3020      	adds	r0, #32
 80078f8:	f7ff f82e 	bl	8006958 <_ZNK13UDPConnection8isClosedEv>
  }
 80078fc:	bd08      	pop	{r3, pc}
	...

08007900 <_ZN10DHCPClient12periodicCallEv>:
  {
 8007900:	b510      	push	{r4, lr}
 8007902:	4604      	mov	r4, r0
    if (!mUDPConnection.isClosed()) {
 8007904:	3020      	adds	r0, #32
 8007906:	f7ff f827 	bl	8006958 <_ZNK13UDPConnection8isClosedEv>
    if (isClosed()) return;
 800790a:	b100      	cbz	r0, 800790e <_ZN10DHCPClient12periodicCallEv+0xe>
  }
 800790c:	bd10      	pop	{r4, pc}
    if (getTimerTicks() < 0x0000FFFF)
 800790e:	f002 fcdf 	bl	800a2d0 <getTimerTicks>
 8007912:	f64f 73fe 	movw	r3, #65534	@ 0xfffe
 8007916:	4298      	cmp	r0, r3
      mTimeFlag = 0;
 8007918:	bf9c      	itt	ls
 800791a:	2300      	movls	r3, #0
 800791c:	f884 304c 	strbls.w	r3, [r4, #76]	@ 0x4c
    readBuffer();
 8007920:	4620      	mov	r0, r4
 8007922:	f7ff ff6b 	bl	80077fc <_ZN10DHCPClient10readBufferEv>
    switch (mState){
 8007926:	f894 3058 	ldrb.w	r3, [r4, #88]	@ 0x58
 800792a:	2b05      	cmp	r3, #5
 800792c:	d820      	bhi.n	8007970 <_ZN10DHCPClient12periodicCallEv+0x70>
 800792e:	e8df f003 	tbb	[pc, r3]
 8007932:	2303      	.short	0x2303
 8007934:	6e523623 	.word	0x6e523623
      if (getTimerTicks() % DHCP_TRY_INTERVAL < (1000)){
 8007938:	f002 fcca 	bl	800a2d0 <getTimerTicks>
 800793c:	4b3b      	ldr	r3, [pc, #236]	@ (8007a2c <_ZN10DHCPClient12periodicCallEv+0x12c>)
 800793e:	fba3 2300 	umull	r2, r3, r3, r0
 8007942:	0b1b      	lsrs	r3, r3, #12
 8007944:	f241 3288 	movw	r2, #5000	@ 0x1388
 8007948:	fb02 0013 	mls	r0, r2, r3, r0
 800794c:	f5b0 7f7a 	cmp.w	r0, #1000	@ 0x3e8
 8007950:	d20e      	bcs.n	8007970 <_ZN10DHCPClient12periodicCallEv+0x70>
 8007952:	4b37      	ldr	r3, [pc, #220]	@ (8007a30 <_ZN10DHCPClient12periodicCallEv+0x130>)
 8007954:	69d8      	ldr	r0, [r3, #28]
        mXID = SystemManagement::getPersistentDataCenter().getNext32RandomNumber();
 8007956:	6803      	ldr	r3, [r0, #0]
 8007958:	6c9b      	ldr	r3, [r3, #72]	@ 0x48
 800795a:	4798      	blx	r3
 800795c:	65e0      	str	r0, [r4, #92]	@ 0x5c
        sendMessage(DHCPDISCOVER);
 800795e:	2300      	movs	r3, #0
 8007960:	461a      	mov	r2, r3
 8007962:	2101      	movs	r1, #1
 8007964:	4620      	mov	r0, r4
 8007966:	f7ff fdcb 	bl	8007500 <_ZN10DHCPClient11sendMessageE17DHCP_Message_Typemm>
        mState = DHCP_State_SELECTING;
 800796a:	2301      	movs	r3, #1
 800796c:	f884 3058 	strb.w	r3, [r4, #88]	@ 0x58
    mBuffers.advanceReadTop();
 8007970:	4620      	mov	r0, r4
 8007972:	f7fd f9ec 	bl	8004d4e <_ZN19BidirectionalBuffer14advanceReadTopEv>
 8007976:	e7c9      	b.n	800790c <_ZN10DHCPClient12periodicCallEv+0xc>
      if (getTimerTicks() % DHCP_TRY_INTERVAL > (DHCP_TRY_INTERVAL-1000)){
 8007978:	f002 fcaa 	bl	800a2d0 <getTimerTicks>
 800797c:	4b2b      	ldr	r3, [pc, #172]	@ (8007a2c <_ZN10DHCPClient12periodicCallEv+0x12c>)
 800797e:	fba3 2300 	umull	r2, r3, r3, r0
 8007982:	0b1b      	lsrs	r3, r3, #12
 8007984:	f241 3288 	movw	r2, #5000	@ 0x1388
 8007988:	fb02 0013 	mls	r0, r2, r3, r0
 800798c:	f5b0 6f7a 	cmp.w	r0, #4000	@ 0xfa0
 8007990:	d9ee      	bls.n	8007970 <_ZN10DHCPClient12periodicCallEv+0x70>
        mState = DHCP_State_INIT;
 8007992:	2300      	movs	r3, #0
 8007994:	f884 3058 	strb.w	r3, [r4, #88]	@ 0x58
        mIPData.mAddr = 0; 
 8007998:	6d62      	ldr	r2, [r4, #84]	@ 0x54
 800799a:	6013      	str	r3, [r2, #0]
 800799c:	e7e8      	b.n	8007970 <_ZN10DHCPClient12periodicCallEv+0x70>
      if ((getTimerTicks()  > mRenew_Time) && mTimeFlag == 0){
 800799e:	f002 fc97 	bl	800a2d0 <getTimerTicks>
 80079a2:	6c23      	ldr	r3, [r4, #64]	@ 0x40
 80079a4:	4298      	cmp	r0, r3
 80079a6:	d9e3      	bls.n	8007970 <_ZN10DHCPClient12periodicCallEv+0x70>
 80079a8:	f894 304c 	ldrb.w	r3, [r4, #76]	@ 0x4c
 80079ac:	2b00      	cmp	r3, #0
 80079ae:	d1df      	bne.n	8007970 <_ZN10DHCPClient12periodicCallEv+0x70>
        mState = DHCP_State_RENEWING;
 80079b0:	2304      	movs	r3, #4
 80079b2:	f884 3058 	strb.w	r3, [r4, #88]	@ 0x58
        if ( getTimerTicks() > mRebind_Time)
 80079b6:	f002 fc8b 	bl	800a2d0 <getTimerTicks>
 80079ba:	6c63      	ldr	r3, [r4, #68]	@ 0x44
 80079bc:	4298      	cmp	r0, r3
          mTimeFlag = 1;
 80079be:	bf84      	itt	hi
 80079c0:	2301      	movhi	r3, #1
 80079c2:	f884 304c 	strbhi.w	r3, [r4, #76]	@ 0x4c
        sendMessage(DHCPREQUEST, mIPData.mAddr, mLastServer); 
 80079c6:	6d62      	ldr	r2, [r4, #84]	@ 0x54
 80079c8:	6d23      	ldr	r3, [r4, #80]	@ 0x50
 80079ca:	6812      	ldr	r2, [r2, #0]
 80079cc:	2103      	movs	r1, #3
 80079ce:	4620      	mov	r0, r4
 80079d0:	f7ff fd96 	bl	8007500 <_ZN10DHCPClient11sendMessageE17DHCP_Message_Typemm>
 80079d4:	e7cc      	b.n	8007970 <_ZN10DHCPClient12periodicCallEv+0x70>
      if ((getTimerTicks()  > mRebind_Time) && mTimeFlag == 0){
 80079d6:	f002 fc7b 	bl	800a2d0 <getTimerTicks>
 80079da:	6c63      	ldr	r3, [r4, #68]	@ 0x44
 80079dc:	4298      	cmp	r0, r3
 80079de:	d9c7      	bls.n	8007970 <_ZN10DHCPClient12periodicCallEv+0x70>
 80079e0:	f894 304c 	ldrb.w	r3, [r4, #76]	@ 0x4c
 80079e4:	2b00      	cmp	r3, #0
 80079e6:	d1c3      	bne.n	8007970 <_ZN10DHCPClient12periodicCallEv+0x70>
        mState = DHCP_State_REBINDING;
 80079e8:	2305      	movs	r3, #5
 80079ea:	f884 3058 	strb.w	r3, [r4, #88]	@ 0x58
        if ( getTimerTicks() > mLease_Time)
 80079ee:	f002 fc6f 	bl	800a2d0 <getTimerTicks>
 80079f2:	6ca3      	ldr	r3, [r4, #72]	@ 0x48
 80079f4:	4298      	cmp	r0, r3
          mTimeFlag = 1;
 80079f6:	bf84      	itt	hi
 80079f8:	2301      	movhi	r3, #1
 80079fa:	f884 304c 	strbhi.w	r3, [r4, #76]	@ 0x4c
        sendMessage(DHCPREQUEST, mIPData.mAddr); 
 80079fe:	6d62      	ldr	r2, [r4, #84]	@ 0x54
 8007a00:	2300      	movs	r3, #0
 8007a02:	6812      	ldr	r2, [r2, #0]
 8007a04:	2103      	movs	r1, #3
 8007a06:	4620      	mov	r0, r4
 8007a08:	f7ff fd7a 	bl	8007500 <_ZN10DHCPClient11sendMessageE17DHCP_Message_Typemm>
 8007a0c:	e7b0      	b.n	8007970 <_ZN10DHCPClient12periodicCallEv+0x70>
      if ((getTimerTicks()  > mLease_Time) && mTimeFlag == 0){
 8007a0e:	f002 fc5f 	bl	800a2d0 <getTimerTicks>
 8007a12:	6ca3      	ldr	r3, [r4, #72]	@ 0x48
 8007a14:	4298      	cmp	r0, r3
 8007a16:	d9ab      	bls.n	8007970 <_ZN10DHCPClient12periodicCallEv+0x70>
 8007a18:	f894 304c 	ldrb.w	r3, [r4, #76]	@ 0x4c
 8007a1c:	2b00      	cmp	r3, #0
 8007a1e:	d1a7      	bne.n	8007970 <_ZN10DHCPClient12periodicCallEv+0x70>
        mIPData.mAddr = 0; 
 8007a20:	6d62      	ldr	r2, [r4, #84]	@ 0x54
 8007a22:	6013      	str	r3, [r2, #0]
        mState = DHCP_State_INIT; 
 8007a24:	f884 3058 	strb.w	r3, [r4, #88]	@ 0x58
 8007a28:	e7a2      	b.n	8007970 <_ZN10DHCPClient12periodicCallEv+0x70>
 8007a2a:	bf00      	nop
 8007a2c:	d1b71759 	.word	0xd1b71759
 8007a30:	2000abe0 	.word	0x2000abe0

08007a34 <_ZN9FTPClientC1Et12TCPPortTypesR6Layer3PFvmEPFiR6BuffertE>:
// **********************************************************************

// **************************************************************
// constructor
// **************************************************************
FTPClient::FTPClient( uint16_t mySocket, TCPPortTypes portType, Layer3& udpLayer,void (*ReceiveEndHandler)(uint32_t), int (*ReceiveHandler)(Buffer&,uint16_t)) :
 8007a34:	e92d 41f0 	stmdb	sp!, {r4, r5, r6, r7, r8, lr}
 8007a38:	4604      	mov	r4, r0
 8007a3a:	460f      	mov	r7, r1
 8007a3c:	461e      	mov	r6, r3
  mLastError(FTP_ERRCODE_NO_ERROR),
 8007a3e:	f64f 73ff 	movw	r3, #65535	@ 0xffff
 8007a42:	8003      	strh	r3, [r0, #0]
  mState(FTP_State_IDLE),
 8007a44:	2500      	movs	r5, #0
 8007a46:	7085      	strb	r5, [r0, #2]
  mBytesReceived(0),
 8007a48:	6045      	str	r5, [r0, #4]
  OnReceiveEnd(ReceiveEndHandler),
 8007a4a:	9b06      	ldr	r3, [sp, #24]
 8007a4c:	6303      	str	r3, [r0, #48]	@ 0x30
  OnReceive(ReceiveHandler),
 8007a4e:	9b07      	ldr	r3, [sp, #28]
 8007a50:	6343      	str	r3, [r0, #52]	@ 0x34
  mBuffers(portType),
 8007a52:	f100 0838 	add.w	r8, r0, #56	@ 0x38
 8007a56:	4611      	mov	r1, r2
 8007a58:	4640      	mov	r0, r8
 8007a5a:	f7fd f983 	bl	8004d64 <_ZN19BidirectionalBufferC1E12TCPPortTypes>
  mSocket(mySocket),
 8007a5e:	f8a4 7058 	strh.w	r7, [r4, #88]	@ 0x58
  mUDPConnection(mBuffers, udpLayer),
 8007a62:	4632      	mov	r2, r6
 8007a64:	4641      	mov	r1, r8
 8007a66:	f104 005c 	add.w	r0, r4, #92	@ 0x5c
 8007a6a:	f7fe ffbd 	bl	80069e8 <_ZN13UDPConnectionC1ER19BidirectionalBufferR6Layer3>
  mTimeout(0),
 8007a6e:	f8a4 507e 	strh.w	r5, [r4, #126]	@ 0x7e
  mRetryCounter(0)
 8007a72:	f884 5080 	strb.w	r5, [r4, #128]	@ 0x80
    
  { 
  }
 8007a76:	4620      	mov	r0, r4
 8007a78:	e8bd 81f0 	ldmia.w	sp!, {r4, r5, r6, r7, r8, pc}

08007a7c <_ZN9FTPClient10openSocketEv>:
  // **************************************************************
  // initialization call.
  // notifies that persistent settings are loaded.
  // **************************************************************
  void FTPClient::openSocket()
  {
 8007a7c:	b508      	push	{r3, lr}
    if (mServerIP == 0)
 8007a7e:	6883      	ldr	r3, [r0, #8]
 8007a80:	b903      	cbnz	r3, 8007a84 <_ZN9FTPClient10openSocketEv+0x8>
      return;
    mUDPConnection.openObject(mSocket, FTP_SERVER_PORT, mServerIP );
  }
 8007a82:	bd08      	pop	{r3, pc}
    mUDPConnection.openObject(mSocket, FTP_SERVER_PORT, mServerIP );
 8007a84:	f44f 428a 	mov.w	r2, #17664	@ 0x4500
 8007a88:	f8b0 1058 	ldrh.w	r1, [r0, #88]	@ 0x58
 8007a8c:	305c      	adds	r0, #92	@ 0x5c
 8007a8e:	f7fe ffc8 	bl	8006a22 <_ZN13UDPConnection10openObjectEttm>
 8007a92:	e7f6      	b.n	8007a82 <_ZN9FTPClient10openSocketEv+0x6>

08007a94 <_ZN9FTPClient11RequestFileEmPKc>:
  
  // **************************************************************
  // Send RRQ to Server on Port 69
  // LOL
  // **************************************************************
  int FTPClient::RequestFile( uint32_t ServerIP, const char* FileName){
 8007a94:	e92d 41f0 	stmdb	sp!, {r4, r5, r6, r7, r8, lr}
 8007a98:	b082      	sub	sp, #8
    if (mState == FTP_State_END) return -2;
 8007a9a:	7883      	ldrb	r3, [r0, #2]
 8007a9c:	2b03      	cmp	r3, #3
 8007a9e:	d05b      	beq.n	8007b58 <_ZN9FTPClient11RequestFileEmPKc+0xc4>
 8007aa0:	4604      	mov	r4, r0
 8007aa2:	4615      	mov	r5, r2
    mState = FTP_State_RECV;
 8007aa4:	2301      	movs	r3, #1
 8007aa6:	7083      	strb	r3, [r0, #2]
    mServerIP = ServerIP;
 8007aa8:	6081      	str	r1, [r0, #8]
    openSocket();
 8007aaa:	f7ff ffe7 	bl	8007a7c <_ZN9FTPClient10openSocketEv>
    strncpy(mFileName,FileName,MAX_FILENAME_LENGTH);
 8007aae:	f104 070c 	add.w	r7, r4, #12
 8007ab2:	2220      	movs	r2, #32
 8007ab4:	4629      	mov	r1, r5
 8007ab6:	4638      	mov	r0, r7
 8007ab8:	f004 fb0e 	bl	800c0d8 <strncpy>
    mFileName[MAX_FILENAME_LENGTH] = '\0';
 8007abc:	2500      	movs	r5, #0
 8007abe:	f884 502c 	strb.w	r5, [r4, #44]	@ 0x2c
    mLastBlockReceived = 0;
 8007ac2:	f8a4 507c 	strh.w	r5, [r4, #124]	@ 0x7c
    mTimeout = (getTimerTicks()+10000) % 11000;
 8007ac6:	f002 fc03 	bl	800a2d0 <getTimerTicks>
 8007aca:	f500 501c 	add.w	r0, r0, #9984	@ 0x2700
 8007ace:	3010      	adds	r0, #16
 8007ad0:	4b23      	ldr	r3, [pc, #140]	@ (8007b60 <_ZN9FTPClient11RequestFileEmPKc+0xcc>)
 8007ad2:	fba3 2300 	umull	r2, r3, r3, r0
 8007ad6:	0b5b      	lsrs	r3, r3, #13
 8007ad8:	f642 22f8 	movw	r2, #11000	@ 0x2af8
 8007adc:	fb02 0013 	mls	r0, r2, r3, r0
 8007ae0:	f8a4 007e 	strh.w	r0, [r4, #126]	@ 0x7e
    mBytesReceived = 0;
 8007ae4:	6065      	str	r5, [r4, #4]
    mLastError = FTP_ERRCODE_NO_ERROR;
 8007ae6:	f64f 73ff 	movw	r3, #65535	@ 0xffff
 8007aea:	8023      	strh	r3, [r4, #0]
 8007aec:	f44f 438a 	mov.w	r3, #17664	@ 0x4500
 8007af0:	f8a4 306a 	strh.w	r3, [r4, #106]	@ 0x6a

  void reset();                         // not multithreaded safe!

  void advanceReadTop();

  Buffer& getInBuffer() {return mBufferIn;}
 8007af4:	f104 0538 	add.w	r5, r4, #56	@ 0x38
    mUDPConnection.changeTargetSocket(FTP_SERVER_PORT);
    
    while (mBuffers.getInBuffer().readChar() >= 0);
 8007af8:	4628      	mov	r0, r5
 8007afa:	f7fd fa0d 	bl	8004f18 <_ZN6Buffer8readCharEv>
 8007afe:	2800      	cmp	r0, #0
 8007b00:	dafa      	bge.n	8007af8 <_ZN9FTPClient11RequestFileEmPKc+0x64>
    int rc;
    uint16_t Op = htons((uint16_t)FTP_OPCODE_RRQ);
 8007b02:	f44f 7380 	mov.w	r3, #256	@ 0x100
 8007b06:	f8ad 3006 	strh.w	r3, [sp, #6]
  Buffer& getOutBuffer() {return mBufferOut;}
 8007b0a:	f104 0848 	add.w	r8, r4, #72	@ 0x48
    rc = (mBuffers.getOutBuffer().writeBlock(&Op, 2) >= 0);
 8007b0e:	2202      	movs	r2, #2
 8007b10:	f10d 0106 	add.w	r1, sp, #6
 8007b14:	4640      	mov	r0, r8
 8007b16:	f7fd fa2f 	bl	8004f78 <_ZN6Buffer10writeBlockEPKvj>
 8007b1a:	43c6      	mvns	r6, r0
 8007b1c:	0ff6      	lsrs	r6, r6, #31
    rc += (mBuffers.getOutBuffer().writeBlock(mFileName, strlen(mFileName)+1) >= 0);
 8007b1e:	4638      	mov	r0, r7
 8007b20:	f7fa fb4a 	bl	80021b8 <strlen>
 8007b24:	1c42      	adds	r2, r0, #1
 8007b26:	4639      	mov	r1, r7
 8007b28:	4640      	mov	r0, r8
 8007b2a:	f7fd fa25 	bl	8004f78 <_ZN6Buffer10writeBlockEPKvj>
 8007b2e:	2800      	cmp	r0, #0
 8007b30:	bfa8      	it	ge
 8007b32:	3601      	addge	r6, #1
    rc += (mBuffers.getOutBuffer().writeBlock("octet", 6) >= 0);
 8007b34:	2206      	movs	r2, #6
 8007b36:	490b      	ldr	r1, [pc, #44]	@ (8007b64 <_ZN9FTPClient11RequestFileEmPKc+0xd0>)
 8007b38:	4640      	mov	r0, r8
 8007b3a:	f7fd fa1d 	bl	8004f78 <_ZN6Buffer10writeBlockEPKvj>
 8007b3e:	2800      	cmp	r0, #0
 8007b40:	bfa8      	it	ge
 8007b42:	3601      	addge	r6, #1
    
    mBuffers.advanceReadTop();
 8007b44:	4628      	mov	r0, r5
 8007b46:	f7fd f902 	bl	8004d4e <_ZN19BidirectionalBuffer14advanceReadTopEv>
    mRetryCounter = 0;
 8007b4a:	2300      	movs	r3, #0
 8007b4c:	f884 3080 	strb.w	r3, [r4, #128]	@ 0x80
    return rc;
  }
 8007b50:	4630      	mov	r0, r6
 8007b52:	b002      	add	sp, #8
 8007b54:	e8bd 81f0 	ldmia.w	sp!, {r4, r5, r6, r7, r8, pc}
    if (mState == FTP_State_END) return -2;
 8007b58:	f06f 0601 	mvn.w	r6, #1
 8007b5c:	e7f8      	b.n	8007b50 <_ZN9FTPClient11RequestFileEmPKc+0xbc>
 8007b5e:	bf00      	nop
 8007b60:	bea67251 	.word	0xbea67251
 8007b64:	0800c6e0 	.word	0x0800c6e0

08007b68 <_ZN9FTPClient9SendErrorE11FTP_ERRCODE>:
  }
  
  // **************************************************************
  // Send Error Message to Server
  // **************************************************************
  int FTPClient::SendError(FTP_ERRCODE ErrCode){
 8007b68:	b570      	push	{r4, r5, r6, lr}
 8007b6a:	b082      	sub	sp, #8
 8007b6c:	4604      	mov	r4, r0
 8007b6e:	460d      	mov	r5, r1
  // returns an indication whether server is closed.
  // server is closed only when connection is closed as well.
  // **************************************************************
  bool FTPClient::isClosed() const
  {
    if (!mUDPConnection.isClosed()) {
 8007b70:	305c      	adds	r0, #92	@ 0x5c
 8007b72:	f7fe fef1 	bl	8006958 <_ZNK13UDPConnection8isClosedEv>
    if (isClosed()) return -1;
 8007b76:	2800      	cmp	r0, #0
 8007b78:	d139      	bne.n	8007bee <_ZN9FTPClient9SendErrorE11FTP_ERRCODE+0x86>
    if (mState == FTP_State_END) return -2;
 8007b7a:	78a3      	ldrb	r3, [r4, #2]
 8007b7c:	2b03      	cmp	r3, #3
 8007b7e:	d039      	beq.n	8007bf4 <_ZN9FTPClient9SendErrorE11FTP_ERRCODE+0x8c>
    mTimeout = (getTimerTicks()+10000) % 11000;
 8007b80:	f002 fba6 	bl	800a2d0 <getTimerTicks>
 8007b84:	f500 501c 	add.w	r0, r0, #9984	@ 0x2700
 8007b88:	3010      	adds	r0, #16
 8007b8a:	4b1c      	ldr	r3, [pc, #112]	@ (8007bfc <_ZN9FTPClient9SendErrorE11FTP_ERRCODE+0x94>)
 8007b8c:	fba3 2300 	umull	r2, r3, r3, r0
 8007b90:	0b5b      	lsrs	r3, r3, #13
 8007b92:	f642 22f8 	movw	r2, #11000	@ 0x2af8
 8007b96:	fb02 0013 	mls	r0, r2, r3, r0
 8007b9a:	f8a4 007e 	strh.w	r0, [r4, #126]	@ 0x7e
    uint16_t Op = htons((uint16_t)FTP_OPCODE_ERROR);
 8007b9e:	f44f 63a0 	mov.w	r3, #1280	@ 0x500
 8007ba2:	f8ad 3006 	strh.w	r3, [sp, #6]
    uint16_t ErrCodeByte = htons(ErrCode);
 8007ba6:	022b      	lsls	r3, r5, #8
 8007ba8:	ea43 2315 	orr.w	r3, r3, r5, lsr #8
 8007bac:	f8ad 3004 	strh.w	r3, [sp, #4]
 8007bb0:	f104 0638 	add.w	r6, r4, #56	@ 0x38
 8007bb4:	3448      	adds	r4, #72	@ 0x48
    rc = (mBuffers.getOutBuffer().writeBlock(&Op, 2) >= 0);
 8007bb6:	2202      	movs	r2, #2
 8007bb8:	f10d 0106 	add.w	r1, sp, #6
 8007bbc:	4620      	mov	r0, r4
 8007bbe:	f7fd f9db 	bl	8004f78 <_ZN6Buffer10writeBlockEPKvj>
 8007bc2:	43c5      	mvns	r5, r0
 8007bc4:	0fed      	lsrs	r5, r5, #31
    rc += (mBuffers.getOutBuffer().writeBlock(&ErrCodeByte, 2) >= 0);
 8007bc6:	2202      	movs	r2, #2
 8007bc8:	a901      	add	r1, sp, #4
 8007bca:	4620      	mov	r0, r4
 8007bcc:	f7fd f9d4 	bl	8004f78 <_ZN6Buffer10writeBlockEPKvj>
 8007bd0:	2800      	cmp	r0, #0
 8007bd2:	bfa8      	it	ge
 8007bd4:	3501      	addge	r5, #1
    mBuffers.getOutBuffer().writeChar('\0');
 8007bd6:	2100      	movs	r1, #0
 8007bd8:	4620      	mov	r0, r4
 8007bda:	f7fd f940 	bl	8004e5e <_ZN6Buffer9writeCharEc>
    mBuffers.advanceReadTop();
 8007bde:	4630      	mov	r0, r6
 8007be0:	f7fd f8b5 	bl	8004d4e <_ZN19BidirectionalBuffer14advanceReadTopEv>
    return (rc > 0);
 8007be4:	1e28      	subs	r0, r5, #0
 8007be6:	bf18      	it	ne
 8007be8:	2001      	movne	r0, #1
  }
 8007bea:	b002      	add	sp, #8
 8007bec:	bd70      	pop	{r4, r5, r6, pc}
    if (isClosed()) return -1;
 8007bee:	f04f 30ff 	mov.w	r0, #4294967295
 8007bf2:	e7fa      	b.n	8007bea <_ZN9FTPClient9SendErrorE11FTP_ERRCODE+0x82>
    if (mState == FTP_State_END) return -2;
 8007bf4:	f06f 0001 	mvn.w	r0, #1
 8007bf8:	e7f7      	b.n	8007bea <_ZN9FTPClient9SendErrorE11FTP_ERRCODE+0x82>
 8007bfa:	bf00      	nop
 8007bfc:	bea67251 	.word	0xbea67251

08007c00 <_ZN9FTPClient10RetransmitEv>:
  int FTPClient::Retransmit(){
 8007c00:	b5f0      	push	{r4, r5, r6, r7, lr}
 8007c02:	b083      	sub	sp, #12
 8007c04:	4604      	mov	r4, r0
    if (!mUDPConnection.isClosed()) {
 8007c06:	305c      	adds	r0, #92	@ 0x5c
 8007c08:	f7fe fea6 	bl	8006958 <_ZNK13UDPConnection8isClosedEv>
    if (isClosed()) return -1;
 8007c0c:	2800      	cmp	r0, #0
 8007c0e:	d169      	bne.n	8007ce4 <_ZN9FTPClient10RetransmitEv+0xe4>
    if (mState == FTP_State_END) return -2;
 8007c10:	78a3      	ldrb	r3, [r4, #2]
 8007c12:	2b03      	cmp	r3, #3
 8007c14:	d069      	beq.n	8007cea <_ZN9FTPClient10RetransmitEv+0xea>
    mTimeout = (getTimerTicks()+10000) % 11000;
 8007c16:	f002 fb5b 	bl	800a2d0 <getTimerTicks>
 8007c1a:	f500 501c 	add.w	r0, r0, #9984	@ 0x2700
 8007c1e:	3010      	adds	r0, #16
 8007c20:	4b33      	ldr	r3, [pc, #204]	@ (8007cf0 <_ZN9FTPClient10RetransmitEv+0xf0>)
 8007c22:	fba3 2300 	umull	r2, r3, r3, r0
 8007c26:	0b5b      	lsrs	r3, r3, #13
 8007c28:	f642 22f8 	movw	r2, #11000	@ 0x2af8
 8007c2c:	fb02 0013 	mls	r0, r2, r3, r0
 8007c30:	f8a4 007e 	strh.w	r0, [r4, #126]	@ 0x7e
    if (mLastBlockReceived == 0)
 8007c34:	f8b4 307c 	ldrh.w	r3, [r4, #124]	@ 0x7c
 8007c38:	2b00      	cmp	r3, #0
 8007c3a:	d135      	bne.n	8007ca8 <_ZN9FTPClient10RetransmitEv+0xa8>
      Op = htons((uint16_t)FTP_OPCODE_RRQ);
 8007c3c:	f44f 7380 	mov.w	r3, #256	@ 0x100
 8007c40:	f8ad 3006 	strh.w	r3, [sp, #6]
 8007c44:	f44f 438a 	mov.w	r3, #17664	@ 0x4500
 8007c48:	f8a4 306a 	strh.w	r3, [r4, #106]	@ 0x6a
 8007c4c:	f104 0648 	add.w	r6, r4, #72	@ 0x48
      rc = (mBuffers.getOutBuffer().writeBlock(&Op, 2) >= 0);
 8007c50:	2202      	movs	r2, #2
 8007c52:	f10d 0106 	add.w	r1, sp, #6
 8007c56:	4630      	mov	r0, r6
 8007c58:	f7fd f98e 	bl	8004f78 <_ZN6Buffer10writeBlockEPKvj>
 8007c5c:	43c5      	mvns	r5, r0
 8007c5e:	0fed      	lsrs	r5, r5, #31
      rc += (mBuffers.getOutBuffer().writeBlock(mFileName, strlen(mFileName)+1) >= 0);
 8007c60:	f104 070c 	add.w	r7, r4, #12
 8007c64:	4638      	mov	r0, r7
 8007c66:	f7fa faa7 	bl	80021b8 <strlen>
 8007c6a:	1c42      	adds	r2, r0, #1
 8007c6c:	4639      	mov	r1, r7
 8007c6e:	4630      	mov	r0, r6
 8007c70:	f7fd f982 	bl	8004f78 <_ZN6Buffer10writeBlockEPKvj>
 8007c74:	2800      	cmp	r0, #0
 8007c76:	bfa8      	it	ge
 8007c78:	3501      	addge	r5, #1
      rc += (mBuffers.getOutBuffer().writeBlock("octet", 6) >= 0);
 8007c7a:	2206      	movs	r2, #6
 8007c7c:	491d      	ldr	r1, [pc, #116]	@ (8007cf4 <_ZN9FTPClient10RetransmitEv+0xf4>)
 8007c7e:	4630      	mov	r0, r6
 8007c80:	f7fd f97a 	bl	8004f78 <_ZN6Buffer10writeBlockEPKvj>
 8007c84:	2800      	cmp	r0, #0
 8007c86:	bfa8      	it	ge
 8007c88:	3501      	addge	r5, #1
    mBuffers.advanceReadTop();
 8007c8a:	f104 0038 	add.w	r0, r4, #56	@ 0x38
 8007c8e:	f7fd f85e 	bl	8004d4e <_ZN19BidirectionalBuffer14advanceReadTopEv>
    mRetryCounter++;
 8007c92:	f894 3080 	ldrb.w	r3, [r4, #128]	@ 0x80
 8007c96:	3301      	adds	r3, #1
 8007c98:	f884 3080 	strb.w	r3, [r4, #128]	@ 0x80
    return (rc > 0);
 8007c9c:	2d00      	cmp	r5, #0
 8007c9e:	bfd4      	ite	le
 8007ca0:	2000      	movle	r0, #0
 8007ca2:	2001      	movgt	r0, #1
  }
 8007ca4:	b003      	add	sp, #12
 8007ca6:	bdf0      	pop	{r4, r5, r6, r7, pc}
      Op = htons((uint16_t)FTP_OPCODE_ACK);
 8007ca8:	f44f 6380 	mov.w	r3, #1024	@ 0x400
 8007cac:	f8ad 3006 	strh.w	r3, [sp, #6]
 8007cb0:	f104 0648 	add.w	r6, r4, #72	@ 0x48
      rc = (mBuffers.getOutBuffer().writeBlock(&Op, 2) >= 0);
 8007cb4:	2202      	movs	r2, #2
 8007cb6:	f10d 0106 	add.w	r1, sp, #6
 8007cba:	4630      	mov	r0, r6
 8007cbc:	f7fd f95c 	bl	8004f78 <_ZN6Buffer10writeBlockEPKvj>
 8007cc0:	43c5      	mvns	r5, r0
 8007cc2:	0fed      	lsrs	r5, r5, #31
      uint16_t h_octet = htons(mLastBlockReceived);
 8007cc4:	f8b4 207c 	ldrh.w	r2, [r4, #124]	@ 0x7c
 8007cc8:	0213      	lsls	r3, r2, #8
 8007cca:	ea43 2312 	orr.w	r3, r3, r2, lsr #8
 8007cce:	f8ad 3004 	strh.w	r3, [sp, #4]
      rc += (mBuffers.getOutBuffer().writeBlock(&h_octet, 2) >= 0);
 8007cd2:	2202      	movs	r2, #2
 8007cd4:	a901      	add	r1, sp, #4
 8007cd6:	4630      	mov	r0, r6
 8007cd8:	f7fd f94e 	bl	8004f78 <_ZN6Buffer10writeBlockEPKvj>
 8007cdc:	2800      	cmp	r0, #0
 8007cde:	bfa8      	it	ge
 8007ce0:	3501      	addge	r5, #1
 8007ce2:	e7d2      	b.n	8007c8a <_ZN9FTPClient10RetransmitEv+0x8a>
    if (isClosed()) return -1;
 8007ce4:	f04f 30ff 	mov.w	r0, #4294967295
 8007ce8:	e7dc      	b.n	8007ca4 <_ZN9FTPClient10RetransmitEv+0xa4>
    if (mState == FTP_State_END) return -2;
 8007cea:	f06f 0001 	mvn.w	r0, #1
 8007cee:	e7d9      	b.n	8007ca4 <_ZN9FTPClient10RetransmitEv+0xa4>
 8007cf0:	bea67251 	.word	0xbea67251
 8007cf4:	0800c6e0 	.word	0x0800c6e0

08007cf8 <_ZN9FTPClient14SaveBlockToMemEt>:
  int FTPClient::SaveBlockToMem(uint16_t BlockNum){
 8007cf8:	b5f0      	push	{r4, r5, r6, r7, lr}
 8007cfa:	b083      	sub	sp, #12
 8007cfc:	4604      	mov	r4, r0
    if (BlockNum ==0 ||BlockNum != (uint16_t)(mLastBlockReceived +1)){
 8007cfe:	2900      	cmp	r1, #0
 8007d00:	d03c      	beq.n	8007d7c <_ZN9FTPClient14SaveBlockToMemEt+0x84>
 8007d02:	460f      	mov	r7, r1
 8007d04:	f8b0 307c 	ldrh.w	r3, [r0, #124]	@ 0x7c
 8007d08:	3301      	adds	r3, #1
 8007d0a:	b29b      	uxth	r3, r3
 8007d0c:	428b      	cmp	r3, r1
 8007d0e:	d135      	bne.n	8007d7c <_ZN9FTPClient14SaveBlockToMemEt+0x84>
  Buffer& getInBuffer() {return mBufferIn;}
 8007d10:	f100 0538 	add.w	r5, r0, #56	@ 0x38
    rc = OnReceive(mBuffers.getInBuffer(), BlockNum);
 8007d14:	6b43      	ldr	r3, [r0, #52]	@ 0x34
 8007d16:	4628      	mov	r0, r5
 8007d18:	4798      	blx	r3
    if (rc < 0) return rc;
 8007d1a:	1e06      	subs	r6, r0, #0
 8007d1c:	db2b      	blt.n	8007d76 <_ZN9FTPClient14SaveBlockToMemEt+0x7e>
    while (mBuffers.getInBuffer().readChar() >= 0);
 8007d1e:	4628      	mov	r0, r5
 8007d20:	f7fd f8fa 	bl	8004f18 <_ZN6Buffer8readCharEv>
 8007d24:	2800      	cmp	r0, #0
 8007d26:	dafa      	bge.n	8007d1e <_ZN9FTPClient14SaveBlockToMemEt+0x26>
    mLastBlockReceived = BlockNum;
 8007d28:	f8a4 707c 	strh.w	r7, [r4, #124]	@ 0x7c
    uint16_t h_octet = htons(mLastBlockReceived);
 8007d2c:	023b      	lsls	r3, r7, #8
 8007d2e:	ea43 2317 	orr.w	r3, r3, r7, lsr #8
 8007d32:	f8ad 3006 	strh.w	r3, [sp, #6]
    uint16_t Op = htons((uint16_t)FTP_OPCODE_ACK);
 8007d36:	f44f 6380 	mov.w	r3, #1024	@ 0x400
 8007d3a:	f8ad 3004 	strh.w	r3, [sp, #4]
    mBytesReceived += rc;
 8007d3e:	6863      	ldr	r3, [r4, #4]
 8007d40:	4433      	add	r3, r6
 8007d42:	6063      	str	r3, [r4, #4]
  Buffer& getOutBuffer() {return mBufferOut;}
 8007d44:	f104 0748 	add.w	r7, r4, #72	@ 0x48
    rc += (mBuffers.getOutBuffer().writeBlock(&Op, 2) >0);
 8007d48:	2202      	movs	r2, #2
 8007d4a:	a901      	add	r1, sp, #4
 8007d4c:	4638      	mov	r0, r7
 8007d4e:	f7fd f913 	bl	8004f78 <_ZN6Buffer10writeBlockEPKvj>
 8007d52:	2800      	cmp	r0, #0
 8007d54:	bfc8      	it	gt
 8007d56:	3601      	addgt	r6, #1
    rc += (mBuffers.getOutBuffer().writeBlock(&h_octet, 2) >0 );
 8007d58:	2202      	movs	r2, #2
 8007d5a:	f10d 0106 	add.w	r1, sp, #6
 8007d5e:	4638      	mov	r0, r7
 8007d60:	f7fd f90a 	bl	8004f78 <_ZN6Buffer10writeBlockEPKvj>
 8007d64:	2800      	cmp	r0, #0
 8007d66:	bfc8      	it	gt
 8007d68:	3601      	addgt	r6, #1
    mBuffers.advanceReadTop();
 8007d6a:	4628      	mov	r0, r5
 8007d6c:	f7fc ffef 	bl	8004d4e <_ZN19BidirectionalBuffer14advanceReadTopEv>
    mRetryCounter = 0;
 8007d70:	2300      	movs	r3, #0
 8007d72:	f884 3080 	strb.w	r3, [r4, #128]	@ 0x80
  }
 8007d76:	4630      	mov	r0, r6
 8007d78:	b003      	add	sp, #12
 8007d7a:	bdf0      	pop	{r4, r5, r6, r7, pc}
      Retransmit();
 8007d7c:	4620      	mov	r0, r4
 8007d7e:	f7ff ff3f 	bl	8007c00 <_ZN9FTPClient10RetransmitEv>
      return -1;
 8007d82:	f04f 36ff 	mov.w	r6, #4294967295
 8007d86:	e7f6      	b.n	8007d76 <_ZN9FTPClient14SaveBlockToMemEt+0x7e>

08007d88 <_ZN9FTPClient10readBufferEv>:
  {
 8007d88:	b570      	push	{r4, r5, r6, lr}
 8007d8a:	b082      	sub	sp, #8
 8007d8c:	4605      	mov	r5, r0
    mBuffers.advanceReadTop();
 8007d8e:	f100 0438 	add.w	r4, r0, #56	@ 0x38
 8007d92:	4620      	mov	r0, r4
 8007d94:	f7fc ffdb 	bl	8004d4e <_ZN19BidirectionalBuffer14advanceReadTopEv>
    unsigned int inSize = mBuffers.getInBuffer().getDataSize();
 8007d98:	4620      	mov	r0, r4
 8007d9a:	f7fd f83e 	bl	8004e1a <_ZNK6Buffer11getDataSizeEv>
    if (inSize == 0) {
 8007d9e:	b138      	cbz	r0, 8007db0 <_ZN9FTPClient10readBufferEv+0x28>
    switch(mState){
 8007da0:	78ab      	ldrb	r3, [r5, #2]
 8007da2:	2b01      	cmp	r3, #1
 8007da4:	d006      	beq.n	8007db4 <_ZN9FTPClient10readBufferEv+0x2c>
    while (mBuffers.getInBuffer().readChar() >= 0);
 8007da6:	4620      	mov	r0, r4
 8007da8:	f7fd f8b6 	bl	8004f18 <_ZN6Buffer8readCharEv>
 8007dac:	2800      	cmp	r0, #0
 8007dae:	dafa      	bge.n	8007da6 <_ZN9FTPClient10readBufferEv+0x1e>
  }
 8007db0:	b002      	add	sp, #8
 8007db2:	bd70      	pop	{r4, r5, r6, pc}
 8007db4:	f8b5 3060 	ldrh.w	r3, [r5, #96]	@ 0x60
 8007db8:	f8a5 306a 	strh.w	r3, [r5, #106]	@ 0x6a
      mBuffers.getInBuffer().readBlock(octet,4);
 8007dbc:	2204      	movs	r2, #4
 8007dbe:	eb0d 0102 	add.w	r1, sp, r2
 8007dc2:	4620      	mov	r0, r4
 8007dc4:	f7fd f974 	bl	80050b0 <_ZNK6Buffer9readBlockEPcj>
      mBuffers.getInBuffer().advanceRead(4);
 8007dc8:	2104      	movs	r1, #4
 8007dca:	4620      	mov	r0, r4
 8007dcc:	f7fd f976 	bl	80050bc <_ZN6Buffer11advanceReadEj>
      Opcode = (FTP_OPCODE)ntohs((*(uint16_t *)octet));
 8007dd0:	f8bd 3004 	ldrh.w	r3, [sp, #4]
 8007dd4:	0a1b      	lsrs	r3, r3, #8
 8007dd6:	3b01      	subs	r3, #1
 8007dd8:	2b04      	cmp	r3, #4
 8007dda:	d8e4      	bhi.n	8007da6 <_ZN9FTPClient10readBufferEv+0x1e>
 8007ddc:	e8df f003 	tbb	[pc, r3]
 8007de0:	4a034a4a 	.word	0x4a034a4a
 8007de4:	32          	.byte	0x32
 8007de5:	00          	.byte	0x00
          uint32_t len = mBuffers.getInBuffer().getDataSize();
 8007de6:	4620      	mov	r0, r4
 8007de8:	f7fd f817 	bl	8004e1a <_ZNK6Buffer11getDataSizeEv>
 8007dec:	4606      	mov	r6, r0
          int save_res = SaveBlockToMem(ntohs(*(uint16_t *)(octet+2)));
 8007dee:	f8bd 3006 	ldrh.w	r3, [sp, #6]
 8007df2:	0a19      	lsrs	r1, r3, #8
 8007df4:	ea41 2103 	orr.w	r1, r1, r3, lsl #8
 8007df8:	b289      	uxth	r1, r1
 8007dfa:	4628      	mov	r0, r5
 8007dfc:	f7ff ff7c 	bl	8007cf8 <_ZN9FTPClient14SaveBlockToMemEt>
          if (save_res > 0 && len < FTP_BLOCK_SIZE ) 
 8007e00:	1e03      	subs	r3, r0, #0
 8007e02:	dd14      	ble.n	8007e2e <_ZN9FTPClient10readBufferEv+0xa6>
 8007e04:	f5b6 7f00 	cmp.w	r6, #512	@ 0x200
 8007e08:	d201      	bcs.n	8007e0e <_ZN9FTPClient10readBufferEv+0x86>
            mState = FTP_State_END;
 8007e0a:	2303      	movs	r3, #3
 8007e0c:	70ab      	strb	r3, [r5, #2]
          mTimeout = (getTimerTicks()+10000) % 11000;
 8007e0e:	f002 fa5f 	bl	800a2d0 <getTimerTicks>
 8007e12:	f500 531c 	add.w	r3, r0, #9984	@ 0x2700
 8007e16:	3310      	adds	r3, #16
 8007e18:	4a20      	ldr	r2, [pc, #128]	@ (8007e9c <_ZN9FTPClient10readBufferEv+0x114>)
 8007e1a:	fba2 1203 	umull	r1, r2, r2, r3
 8007e1e:	0b52      	lsrs	r2, r2, #13
 8007e20:	f642 21f8 	movw	r1, #11000	@ 0x2af8
 8007e24:	fb01 3312 	mls	r3, r1, r2, r3
 8007e28:	f8a5 307e 	strh.w	r3, [r5, #126]	@ 0x7e
        break;
 8007e2c:	e7bb      	b.n	8007da6 <_ZN9FTPClient10readBufferEv+0x1e>
          else if (save_res == -4){
 8007e2e:	f113 0f04 	cmn.w	r3, #4
 8007e32:	d1ec      	bne.n	8007e0e <_ZN9FTPClient10readBufferEv+0x86>
            mLastError = FTP_ERRCODE_DISK_FULL;
 8007e34:	2103      	movs	r1, #3
 8007e36:	8029      	strh	r1, [r5, #0]
            SendError(FTP_ERRCODE_DISK_FULL);
 8007e38:	4628      	mov	r0, r5
 8007e3a:	f7ff fe95 	bl	8007b68 <_ZN9FTPClient9SendErrorE11FTP_ERRCODE>
            mState = FTP_State_IDLE;
 8007e3e:	2300      	movs	r3, #0
 8007e40:	70ab      	strb	r3, [r5, #2]
 8007e42:	e7e4      	b.n	8007e0e <_ZN9FTPClient10readBufferEv+0x86>
        mTimeout = (getTimerTicks()+10000) % 11000;
 8007e44:	f002 fa44 	bl	800a2d0 <getTimerTicks>
 8007e48:	f500 531c 	add.w	r3, r0, #9984	@ 0x2700
 8007e4c:	3310      	adds	r3, #16
 8007e4e:	4a13      	ldr	r2, [pc, #76]	@ (8007e9c <_ZN9FTPClient10readBufferEv+0x114>)
 8007e50:	fba2 1203 	umull	r1, r2, r2, r3
 8007e54:	0b52      	lsrs	r2, r2, #13
 8007e56:	f642 21f8 	movw	r1, #11000	@ 0x2af8
 8007e5a:	fb01 3312 	mls	r3, r1, r2, r3
 8007e5e:	f8a5 307e 	strh.w	r3, [r5, #126]	@ 0x7e
        mLastError = (FTP_ERRCODE)ntohs((*(uint16_t *)(octet+2)));
 8007e62:	f8bd 2006 	ldrh.w	r2, [sp, #6]
 8007e66:	0213      	lsls	r3, r2, #8
 8007e68:	ea43 2312 	orr.w	r3, r3, r2, lsr #8
 8007e6c:	802b      	strh	r3, [r5, #0]
        mState = FTP_State_IDLE;
 8007e6e:	2300      	movs	r3, #0
 8007e70:	70ab      	strb	r3, [r5, #2]
        break;
 8007e72:	e798      	b.n	8007da6 <_ZN9FTPClient10readBufferEv+0x1e>
        SendError(FTP_ERRCODE_ILIGAL_OP);
 8007e74:	2104      	movs	r1, #4
 8007e76:	4628      	mov	r0, r5
 8007e78:	f7ff fe76 	bl	8007b68 <_ZN9FTPClient9SendErrorE11FTP_ERRCODE>
        mTimeout = (getTimerTicks()+10000) % 11000;
 8007e7c:	f002 fa28 	bl	800a2d0 <getTimerTicks>
 8007e80:	f500 531c 	add.w	r3, r0, #9984	@ 0x2700
 8007e84:	3310      	adds	r3, #16
 8007e86:	4a05      	ldr	r2, [pc, #20]	@ (8007e9c <_ZN9FTPClient10readBufferEv+0x114>)
 8007e88:	fba2 1203 	umull	r1, r2, r2, r3
 8007e8c:	0b52      	lsrs	r2, r2, #13
 8007e8e:	f642 21f8 	movw	r1, #11000	@ 0x2af8
 8007e92:	fb01 3312 	mls	r3, r1, r2, r3
 8007e96:	f8a5 307e 	strh.w	r3, [r5, #126]	@ 0x7e
        break;
 8007e9a:	e784      	b.n	8007da6 <_ZN9FTPClient10readBufferEv+0x1e>
 8007e9c:	bea67251 	.word	0xbea67251

08007ea0 <_ZN9FTPClient12periodicCallEv>:
  {
 8007ea0:	b538      	push	{r3, r4, r5, lr}
 8007ea2:	4604      	mov	r4, r0
    if (!mUDPConnection.isClosed()) {
 8007ea4:	f100 055c 	add.w	r5, r0, #92	@ 0x5c
 8007ea8:	4628      	mov	r0, r5
 8007eaa:	f7fe fd55 	bl	8006958 <_ZNK13UDPConnection8isClosedEv>
    if (isClosed()) return;
 8007eae:	b100      	cbz	r0, 8007eb2 <_ZN9FTPClient12periodicCallEv+0x12>
  }
 8007eb0:	bd38      	pop	{r3, r4, r5, pc}
    readBuffer();
 8007eb2:	4620      	mov	r0, r4
 8007eb4:	f7ff ff68 	bl	8007d88 <_ZN9FTPClient10readBufferEv>
    switch(mState){
 8007eb8:	78a3      	ldrb	r3, [r4, #2]
 8007eba:	2b01      	cmp	r3, #1
 8007ebc:	d022      	beq.n	8007f04 <_ZN9FTPClient12periodicCallEv+0x64>
 8007ebe:	2b03      	cmp	r3, #3
 8007ec0:	d014      	beq.n	8007eec <_ZN9FTPClient12periodicCallEv+0x4c>
 8007ec2:	b123      	cbz	r3, 8007ece <_ZN9FTPClient12periodicCallEv+0x2e>
    mBuffers.advanceReadTop();
 8007ec4:	f104 0038 	add.w	r0, r4, #56	@ 0x38
 8007ec8:	f7fc ff41 	bl	8004d4e <_ZN19BidirectionalBuffer14advanceReadTopEv>
 8007ecc:	e7f0      	b.n	8007eb0 <_ZN9FTPClient12periodicCallEv+0x10>
    if (!mUDPConnection.isClosed()) {
 8007ece:	4628      	mov	r0, r5
 8007ed0:	f7fe fd42 	bl	8006958 <_ZNK13UDPConnection8isClosedEv>
      if (!isClosed() && mBuffers.getOutBuffer().getDataSize() == 0)
 8007ed4:	2800      	cmp	r0, #0
 8007ed6:	d1f5      	bne.n	8007ec4 <_ZN9FTPClient12periodicCallEv+0x24>
 8007ed8:	f104 0048 	add.w	r0, r4, #72	@ 0x48
 8007edc:	f7fc ff9d 	bl	8004e1a <_ZNK6Buffer11getDataSizeEv>
 8007ee0:	2800      	cmp	r0, #0
 8007ee2:	d1ef      	bne.n	8007ec4 <_ZN9FTPClient12periodicCallEv+0x24>
    mUDPConnection.closeObject();
 8007ee4:	4628      	mov	r0, r5
 8007ee6:	f7fe fd8f 	bl	8006a08 <_ZN13UDPConnection11closeObjectEv>
  }
 8007eea:	e7eb      	b.n	8007ec4 <_ZN9FTPClient12periodicCallEv+0x24>
      if (mBuffers.getOutBuffer().getDataSize() == 0) {
 8007eec:	f104 0048 	add.w	r0, r4, #72	@ 0x48
 8007ef0:	f7fc ff93 	bl	8004e1a <_ZNK6Buffer11getDataSizeEv>
 8007ef4:	2800      	cmp	r0, #0
 8007ef6:	d1e5      	bne.n	8007ec4 <_ZN9FTPClient12periodicCallEv+0x24>
        OnReceiveEnd(mBytesReceived);
 8007ef8:	6b23      	ldr	r3, [r4, #48]	@ 0x30
 8007efa:	6860      	ldr	r0, [r4, #4]
 8007efc:	4798      	blx	r3
        mState = FTP_State_IDLE;
 8007efe:	2300      	movs	r3, #0
 8007f00:	70a3      	strb	r3, [r4, #2]
 8007f02:	e7df      	b.n	8007ec4 <_ZN9FTPClient12periodicCallEv+0x24>
      if ((mTimeout < getTimerTicks() % 11000) && (mTimeout+1000U > getTimerTicks() % 11000)){
 8007f04:	f8b4 507e 	ldrh.w	r5, [r4, #126]	@ 0x7e
 8007f08:	f002 f9e2 	bl	800a2d0 <getTimerTicks>
 8007f0c:	4b19      	ldr	r3, [pc, #100]	@ (8007f74 <_ZN9FTPClient12periodicCallEv+0xd4>)
 8007f0e:	fba3 2300 	umull	r2, r3, r3, r0
 8007f12:	0b5b      	lsrs	r3, r3, #13
 8007f14:	f642 22f8 	movw	r2, #11000	@ 0x2af8
 8007f18:	fb02 0013 	mls	r0, r2, r3, r0
 8007f1c:	4285      	cmp	r5, r0
 8007f1e:	d306      	bcc.n	8007f2e <_ZN9FTPClient12periodicCallEv+0x8e>
      if (  mRetryCounter > NUM_OF_RETRIES )
 8007f20:	f894 3080 	ldrb.w	r3, [r4, #128]	@ 0x80
 8007f24:	2b0a      	cmp	r3, #10
        mState = FTP_State_IDLE;
 8007f26:	bf84      	itt	hi
 8007f28:	2300      	movhi	r3, #0
 8007f2a:	70a3      	strbhi	r3, [r4, #2]
 8007f2c:	e7ca      	b.n	8007ec4 <_ZN9FTPClient12periodicCallEv+0x24>
      if ((mTimeout < getTimerTicks() % 11000) && (mTimeout+1000U > getTimerTicks() % 11000)){
 8007f2e:	f8b4 507e 	ldrh.w	r5, [r4, #126]	@ 0x7e
 8007f32:	f505 757a 	add.w	r5, r5, #1000	@ 0x3e8
 8007f36:	f002 f9cb 	bl	800a2d0 <getTimerTicks>
 8007f3a:	4b0e      	ldr	r3, [pc, #56]	@ (8007f74 <_ZN9FTPClient12periodicCallEv+0xd4>)
 8007f3c:	fba3 2300 	umull	r2, r3, r3, r0
 8007f40:	0b5b      	lsrs	r3, r3, #13
 8007f42:	f642 22f8 	movw	r2, #11000	@ 0x2af8
 8007f46:	fb02 0013 	mls	r0, r2, r3, r0
 8007f4a:	4285      	cmp	r5, r0
 8007f4c:	d9e8      	bls.n	8007f20 <_ZN9FTPClient12periodicCallEv+0x80>
        Retransmit();
 8007f4e:	4620      	mov	r0, r4
 8007f50:	f7ff fe56 	bl	8007c00 <_ZN9FTPClient10RetransmitEv>
        mTimeout = (getTimerTicks()+10000) % 11000;
 8007f54:	f002 f9bc 	bl	800a2d0 <getTimerTicks>
 8007f58:	f500 531c 	add.w	r3, r0, #9984	@ 0x2700
 8007f5c:	3310      	adds	r3, #16
 8007f5e:	4a05      	ldr	r2, [pc, #20]	@ (8007f74 <_ZN9FTPClient12periodicCallEv+0xd4>)
 8007f60:	fba2 1203 	umull	r1, r2, r2, r3
 8007f64:	0b52      	lsrs	r2, r2, #13
 8007f66:	f642 21f8 	movw	r1, #11000	@ 0x2af8
 8007f6a:	fb01 3312 	mls	r3, r1, r2, r3
 8007f6e:	f8a4 307e 	strh.w	r3, [r4, #126]	@ 0x7e
 8007f72:	e7d5      	b.n	8007f20 <_ZN9FTPClient12periodicCallEv+0x80>
 8007f74:	bea67251 	.word	0xbea67251

08007f78 <calcCRC>:
// **************************************************************
// Calculates the CRC for the stream pointed by 'buffer'.
// CRC polynom is 0x1021 (CRC16-CCITT)
// **************************************************************
uint16_t calcCRC(const unsigned char* buffer, uint16_t buf_length)
{
 8007f78:	b480      	push	{r7}
 8007f7a:	b085      	sub	sp, #20
 8007f7c:	af00      	add	r7, sp, #0
 8007f7e:	6078      	str	r0, [r7, #4]
 8007f80:	460b      	mov	r3, r1
 8007f82:	807b      	strh	r3, [r7, #2]
  uint16_t crc=0, counter;
 8007f84:	2300      	movs	r3, #0
 8007f86:	81fb      	strh	r3, [r7, #14]
  uint8_t index;

  // just to make sure that input stream is valid.
  if (!buffer) {
 8007f88:	687b      	ldr	r3, [r7, #4]
 8007f8a:	2b00      	cmp	r3, #0
 8007f8c:	d101      	bne.n	8007f92 <calcCRC+0x1a>
    buf_length = 0;
 8007f8e:	2300      	movs	r3, #0
 8007f90:	807b      	strh	r3, [r7, #2]
  }

  for (counter=0; counter<buf_length; counter++)
 8007f92:	2300      	movs	r3, #0
 8007f94:	81bb      	strh	r3, [r7, #12]
 8007f96:	e017      	b.n	8007fc8 <calcCRC+0x50>
  {
    index = (crc >> 8) ^ buffer[counter];
 8007f98:	89fb      	ldrh	r3, [r7, #14]
 8007f9a:	0a1b      	lsrs	r3, r3, #8
 8007f9c:	b29b      	uxth	r3, r3
 8007f9e:	b2da      	uxtb	r2, r3
 8007fa0:	89bb      	ldrh	r3, [r7, #12]
 8007fa2:	6879      	ldr	r1, [r7, #4]
 8007fa4:	440b      	add	r3, r1
 8007fa6:	781b      	ldrb	r3, [r3, #0]
 8007fa8:	4053      	eors	r3, r2
 8007faa:	727b      	strb	r3, [r7, #9]
    crc = (crc << 8) ^ crc_table[index];
 8007fac:	89fb      	ldrh	r3, [r7, #14]
 8007fae:	021b      	lsls	r3, r3, #8
 8007fb0:	b21a      	sxth	r2, r3
 8007fb2:	7a7b      	ldrb	r3, [r7, #9]
 8007fb4:	490e      	ldr	r1, [pc, #56]	@ (8007ff0 <calcCRC+0x78>)
 8007fb6:	f831 3013 	ldrh.w	r3, [r1, r3, lsl #1]
 8007fba:	b21b      	sxth	r3, r3
 8007fbc:	4053      	eors	r3, r2
 8007fbe:	b21b      	sxth	r3, r3
 8007fc0:	81fb      	strh	r3, [r7, #14]
  for (counter=0; counter<buf_length; counter++)
 8007fc2:	89bb      	ldrh	r3, [r7, #12]
 8007fc4:	3301      	adds	r3, #1
 8007fc6:	81bb      	strh	r3, [r7, #12]
 8007fc8:	89ba      	ldrh	r2, [r7, #12]
 8007fca:	887b      	ldrh	r3, [r7, #2]
 8007fcc:	429a      	cmp	r2, r3
 8007fce:	d3e3      	bcc.n	8007f98 <calcCRC+0x20>
  }

  // move bytes to network order - i.e. first network Byte resides in the local LSByte
  unsigned short retVal = ((crc >> 8) & 0xFF) | ((crc & 0xFF) << 8);
 8007fd0:	89fb      	ldrh	r3, [r7, #14]
 8007fd2:	0a1b      	lsrs	r3, r3, #8
 8007fd4:	b29b      	uxth	r3, r3
 8007fd6:	b21a      	sxth	r2, r3
 8007fd8:	89fb      	ldrh	r3, [r7, #14]
 8007fda:	021b      	lsls	r3, r3, #8
 8007fdc:	b21b      	sxth	r3, r3
 8007fde:	4313      	orrs	r3, r2
 8007fe0:	b21b      	sxth	r3, r3
 8007fe2:	817b      	strh	r3, [r7, #10]
  return retVal;
 8007fe4:	897b      	ldrh	r3, [r7, #10]
 8007fe6:	4618      	mov	r0, r3
 8007fe8:	3714      	adds	r7, #20
 8007fea:	46bd      	mov	sp, r7
 8007fec:	bc80      	pop	{r7}
 8007fee:	4770      	bx	lr
 8007ff0:	0800c6e8 	.word	0x0800c6e8

08007ff4 <_ZN14upgradeManagerC1ER6Layer3>:
//#include "Hardware/FPGA_Update.h"
#include <string.h>

upgradeManager* upgradeManager::mSingleton = NULL;

upgradeManager::upgradeManager(Layer3& udpLayer):
 8007ff4:	b510      	push	{r4, lr}
 8007ff6:	b082      	sub	sp, #8
 8007ff8:	4604      	mov	r4, r0
 8007ffa:	460b      	mov	r3, r1
  mSWStatus(UPDATE_READY),
 8007ffc:	2201      	movs	r2, #1
 8007ffe:	f800 2b04 	strb.w	r2, [r0], #4
  mFTPSWClient(FTP_CLIENT_PORT, UDP_PORT_FTP ,udpLayer,upgradeManager::On_StartSWUpgrade, upgradeManager::On_DataReceived)
 8008002:	4908      	ldr	r1, [pc, #32]	@ (8008024 <_ZN14upgradeManagerC1ER6Layer3+0x30>)
 8008004:	9101      	str	r1, [sp, #4]
 8008006:	4908      	ldr	r1, [pc, #32]	@ (8008028 <_ZN14upgradeManagerC1ER6Layer3+0x34>)
 8008008:	9100      	str	r1, [sp, #0]
 800800a:	f244 5110 	movw	r1, #17680	@ 0x4510
 800800e:	f7ff fd11 	bl	8007a34 <_ZN9FTPClientC1Et12TCPPortTypesR6Layer3PFvmEPFiR6BuffertE>
  //mFTPFWClient(FTP_HW_CLIENT_PORT, UDP_PORT_FTP_FW, udpLayer,upgradeManager::On_StartFWUpgrade , upgradeManager::On_FWDataReceived),
  //mFWStatus(UPDATE_READY)
{
  if (mSingleton == NULL)
 8008012:	4b06      	ldr	r3, [pc, #24]	@ (800802c <_ZN14upgradeManagerC1ER6Layer3+0x38>)
 8008014:	681b      	ldr	r3, [r3, #0]
 8008016:	b113      	cbz	r3, 800801e <_ZN14upgradeManagerC1ER6Layer3+0x2a>
    mSingleton = this;
}
 8008018:	4620      	mov	r0, r4
 800801a:	b002      	add	sp, #8
 800801c:	bd10      	pop	{r4, pc}
    mSingleton = this;
 800801e:	4b03      	ldr	r3, [pc, #12]	@ (800802c <_ZN14upgradeManagerC1ER6Layer3+0x38>)
 8008020:	601c      	str	r4, [r3, #0]
 8008022:	e7f9      	b.n	8008018 <_ZN14upgradeManagerC1ER6Layer3+0x24>
 8008024:	080081a9 	.word	0x080081a9
 8008028:	080082d1 	.word	0x080082d1
 800802c:	2000abdc 	.word	0x2000abdc

08008030 <_ZN14upgradeManager23handleSetSoftwareUpdateER6Buffer>:

COMMAND_SUCCESS upgradeManager::handleSetSoftwareUpdate(Buffer& DataIn)
{
 8008030:	b530      	push	{r4, r5, lr}
 8008032:	b08b      	sub	sp, #44	@ 0x2c
 8008034:	4605      	mov	r5, r0
 8008036:	460c      	mov	r4, r1
  if (DataIn.readShort() != 40)
 8008038:	4608      	mov	r0, r1
 800803a:	f7fc ff87 	bl	8004f4c <_ZN6Buffer9readShortEv>
 800803e:	2828      	cmp	r0, #40	@ 0x28
 8008040:	d002      	beq.n	8008048 <_ZN14upgradeManager23handleSetSoftwareUpdateER6Buffer+0x18>
    return NACK;
 8008042:	2001      	movs	r0, #1
  mSWStatus = UPDATE_BUSY;
  if (mFTPSWClient.RequestFile(ip,filename) < 0)
    return NACK;
  return ACK;
  
}
 8008044:	b00b      	add	sp, #44	@ 0x2c
 8008046:	bd30      	pop	{r4, r5, pc}
  DataIn.readBlock((char *)&ip,4);
 8008048:	2204      	movs	r2, #4
 800804a:	a909      	add	r1, sp, #36	@ 0x24
 800804c:	4620      	mov	r0, r4
 800804e:	f7fd f82f 	bl	80050b0 <_ZNK6Buffer9readBlockEPcj>
  DataIn.advanceRead(4);
 8008052:	2104      	movs	r1, #4
 8008054:	4620      	mov	r0, r4
 8008056:	f7fd f831 	bl	80050bc <_ZN6Buffer11advanceReadEj>
  DataIn.readBlock(filename,33);
 800805a:	2221      	movs	r2, #33	@ 0x21
 800805c:	4669      	mov	r1, sp
 800805e:	4620      	mov	r0, r4
 8008060:	f7fd f826 	bl	80050b0 <_ZNK6Buffer9readBlockEPcj>
  DataIn.advanceRead(33);
 8008064:	2121      	movs	r1, #33	@ 0x21
 8008066:	4620      	mov	r0, r4
 8008068:	f7fd f828 	bl	80050bc <_ZN6Buffer11advanceReadEj>
  mSWStatus = UPDATE_BUSY;
 800806c:	4628      	mov	r0, r5
 800806e:	2315      	movs	r3, #21
 8008070:	f800 3b04 	strb.w	r3, [r0], #4
  if (mFTPSWClient.RequestFile(ip,filename) < 0)
 8008074:	466a      	mov	r2, sp
 8008076:	9909      	ldr	r1, [sp, #36]	@ 0x24
 8008078:	f7ff fd0c 	bl	8007a94 <_ZN9FTPClient11RequestFileEmPKc>
 800807c:	0fc0      	lsrs	r0, r0, #31
 800807e:	e7e1      	b.n	8008044 <_ZN14upgradeManager23handleSetSoftwareUpdateER6Buffer+0x14>

08008080 <_ZN14upgradeManager21handleGetSoftwareInfoER6Buffer>:

void upgradeManager::handleGetSoftwareInfo(Buffer& DataOut)
{
 8008080:	b538      	push	{r3, r4, r5, lr}
 8008082:	4605      	mov	r5, r0
 8008084:	460c      	mov	r4, r1
  if ( mSWStatus == UPDATE_BUSY ){
 8008086:	7803      	ldrb	r3, [r0, #0]
 8008088:	2b15      	cmp	r3, #21
 800808a:	d02c      	beq.n	80080e6 <_ZN14upgradeManager21handleGetSoftwareInfoER6Buffer+0x66>
      mSWStatus = UPDATE_BUSY;
      break;
    }  
  }
  
  DataOut.writeChar(CONTROL_OPCODE_SW_INFO);
 800808c:	21cb      	movs	r1, #203	@ 0xcb
 800808e:	4620      	mov	r0, r4
 8008090:	f7fc fee5 	bl	8004e5e <_ZN6Buffer9writeCharEc>
  DataOut.writeChar(0);
 8008094:	2100      	movs	r1, #0
 8008096:	4620      	mov	r0, r4
 8008098:	f7fc fee1 	bl	8004e5e <_ZN6Buffer9writeCharEc>
  DataOut.writeChar(82);
 800809c:	2152      	movs	r1, #82	@ 0x52
 800809e:	4620      	mov	r0, r4
 80080a0:	f7fc fedd 	bl	8004e5e <_ZN6Buffer9writeCharEc>
  DataOut.writeBlock(&(mFTPSWClient.mServerIP), 4);
 80080a4:	2204      	movs	r2, #4
 80080a6:	f105 010c 	add.w	r1, r5, #12
 80080aa:	4620      	mov	r0, r4
 80080ac:	f7fc ff64 	bl	8004f78 <_ZN6Buffer10writeBlockEPKvj>
  DataOut.writeBlock(&(mFTPSWClient.mFileName), 33);
 80080b0:	2221      	movs	r2, #33	@ 0x21
 80080b2:	f105 0110 	add.w	r1, r5, #16
 80080b6:	4620      	mov	r0, r4
 80080b8:	f7fc ff5e 	bl	8004f78 <_ZN6Buffer10writeBlockEPKvj>
  DataOut.writeChar(mSWStatus);
 80080bc:	f815 1b08 	ldrb.w	r1, [r5], #8
 80080c0:	4620      	mov	r0, r4
 80080c2:	f7fc fecc 	bl	8004e5e <_ZN6Buffer9writeCharEc>
  DataOut.writeBlock(&(mFTPSWClient.mBytesReceived), 4);
 80080c6:	2204      	movs	r2, #4
 80080c8:	4629      	mov	r1, r5
 80080ca:	4620      	mov	r0, r4
 80080cc:	f7fc ff54 	bl	8004f78 <_ZN6Buffer10writeBlockEPKvj>
  Boot_Memory_Type *mem = (Boot_Memory_Type *)BOOT_LOADER_BASE;
  DataOut.writeBlock(mem->active_version_file, 33);
 80080d0:	2221      	movs	r2, #33	@ 0x21
 80080d2:	4908      	ldr	r1, [pc, #32]	@ (80080f4 <_ZN14upgradeManager21handleGetSoftwareInfoER6Buffer+0x74>)
 80080d4:	4620      	mov	r0, r4
 80080d6:	f7fc ff4f 	bl	8004f78 <_ZN6Buffer10writeBlockEPKvj>
  DataOut.writeBlock(&(mem->active_version_length), 4);
 80080da:	2204      	movs	r2, #4
 80080dc:	4906      	ldr	r1, [pc, #24]	@ (80080f8 <_ZN14upgradeManager21handleGetSoftwareInfoER6Buffer+0x78>)
 80080de:	4620      	mov	r0, r4
 80080e0:	f7fc ff4a 	bl	8004f78 <_ZN6Buffer10writeBlockEPKvj>
}
 80080e4:	bd38      	pop	{r3, r4, r5, pc}
    switch(mFTPSWClient.mLastError)
 80080e6:	8883      	ldrh	r3, [r0, #4]
 80080e8:	2b03      	cmp	r3, #3
      mSWStatus = UPDATE_TOO_LARGE;
 80080ea:	bf04      	itt	eq
 80080ec:	232a      	moveq	r3, #42	@ 0x2a
 80080ee:	7003      	strbeq	r3, [r0, #0]
      break;
 80080f0:	e7cc      	b.n	800808c <_ZN14upgradeManager21handleGetSoftwareInfoER6Buffer+0xc>
 80080f2:	bf00      	nop
 80080f4:	08000820 	.word	0x08000820
 80080f8:	08000818 	.word	0x08000818

080080fc <_ZN14upgradeManager8SaveDataER6Buffert>:
  
}
*/

int upgradeManager::SaveData(Buffer& buf, uint16_t block)
{
 80080fc:	e92d 41f0 	stmdb	sp!, {r4, r5, r6, r7, r8, lr}
 8008100:	b082      	sub	sp, #8
 8008102:	460d      	mov	r5, r1
 8008104:	4690      	mov	r8, r2
  uint32_t word;
  int rc = 0;
  
  FlashUnlock unlocker;
 8008106:	4668      	mov	r0, sp
 8008108:	f000 f8ec 	bl	80082e4 <_ZN11FlashUnlockC1Ev>
  int i = 0;
  while (buf.getDataSize() > 4){
    if ( ((VERSION_DOWNLOAD_BASE+ (block-1)*FTP_BLOCK_SIZE + i) & (FLASH_BLOCK_SIZE -1 ))  == 0)
 800810c:	f508 2480 	add.w	r4, r8, #262144	@ 0x40000
 8008110:	34ff      	adds	r4, #255	@ 0xff
 8008112:	0264      	lsls	r4, r4, #9
  int i = 0;
 8008114:	2600      	movs	r6, #0
      if (FLASH_ErasePage(VERSION_DOWNLOAD_BASE+ (block-1)*FTP_BLOCK_SIZE + i) != FLASH_COMPLETE)
        return -2;
    buf.readBlock((char *)&word,4);
 8008116:	2704      	movs	r7, #4
  while (buf.getDataSize() > 4){
 8008118:	e010      	b.n	800813c <_ZN14upgradeManager8SaveDataER6Buffert+0x40>
    buf.readBlock((char *)&word,4);
 800811a:	463a      	mov	r2, r7
 800811c:	a901      	add	r1, sp, #4
 800811e:	4628      	mov	r0, r5
 8008120:	f7fc ffc6 	bl	80050b0 <_ZNK6Buffer9readBlockEPcj>
    buf.advanceRead(4);
 8008124:	4639      	mov	r1, r7
 8008126:	4628      	mov	r0, r5
 8008128:	f7fc ffc8 	bl	80050bc <_ZN6Buffer11advanceReadEj>
    if (FLASH_ProgramWord( VERSION_DOWNLOAD_BASE+ (block-1)*FTP_BLOCK_SIZE + i, word ) != FLASH_COMPLETE)
 800812c:	9901      	ldr	r1, [sp, #4]
 800812e:	4620      	mov	r0, r4
 8008130:	f002 ff6c 	bl	800b00c <FLASH_ProgramWord>
 8008134:	3404      	adds	r4, #4
 8008136:	2804      	cmp	r0, #4
 8008138:	d133      	bne.n	80081a2 <_ZN14upgradeManager8SaveDataER6Buffert+0xa6>
      return -3;
    i+=4;
 800813a:	3604      	adds	r6, #4
  while (buf.getDataSize() > 4){
 800813c:	4628      	mov	r0, r5
 800813e:	f7fc fe6c 	bl	8004e1a <_ZNK6Buffer11getDataSizeEv>
 8008142:	2804      	cmp	r0, #4
 8008144:	d90b      	bls.n	800815e <_ZN14upgradeManager8SaveDataER6Buffert+0x62>
    if ( ((VERSION_DOWNLOAD_BASE+ (block-1)*FTP_BLOCK_SIZE + i) & (FLASH_BLOCK_SIZE -1 ))  == 0)
 8008146:	f3c4 030a 	ubfx	r3, r4, #0, #11
 800814a:	2b00      	cmp	r3, #0
 800814c:	d1e5      	bne.n	800811a <_ZN14upgradeManager8SaveDataER6Buffert+0x1e>
      if (FLASH_ErasePage(VERSION_DOWNLOAD_BASE+ (block-1)*FTP_BLOCK_SIZE + i) != FLASH_COMPLETE)
 800814e:	4620      	mov	r0, r4
 8008150:	f002 ff26 	bl	800afa0 <FLASH_ErasePage>
 8008154:	2804      	cmp	r0, #4
 8008156:	d0e0      	beq.n	800811a <_ZN14upgradeManager8SaveDataER6Buffert+0x1e>
        return -2;
 8008158:	f06f 0401 	mvn.w	r4, #1
 800815c:	e01a      	b.n	8008194 <_ZN14upgradeManager8SaveDataER6Buffert+0x98>
  }
  word = 0xFFFFFFFF;
 800815e:	f04f 33ff 	mov.w	r3, #4294967295
 8008162:	9301      	str	r3, [sp, #4]
  buf.readBlock((char *)&word,buf.getDataSize());
 8008164:	4628      	mov	r0, r5
 8008166:	f7fc fe58 	bl	8004e1a <_ZNK6Buffer11getDataSizeEv>
 800816a:	4602      	mov	r2, r0
 800816c:	a901      	add	r1, sp, #4
 800816e:	4628      	mov	r0, r5
 8008170:	f7fc ff9e 	bl	80050b0 <_ZNK6Buffer9readBlockEPcj>
  rc = buf.getDataSize() + i;
 8008174:	4628      	mov	r0, r5
 8008176:	f7fc fe50 	bl	8004e1a <_ZNK6Buffer11getDataSizeEv>
 800817a:	1834      	adds	r4, r6, r0
  if (FLASH_ProgramWord( VERSION_DOWNLOAD_BASE+ (block-1)*FTP_BLOCK_SIZE + i, word ) != FLASH_COMPLETE)
 800817c:	f508 2080 	add.w	r0, r8, #262144	@ 0x40000
 8008180:	30ff      	adds	r0, #255	@ 0xff
 8008182:	9901      	ldr	r1, [sp, #4]
 8008184:	eb06 2040 	add.w	r0, r6, r0, lsl #9
 8008188:	f002 ff40 	bl	800b00c <FLASH_ProgramWord>
    return -3;
 800818c:	2804      	cmp	r0, #4
 800818e:	bf18      	it	ne
 8008190:	f06f 0402 	mvnne.w	r4, #2
  return rc;
  
}
 8008194:	4668      	mov	r0, sp
 8008196:	f000 f8b9 	bl	800830c <_ZN11FlashUnlockD1Ev>
 800819a:	4620      	mov	r0, r4
 800819c:	b002      	add	sp, #8
 800819e:	e8bd 81f0 	ldmia.w	sp!, {r4, r5, r6, r7, r8, pc}
      return -3;
 80081a2:	f06f 0402 	mvn.w	r4, #2
 80081a6:	e7f5      	b.n	8008194 <_ZN14upgradeManager8SaveDataER6Buffert+0x98>

080081a8 <_ZN14upgradeManager15On_DataReceivedER6Buffert>:
{
 80081a8:	b508      	push	{r3, lr}
 80081aa:	460a      	mov	r2, r1
  return mSingleton->SaveData(buf, block);
 80081ac:	4601      	mov	r1, r0
 80081ae:	4b02      	ldr	r3, [pc, #8]	@ (80081b8 <_ZN14upgradeManager15On_DataReceivedER6Buffert+0x10>)
 80081b0:	6818      	ldr	r0, [r3, #0]
 80081b2:	f7ff ffa3 	bl	80080fc <_ZN14upgradeManager8SaveDataER6Buffert>
}
 80081b6:	bd08      	pop	{r3, pc}
 80081b8:	2000abdc 	.word	0x2000abdc

080081bc <_ZN14upgradeManager17Check_New_VersionEm>:

int upgradeManager::Check_New_Version(uint32_t len)
{
 80081bc:	b538      	push	{r3, r4, r5, lr}
 80081be:	460c      	mov	r4, r1
  if (strcmp((const char*)MAGIC_NUM_LOCATION, (const char*)(VERSION_DOWNLOAD_BASE + 0x150)) != 0)
 80081c0:	490e      	ldr	r1, [pc, #56]	@ (80081fc <_ZN14upgradeManager17Check_New_VersionEm+0x40>)
 80081c2:	480f      	ldr	r0, [pc, #60]	@ (8008200 <_ZN14upgradeManager17Check_New_VersionEm+0x44>)
 80081c4:	f7f9 ffee 	bl	80021a4 <strcmp>
 80081c8:	b9a8      	cbnz	r0, 80081f6 <_ZN14upgradeManager17Check_New_VersionEm+0x3a>
 80081ca:	4605      	mov	r5, r0
    return -1;
  uint16_t crc = calcCRC((const unsigned char*)(VERSION_DOWNLOAD_BASE), len -2);
 80081cc:	1ea1      	subs	r1, r4, #2
 80081ce:	b289      	uxth	r1, r1
 80081d0:	480c      	ldr	r0, [pc, #48]	@ (8008204 <_ZN14upgradeManager17Check_New_VersionEm+0x48>)
 80081d2:	f7ff fed1 	bl	8007f78 <calcCRC>
  if (crc != ntohs( *(uint16_t*)(VERSION_DOWNLOAD_BASE + len -2)))
 80081d6:	f104 6100 	add.w	r1, r4, #134217728	@ 0x8000000
 80081da:	f501 31f8 	add.w	r1, r1, #126976	@ 0x1f000
 80081de:	f8b1 2ffe 	ldrh.w	r2, [r1, #4094]	@ 0xffe
 80081e2:	0213      	lsls	r3, r2, #8
 80081e4:	b29b      	uxth	r3, r3
 80081e6:	ea43 2312 	orr.w	r3, r3, r2, lsr #8
    return -2;
 80081ea:	4298      	cmp	r0, r3
 80081ec:	bf18      	it	ne
 80081ee:	f06f 0501 	mvnne.w	r5, #1
  return 0;
}
 80081f2:	4628      	mov	r0, r5
 80081f4:	bd38      	pop	{r3, r4, r5, pc}
    return -1;
 80081f6:	f04f 35ff 	mov.w	r5, #4294967295
 80081fa:	e7fa      	b.n	80081f2 <_ZN14upgradeManager17Check_New_VersionEm+0x36>
 80081fc:	08020150 	.word	0x08020150
 8008200:	08002150 	.word	0x08002150
 8008204:	08020000 	.word	0x08020000

08008208 <_ZN14upgradeManager17Set_Root_LocationEmm>:
  
  return 0;
  
}
int upgradeManager::Set_Root_Location(uint32_t Address, uint32_t length) 
{
 8008208:	b5f0      	push	{r4, r5, r6, r7, lr}
 800820a:	b0a9      	sub	sp, #164	@ 0xa4
 800820c:	4604      	mov	r4, r0
 800820e:	460e      	mov	r6, r1
 8008210:	4615      	mov	r5, r2
  Boot_Memory_Type Mem;
  FlashUnlock unlocker;
 8008212:	4668      	mov	r0, sp
 8008214:	f000 f866 	bl	80082e4 <_ZN11FlashUnlockC1Ev>
  memcpy(&Mem, (void *)BOOT_LOADER_BASE, sizeof(Mem));
 8008218:	f04f 2708 	mov.w	r7, #134219776	@ 0x8000800
 800821c:	229b      	movs	r2, #155	@ 0x9b
 800821e:	4639      	mov	r1, r7
 8008220:	a801      	add	r0, sp, #4
 8008222:	f003 ffed 	bl	800c200 <memcpy>
  if (FLASH_ErasePage(BOOT_LOADER_BASE) != FLASH_COMPLETE)
 8008226:	4638      	mov	r0, r7
 8008228:	f002 feba 	bl	800afa0 <FLASH_ErasePage>
 800822c:	2804      	cmp	r0, #4
 800822e:	d125      	bne.n	800827c <_ZN14upgradeManager17Set_Root_LocationEmm+0x74>
      return -1;
  Mem.bootLocation = Address;
 8008230:	9606      	str	r6, [sp, #24]
  Mem.new_version_length = length;
 8008232:	9508      	str	r5, [sp, #32]
  memcpy(Mem.new_version_file, mFTPSWClient.mFileName, 33);
 8008234:	f104 0310 	add.w	r3, r4, #16
 8008238:	f10d 0245 	add.w	r2, sp, #69	@ 0x45
 800823c:	f104 0030 	add.w	r0, r4, #48	@ 0x30
 8008240:	681e      	ldr	r6, [r3, #0]
 8008242:	685d      	ldr	r5, [r3, #4]
 8008244:	689c      	ldr	r4, [r3, #8]
 8008246:	68d9      	ldr	r1, [r3, #12]
 8008248:	6016      	str	r6, [r2, #0]
 800824a:	6055      	str	r5, [r2, #4]
 800824c:	6094      	str	r4, [r2, #8]
 800824e:	60d1      	str	r1, [r2, #12]
 8008250:	3310      	adds	r3, #16
 8008252:	3210      	adds	r2, #16
 8008254:	4283      	cmp	r3, r0
 8008256:	d1f3      	bne.n	8008240 <_ZN14upgradeManager17Set_Root_LocationEmm+0x38>
 8008258:	781b      	ldrb	r3, [r3, #0]
 800825a:	7013      	strb	r3, [r2, #0]
  uint8_t *pMem = (uint8_t *)&Mem;
  for (uint32_t offset = 0; offset < sizeof(Mem); offset+=4){
 800825c:	ad01      	add	r5, sp, #4
 800825e:	ae28      	add	r6, sp, #160	@ 0xa0
  memcpy(Mem.new_version_file, mFTPSWClient.mFileName, 33);
 8008260:	462c      	mov	r4, r5
    if (FLASH_ProgramWord(offset + BOOT_LOADER_BASE, *(uint32_t *)(pMem +offset)) != FLASH_COMPLETE)
 8008262:	f1c5 2508 	rsb	r5, r5, #134219776	@ 0x8000800
 8008266:	1928      	adds	r0, r5, r4
 8008268:	f854 1b04 	ldr.w	r1, [r4], #4
 800826c:	f002 fece 	bl	800b00c <FLASH_ProgramWord>
 8008270:	2804      	cmp	r0, #4
 8008272:	d106      	bne.n	8008282 <_ZN14upgradeManager17Set_Root_LocationEmm+0x7a>
  for (uint32_t offset = 0; offset < sizeof(Mem); offset+=4){
 8008274:	42b4      	cmp	r4, r6
 8008276:	d1f6      	bne.n	8008266 <_ZN14upgradeManager17Set_Root_LocationEmm+0x5e>
      return -2;
  }

  return 0;
 8008278:	2400      	movs	r4, #0
 800827a:	e004      	b.n	8008286 <_ZN14upgradeManager17Set_Root_LocationEmm+0x7e>
      return -1;
 800827c:	f04f 34ff 	mov.w	r4, #4294967295
 8008280:	e001      	b.n	8008286 <_ZN14upgradeManager17Set_Root_LocationEmm+0x7e>
      return -2;
 8008282:	f06f 0401 	mvn.w	r4, #1
}
 8008286:	4668      	mov	r0, sp
 8008288:	f000 f840 	bl	800830c <_ZN11FlashUnlockD1Ev>
 800828c:	4620      	mov	r0, r4
 800828e:	b029      	add	sp, #164	@ 0xa4
 8008290:	bdf0      	pop	{r4, r5, r6, r7, pc}
	...

08008294 <_ZN14upgradeManager14StartSWUpgradeEm>:
{
 8008294:	b538      	push	{r3, r4, r5, lr}
 8008296:	4604      	mov	r4, r0
 8008298:	460d      	mov	r5, r1
  if (Check_New_Version(len) != 0)
 800829a:	f7ff ff8f 	bl	80081bc <_ZN14upgradeManager17Check_New_VersionEm>
 800829e:	b110      	cbz	r0, 80082a6 <_ZN14upgradeManager14StartSWUpgradeEm+0x12>
    mSWStatus = UPDATE_VERIFY_FAIL;
 80082a0:	232c      	movs	r3, #44	@ 0x2c
 80082a2:	7023      	strb	r3, [r4, #0]
}
 80082a4:	bd38      	pop	{r3, r4, r5, pc}
  if (Set_Root_Location(VERSION_DOWNLOAD_BASE, len) != 0)
 80082a6:	462a      	mov	r2, r5
 80082a8:	4907      	ldr	r1, [pc, #28]	@ (80082c8 <_ZN14upgradeManager14StartSWUpgradeEm+0x34>)
 80082aa:	4620      	mov	r0, r4
 80082ac:	f7ff ffac 	bl	8008208 <_ZN14upgradeManager17Set_Root_LocationEmm>
 80082b0:	b910      	cbnz	r0, 80082b8 <_ZN14upgradeManager14StartSWUpgradeEm+0x24>
  mSWStatus = UPDATE_SUCCESSFUL;
 80082b2:	231f      	movs	r3, #31
 80082b4:	7023      	strb	r3, [r4, #0]
 80082b6:	e7f5      	b.n	80082a4 <_ZN14upgradeManager14StartSWUpgradeEm+0x10>
    mSWStatus = UPDATE_FAIL;
 80082b8:	2329      	movs	r3, #41	@ 0x29
 80082ba:	7023      	strb	r3, [r4, #0]
    Set_Root_Location(ACTIVE_VERSION_BASE, 0);
 80082bc:	2200      	movs	r2, #0
 80082be:	4903      	ldr	r1, [pc, #12]	@ (80082cc <_ZN14upgradeManager14StartSWUpgradeEm+0x38>)
 80082c0:	4620      	mov	r0, r4
 80082c2:	f7ff ffa1 	bl	8008208 <_ZN14upgradeManager17Set_Root_LocationEmm>
    return;
 80082c6:	e7ed      	b.n	80082a4 <_ZN14upgradeManager14StartSWUpgradeEm+0x10>
 80082c8:	08020000 	.word	0x08020000
 80082cc:	08002000 	.word	0x08002000

080082d0 <_ZN14upgradeManager17On_StartSWUpgradeEm>:
{
 80082d0:	b508      	push	{r3, lr}
 80082d2:	4601      	mov	r1, r0
    mSingleton->StartSWUpgrade(len);
 80082d4:	4b02      	ldr	r3, [pc, #8]	@ (80082e0 <_ZN14upgradeManager17On_StartSWUpgradeEm+0x10>)
 80082d6:	6818      	ldr	r0, [r3, #0]
 80082d8:	f7ff ffdc 	bl	8008294 <_ZN14upgradeManager14StartSWUpgradeEm>
}
 80082dc:	bd08      	pop	{r3, pc}
 80082de:	bf00      	nop
 80082e0:	2000abdc 	.word	0x2000abdc

080082e4 <_ZN11FlashUnlockC1Ev>:
#include <string.h>

// **************************************************************
// Unlock flash
// **************************************************************
FlashUnlock::FlashUnlock()
 80082e4:	b510      	push	{r4, lr}
 80082e6:	4604      	mov	r4, r0
{
  FLASH_Unlock();
 80082e8:	f002 fe3a 	bl	800af60 <FLASH_Unlock>

  FLASH_Status flashstatus = FLASH_GetStatus();
 80082ec:	f002 ff1a 	bl	800b124 <FLASH_GetStatus>
  if (flashstatus == FLASH_ERROR_PG) { 
 80082f0:	2802      	cmp	r0, #2
 80082f2:	d003      	beq.n	80082fc <_ZN11FlashUnlockC1Ev+0x18>
    FLASH_ClearFlag(FLASH_FLAG_PGERR);
  }
  if (flashstatus == FLASH_ERROR_WRP) {
 80082f4:	2803      	cmp	r0, #3
 80082f6:	d005      	beq.n	8008304 <_ZN11FlashUnlockC1Ev+0x20>
    FLASH_ClearFlag(FLASH_FLAG_WRPRTERR);
  }
}
 80082f8:	4620      	mov	r0, r4
 80082fa:	bd10      	pop	{r4, pc}
    FLASH_ClearFlag(FLASH_FLAG_PGERR);
 80082fc:	2004      	movs	r0, #4
 80082fe:	f002 ff01 	bl	800b104 <FLASH_ClearFlag>
  if (flashstatus == FLASH_ERROR_WRP) {
 8008302:	e7f9      	b.n	80082f8 <_ZN11FlashUnlockC1Ev+0x14>
    FLASH_ClearFlag(FLASH_FLAG_WRPRTERR);
 8008304:	2010      	movs	r0, #16
 8008306:	f002 fefd 	bl	800b104 <FLASH_ClearFlag>
 800830a:	e7f5      	b.n	80082f8 <_ZN11FlashUnlockC1Ev+0x14>

0800830c <_ZN11FlashUnlockD1Ev>:

// **************************************************************
// Lock flash
// **************************************************************
FlashUnlock::~FlashUnlock()
 800830c:	b510      	push	{r4, lr}
 800830e:	4604      	mov	r4, r0
{
  FLASH_Lock();
 8008310:	f002 fe38 	bl	800af84 <FLASH_Lock>
}
 8008314:	4620      	mov	r0, r4
 8008316:	bd10      	pop	{r4, pc}

08008318 <systemReset>:
#include "globalInterface.h"
//#include "ethernetCommon.h"


void systemReset()
{
 8008318:	b580      	push	{r7, lr}
 800831a:	af00      	add	r7, sp, #0
  systemResetNoStats();
 800831c:	f002 fa88 	bl	800a830 <systemResetNoStats>
}
 8008320:	bf00      	nop
 8008322:	bd80      	pop	{r7, pc}

08008324 <enterLiveLoop>:
// **************************************************************
// This is our error function.
// Enter live loop so we can catch on 
// **************************************************************
void enterLiveLoop()
{
 8008324:	b480      	push	{r7}
 8008326:	af00      	add	r7, sp, #0
#ifdef DEBUG
  while(1);
 8008328:	bf00      	nop
 800832a:	e7fd      	b.n	8008328 <enterLiveLoop+0x4>

0800832c <main>:
#include "stm32Interface.h"
#include "stm32f10x_gpio.h"


int main()
{
 800832c:	b508      	push	{r3, lr}
  //---------------------PROGRAM INITIALIZATION-------------------------------
  // we can start watchdog at this point as it is self contained
  //WatchdogInit(6500);
  SystemManagement::init();
 800832e:	f000 f815 	bl	800835c <_ZN16SystemManagement4initEv>
  //WatchdogInit(400);
  //---------------------PROGRAM LOOP-------------------------------
  while (1) 
  {
    //WatchdogReset();
    SystemManagement::periodicCall();
 8008332:	f000 f905 	bl	8008540 <_ZN16SystemManagement12periodicCallEv>
  while (1) 
 8008336:	e7fc      	b.n	8008332 <main+0x6>

08008338 <_ZN16SystemManagementC1Ev>:
// *********************   System Management      ***********************
// **********************************************************************
// **********************************************************************

SystemManagement::SystemManagement() :
  mPriority0(0),
 8008338:	2200      	movs	r2, #0
 800833a:	6002      	str	r2, [r0, #0]
  mPriority1(0),
 800833c:	6042      	str	r2, [r0, #4]
  mPriority2(0),
 800833e:	6082      	str	r2, [r0, #8]
  mRebootTimeLimit(0),
 8008340:	6102      	str	r2, [r0, #16]
  mState(SYSTEM_EXECUTE_ONESHOTS),
 8008342:	2202      	movs	r2, #2
 8008344:	6142      	str	r2, [r0, #20]
  mCommunicationCenter(SystemObjects::getSingleton().mCommunicationCenter),
 8008346:	4a04      	ldr	r2, [pc, #16]	@ (8008358 <_ZN16SystemManagementC1Ev+0x20>)
 8008348:	6182      	str	r2, [r0, #24]
  mPersistentDataCenter(SystemObjects::getSingleton().mPersistentData),
 800834a:	f502 6106 	add.w	r1, r2, #2144	@ 0x860
 800834e:	61c1      	str	r1, [r0, #28]
  mAddress(SystemObjects::getSingleton().HwAddress)
 8008350:	3a08      	subs	r2, #8
 8008352:	6202      	str	r2, [r0, #32]
 // mHardwareCenter(0)
{
}
 8008354:	4770      	bx	lr
 8008356:	bf00      	nop
 8008358:	2000ac10 	.word	0x2000ac10

0800835c <_ZN16SystemManagement4initEv>:

// **************************************************************
// This is the system initialization
// **************************************************************
void SystemManagement::init()
{
 800835c:	b510      	push	{r4, lr}

  stm32SystemInit();
 800835e:	f002 fa3d 	bl	800a7dc <stm32SystemInit>
    if (!spi_m_pInstance)   // Only allow one instance of class to be generated
 8008362:	4b2a      	ldr	r3, [pc, #168]	@ (800840c <_ZN16SystemManagement4initEv+0xb0>)
 8008364:	681b      	ldr	r3, [r3, #0]
 8008366:	2b00      	cmp	r3, #0
 8008368:	d036      	beq.n	80083d8 <_ZN16SystemManagement4initEv+0x7c>
  SPI_DRV::Get_Instance().Init();
 800836a:	4b28      	ldr	r3, [pc, #160]	@ (800840c <_ZN16SystemManagement4initEv+0xb0>)
 800836c:	6818      	ldr	r0, [r3, #0]
 800836e:	f001 fd6f 	bl	8009e50 <_ZN7SPI_DRV4InitEv>
    if (mSingelton == NULL)
 8008372:	4b27      	ldr	r3, [pc, #156]	@ (8008410 <_ZN16SystemManagement4initEv+0xb4>)
 8008374:	681b      	ldr	r3, [r3, #0]
 8008376:	2b00      	cmp	r3, #0
 8008378:	d034      	beq.n	80083e4 <_ZN16SystemManagement4initEv+0x88>
  {return mGlobalManagement.mAddress;}
 800837a:	4b26      	ldr	r3, [pc, #152]	@ (8008414 <_ZN16SystemManagement4initEv+0xb8>)
 800837c:	6a1c      	ldr	r4, [r3, #32]
  //while (getTimerTicks() < 1000); // TODO: Check why B02 takes so long to initialize
  SystemManagement::getAddress() = GPIO::GetInstance().GetAddressFirst();
 800837e:	4b24      	ldr	r3, [pc, #144]	@ (8008410 <_ZN16SystemManagement4initEv+0xb4>)
 8008380:	6818      	ldr	r0, [r3, #0]
 8008382:	f7fb fdf9 	bl	8003f78 <_ZN4GPIO15GetAddressFirstEv>
 8008386:	7020      	strb	r0, [r4, #0]

  // persistent data must be loaded after the stm32 initialization, but before 
  // all the other actions.
  SystemObjects::getSingleton().mPersistentData.loadPersistentData();
 8008388:	4823      	ldr	r0, [pc, #140]	@ (8008418 <_ZN16SystemManagement4initEv+0xbc>)
 800838a:	f000 fbd3 	bl	8008b34 <_ZN14PersistentData18loadPersistentDataEv>
  ethernetMacInit();
 800838e:	f002 f9f1 	bl	800a774 <ethernetMacInit>
  ethernetMACConfig();
 8008392:	f7fd fa6d 	bl	8005870 <ethernetMACConfig>
    if (mSingelton == NULL)
 8008396:	4b21      	ldr	r3, [pc, #132]	@ (800841c <_ZN16SystemManagement4initEv+0xc0>)
 8008398:	681b      	ldr	r3, [r3, #0]
 800839a:	b36b      	cbz	r3, 80083f8 <_ZN16SystemManagement4initEv+0x9c>
    return *mSingelton; 
 800839c:	4b1f      	ldr	r3, [pc, #124]	@ (800841c <_ZN16SystemManagement4initEv+0xc0>)
 800839e:	6818      	ldr	r0, [r3, #0]
  }
  inline ErrorStatus Init(){
	  Address = SystemManagement::getAddress();
 80083a0:	f8d0 32b4 	ldr.w	r3, [r0, #692]	@ 0x2b4
 80083a4:	4a1b      	ldr	r2, [pc, #108]	@ (8008414 <_ZN16SystemManagement4initEv+0xb8>)
 80083a6:	6a12      	ldr	r2, [r2, #32]
 80083a8:	7812      	ldrb	r2, [r2, #0]
 80083aa:	701a      	strb	r2, [r3, #0]
    for (int i=8 ; i<39 ; i++)
 80083ac:	f500 73ef 	add.w	r3, r0, #478	@ 0x1de
 80083b0:	f200 11fd 	addw	r1, r0, #509	@ 0x1fd
      *(((uint8_t *)(&LastStatus))+i) = 0;
 80083b4:	2200      	movs	r2, #0
 80083b6:	f803 2f01 	strb.w	r2, [r3, #1]!
    for (int i=8 ; i<39 ; i++)
 80083ba:	4299      	cmp	r1, r3
 80083bc:	d1fb      	bne.n	80083b6 <_ZN16SystemManagement4initEv+0x5a>
    AlertAcknoledge();      
 80083be:	f7fc f997 	bl	80046f0 <_ZN14HardwareCenter15AlertAcknoledgeEv>
    return CB_Int::Init();
 80083c2:	f7fb fa91 	bl	80038e8 <_ZN6CB_Int4InitEv>
 
  HardwareCenter::GetInstance().Init();
  SystemObjects::getSingleton().mCommunicationCenter.openCenter();
 80083c6:	4816      	ldr	r0, [pc, #88]	@ (8008420 <_ZN16SystemManagement4initEv+0xc4>)
 80083c8:	f7fc fc68 	bl	8004c9c <_ZN19CommunicationCenter10openCenterEv>

  mGlobalManagement.mPriority0 = 0;
 80083cc:	4b11      	ldr	r3, [pc, #68]	@ (8008414 <_ZN16SystemManagement4initEv+0xb8>)
 80083ce:	2200      	movs	r2, #0
 80083d0:	601a      	str	r2, [r3, #0]
  mGlobalManagement.mPriority1 = 0;
 80083d2:	605a      	str	r2, [r3, #4]
  mGlobalManagement.mPriority2 = 0;
 80083d4:	609a      	str	r2, [r3, #8]
}
 80083d6:	bd10      	pop	{r4, pc}
      spi_m_pInstance = new SPI_DRV;
 80083d8:	2001      	movs	r0, #1
 80083da:	f003 fd8d 	bl	800bef8 <_Znwj>
 80083de:	4b0b      	ldr	r3, [pc, #44]	@ (800840c <_ZN16SystemManagement4initEv+0xb0>)
 80083e0:	6018      	str	r0, [r3, #0]
 80083e2:	e7c2      	b.n	800836a <_ZN16SystemManagement4initEv+0xe>
      mSingelton = new GPIO;
 80083e4:	f44f 70c8 	mov.w	r0, #400	@ 0x190
 80083e8:	f003 fd86 	bl	800bef8 <_Znwj>
 80083ec:	4604      	mov	r4, r0
 80083ee:	f7fb fb77 	bl	8003ae0 <_ZN4GPIOC1Ev>
 80083f2:	4b07      	ldr	r3, [pc, #28]	@ (8008410 <_ZN16SystemManagement4initEv+0xb4>)
 80083f4:	601c      	str	r4, [r3, #0]
 80083f6:	e7c0      	b.n	800837a <_ZN16SystemManagement4initEv+0x1e>
      mSingelton = new HardwareCenter;
 80083f8:	f44f 702e 	mov.w	r0, #696	@ 0x2b8
 80083fc:	f003 fd7c 	bl	800bef8 <_Znwj>
 8008400:	4604      	mov	r4, r0
 8008402:	f7fb fe39 	bl	8004078 <_ZN14HardwareCenterC1Ev>
 8008406:	4b05      	ldr	r3, [pc, #20]	@ (800841c <_ZN16SystemManagement4initEv+0xc0>)
 8008408:	601c      	str	r4, [r3, #0]
 800840a:	e7c7      	b.n	800839c <_ZN16SystemManagement4initEv+0x40>
 800840c:	2000b498 	.word	0x2000b498
 8008410:	200003d0 	.word	0x200003d0
 8008414:	2000abe0 	.word	0x2000abe0
 8008418:	2000b470 	.word	0x2000b470
 800841c:	200003f4 	.word	0x200003f4
 8008420:	2000ac10 	.word	0x2000ac10

08008424 <_ZN16SystemManagement19tryPriority0ActionsEv>:
// **************************************************************
// prioirty 0 periodic call
// tries to handle as many as 10 incoming packets (if pending)
// **************************************************************
void SystemManagement::tryPriority0Actions()
{
 8008424:	b508      	push	{r3, lr}
  mPriority0++;
 8008426:	6803      	ldr	r3, [r0, #0]
 8008428:	3301      	adds	r3, #1
 800842a:	6003      	str	r3, [r0, #0]
  handleIncomingPackets();
 800842c:	f7fe f956 	bl	80066dc <handleIncomingPackets>
}
 8008430:	bd08      	pop	{r3, pc}
	...

08008434 <_ZN16SystemManagement19tryPriority1ActionsEv>:

// **************************************************************
// prioirty 1 periodic call
// **************************************************************
void SystemManagement::tryPriority1Actions()
{
 8008434:	b508      	push	{r3, lr}
  if (mPriority0 < PRIORITY_0_NICE) {
 8008436:	6803      	ldr	r3, [r0, #0]
 8008438:	2b07      	cmp	r3, #7
 800843a:	d800      	bhi.n	800843e <_ZN16SystemManagement19tryPriority1ActionsEv+0xa>
  }
  mPriority0 = 0;
  mPriority1++;

  SystemObjects::getSingleton().mCommunicationCenter.periodicCall(1);
}
 800843c:	bd08      	pop	{r3, pc}
  mPriority0 = 0;
 800843e:	2300      	movs	r3, #0
 8008440:	6003      	str	r3, [r0, #0]
  mPriority1++;
 8008442:	6843      	ldr	r3, [r0, #4]
 8008444:	3301      	adds	r3, #1
 8008446:	6043      	str	r3, [r0, #4]
  SystemObjects::getSingleton().mCommunicationCenter.periodicCall(1);
 8008448:	2101      	movs	r1, #1
 800844a:	4802      	ldr	r0, [pc, #8]	@ (8008454 <_ZN16SystemManagement19tryPriority1ActionsEv+0x20>)
 800844c:	f7fc fc46 	bl	8004cdc <_ZN19CommunicationCenter12periodicCallEi>
 8008450:	e7f4      	b.n	800843c <_ZN16SystemManagement19tryPriority1ActionsEv+0x8>
 8008452:	bf00      	nop
 8008454:	2000ac10 	.word	0x2000ac10

08008458 <_ZN16SystemManagement19tryPriority2ActionsEv>:

// **************************************************************
// prioirty 2 periodic call
// **************************************************************
void SystemManagement::tryPriority2Actions()
{
 8008458:	b538      	push	{r3, r4, r5, lr}
  if (mPriority1 < PRIORITY_1_NICE) {
 800845a:	6843      	ldr	r3, [r0, #4]
 800845c:	2b07      	cmp	r3, #7
 800845e:	d91d      	bls.n	800849c <_ZN16SystemManagement19tryPriority2ActionsEv+0x44>
 8008460:	4604      	mov	r4, r0
    return;
  }
  mPriority1 = 0;
 8008462:	2300      	movs	r3, #0
 8008464:	6043      	str	r3, [r0, #4]
  mPriority2++;
 8008466:	6883      	ldr	r3, [r0, #8]
 8008468:	3301      	adds	r3, #1
 800846a:	6083      	str	r3, [r0, #8]

  if (mState & SYSTEM_EXECUTE_ONESHOTS) {
 800846c:	6943      	ldr	r3, [r0, #20]
 800846e:	f013 0f02 	tst.w	r3, #2
 8008472:	d114      	bne.n	800849e <_ZN16SystemManagement19tryPriority2ActionsEv+0x46>
      mState &= ~SYSTEM_EXECUTE_ONESHOTS;
    }
    //return;
  }

  switch (mPriority2Sequencer) {
 8008474:	7b23      	ldrb	r3, [r4, #12]
 8008476:	bb3b      	cbnz	r3, 80084c8 <_ZN16SystemManagement19tryPriority2ActionsEv+0x70>
    if (mSingelton == NULL)
 8008478:	4b2f      	ldr	r3, [pc, #188]	@ (8008538 <_ZN16SystemManagement19tryPriority2ActionsEv+0xe0>)
 800847a:	681b      	ldr	r3, [r3, #0]
 800847c:	b1d3      	cbz	r3, 80084b4 <_ZN16SystemManagement19tryPriority2ActionsEv+0x5c>
  case 0:
    HardwareCenter::GetInstance().periodicCall();
 800847e:	4b2e      	ldr	r3, [pc, #184]	@ (8008538 <_ZN16SystemManagement19tryPriority2ActionsEv+0xe0>)
 8008480:	6818      	ldr	r0, [r3, #0]
 8008482:	f7fb ff95 	bl	80043b0 <_ZN14HardwareCenter12periodicCallEv>
      HardwareCenter::GetInstance().CommStat = 0;
    else
      HardwareCenter::GetInstance().CommStat = 1;
    break;
  }
  mPriority2Sequencer = (mPriority2Sequencer + 1) % 2;
 8008486:	7b23      	ldrb	r3, [r4, #12]
 8008488:	3301      	adds	r3, #1
 800848a:	f003 0301 	and.w	r3, r3, #1
 800848e:	bf48      	it	mi
 8008490:	425b      	negmi	r3, r3
 8008492:	7323      	strb	r3, [r4, #12]

  // If reset is pending, try a soft reset, buf for a reboot anyway after timeout.
  if ((mState & SYSTEM_RESET_PENDING) != 0) {
 8008494:	6963      	ldr	r3, [r4, #20]
 8008496:	f013 0f01 	tst.w	r3, #1
 800849a:	d141      	bne.n	8008520 <_ZN16SystemManagement19tryPriority2ActionsEv+0xc8>
    if (allAreClosed() || (getLeaseTime(mRebootTimeLimit) < 0)) {
      systemReset();
    }
  }  
 
}
 800849c:	bd38      	pop	{r3, r4, r5, pc}
    uint32_t time = getTimerTicks();
 800849e:	f001 ff17 	bl	800a2d0 <getTimerTicks>
    if (time > ETHERNET_WAKEUP_TIME) {
 80084a2:	f640 13c4 	movw	r3, #2500	@ 0x9c4
 80084a6:	4298      	cmp	r0, r3
 80084a8:	d9e4      	bls.n	8008474 <_ZN16SystemManagement19tryPriority2ActionsEv+0x1c>
      mState &= ~SYSTEM_EXECUTE_ONESHOTS;
 80084aa:	6963      	ldr	r3, [r4, #20]
 80084ac:	f023 0302 	bic.w	r3, r3, #2
 80084b0:	6163      	str	r3, [r4, #20]
 80084b2:	e7df      	b.n	8008474 <_ZN16SystemManagement19tryPriority2ActionsEv+0x1c>
      mSingelton = new HardwareCenter;
 80084b4:	f44f 702e 	mov.w	r0, #696	@ 0x2b8
 80084b8:	f003 fd1e 	bl	800bef8 <_Znwj>
 80084bc:	4605      	mov	r5, r0
 80084be:	f7fb fddb 	bl	8004078 <_ZN14HardwareCenterC1Ev>
 80084c2:	4b1d      	ldr	r3, [pc, #116]	@ (8008538 <_ZN16SystemManagement19tryPriority2ActionsEv+0xe0>)
 80084c4:	601d      	str	r5, [r3, #0]
 80084c6:	e7da      	b.n	800847e <_ZN16SystemManagement19tryPriority2ActionsEv+0x26>
    SystemObjects::getSingleton().mCommunicationCenter.periodicCall(2);
 80084c8:	4d1c      	ldr	r5, [pc, #112]	@ (800853c <_ZN16SystemManagement19tryPriority2ActionsEv+0xe4>)
 80084ca:	2102      	movs	r1, #2
 80084cc:	4628      	mov	r0, r5
 80084ce:	f7fc fc05 	bl	8004cdc <_ZN19CommunicationCenter12periodicCallEi>
    if (SystemObjects::getSingleton().mCommunicationCenter.getIPAddr() == 0)
 80084d2:	f8d5 371c 	ldr.w	r3, [r5, #1820]	@ 0x71c
 80084d6:	b98b      	cbnz	r3, 80084fc <_ZN16SystemManagement19tryPriority2ActionsEv+0xa4>
    if (mSingelton == NULL)
 80084d8:	4b17      	ldr	r3, [pc, #92]	@ (8008538 <_ZN16SystemManagement19tryPriority2ActionsEv+0xe0>)
 80084da:	681b      	ldr	r3, [r3, #0]
 80084dc:	b123      	cbz	r3, 80084e8 <_ZN16SystemManagement19tryPriority2ActionsEv+0x90>
    return *mSingelton; 
 80084de:	4b16      	ldr	r3, [pc, #88]	@ (8008538 <_ZN16SystemManagement19tryPriority2ActionsEv+0xe0>)
 80084e0:	681b      	ldr	r3, [r3, #0]
      HardwareCenter::GetInstance().CommStat = 0;
 80084e2:	2200      	movs	r2, #0
 80084e4:	701a      	strb	r2, [r3, #0]
 80084e6:	e7ce      	b.n	8008486 <_ZN16SystemManagement19tryPriority2ActionsEv+0x2e>
      mSingelton = new HardwareCenter;
 80084e8:	f44f 702e 	mov.w	r0, #696	@ 0x2b8
 80084ec:	f003 fd04 	bl	800bef8 <_Znwj>
 80084f0:	4605      	mov	r5, r0
 80084f2:	f7fb fdc1 	bl	8004078 <_ZN14HardwareCenterC1Ev>
 80084f6:	4b10      	ldr	r3, [pc, #64]	@ (8008538 <_ZN16SystemManagement19tryPriority2ActionsEv+0xe0>)
 80084f8:	601d      	str	r5, [r3, #0]
 80084fa:	e7f0      	b.n	80084de <_ZN16SystemManagement19tryPriority2ActionsEv+0x86>
    if (mSingelton == NULL)
 80084fc:	4b0e      	ldr	r3, [pc, #56]	@ (8008538 <_ZN16SystemManagement19tryPriority2ActionsEv+0xe0>)
 80084fe:	681b      	ldr	r3, [r3, #0]
 8008500:	b123      	cbz	r3, 800850c <_ZN16SystemManagement19tryPriority2ActionsEv+0xb4>
    return *mSingelton; 
 8008502:	4b0d      	ldr	r3, [pc, #52]	@ (8008538 <_ZN16SystemManagement19tryPriority2ActionsEv+0xe0>)
 8008504:	681b      	ldr	r3, [r3, #0]
      HardwareCenter::GetInstance().CommStat = 1;
 8008506:	2201      	movs	r2, #1
 8008508:	701a      	strb	r2, [r3, #0]
 800850a:	e7bc      	b.n	8008486 <_ZN16SystemManagement19tryPriority2ActionsEv+0x2e>
      mSingelton = new HardwareCenter;
 800850c:	f44f 702e 	mov.w	r0, #696	@ 0x2b8
 8008510:	f003 fcf2 	bl	800bef8 <_Znwj>
 8008514:	4605      	mov	r5, r0
 8008516:	f7fb fdaf 	bl	8004078 <_ZN14HardwareCenterC1Ev>
 800851a:	4b07      	ldr	r3, [pc, #28]	@ (8008538 <_ZN16SystemManagement19tryPriority2ActionsEv+0xe0>)
 800851c:	601d      	str	r5, [r3, #0]
 800851e:	e7f0      	b.n	8008502 <_ZN16SystemManagement19tryPriority2ActionsEv+0xaa>
// **************************************************************
// Tests if we received any 'keep alive' notification in the past cycle.
// **************************************************************
bool SystemManagement::allAreClosed() const
{
  return SystemObjects::getSingleton().mCommunicationCenter.allAreClosed();
 8008520:	4806      	ldr	r0, [pc, #24]	@ (800853c <_ZN16SystemManagement19tryPriority2ActionsEv+0xe4>)
 8008522:	f7fc fc05 	bl	8004d30 <_ZNK19CommunicationCenter12allAreClosedEv>
    if (allAreClosed() || (getLeaseTime(mRebootTimeLimit) < 0)) {
 8008526:	b920      	cbnz	r0, 8008532 <_ZN16SystemManagement19tryPriority2ActionsEv+0xda>
 8008528:	6920      	ldr	r0, [r4, #16]
 800852a:	f001 ff0d 	bl	800a348 <getLeaseTime>
 800852e:	2800      	cmp	r0, #0
 8008530:	dab4      	bge.n	800849c <_ZN16SystemManagement19tryPriority2ActionsEv+0x44>
      systemReset();
 8008532:	f7ff fef1 	bl	8008318 <systemReset>
 8008536:	e7b1      	b.n	800849c <_ZN16SystemManagement19tryPriority2ActionsEv+0x44>
 8008538:	200003f4 	.word	0x200003f4
 800853c:	2000ac10 	.word	0x2000ac10

08008540 <_ZN16SystemManagement12periodicCallEv>:
{
 8008540:	b510      	push	{r4, lr}
  mGlobalManagement.tryPriority2Actions();
 8008542:	4c05      	ldr	r4, [pc, #20]	@ (8008558 <_ZN16SystemManagement12periodicCallEv+0x18>)
 8008544:	4620      	mov	r0, r4
 8008546:	f7ff ff87 	bl	8008458 <_ZN16SystemManagement19tryPriority2ActionsEv>
  mGlobalManagement.tryPriority1Actions();
 800854a:	4620      	mov	r0, r4
 800854c:	f7ff ff72 	bl	8008434 <_ZN16SystemManagement19tryPriority1ActionsEv>
  mGlobalManagement.tryPriority0Actions();
 8008550:	4620      	mov	r0, r4
 8008552:	f7ff ff67 	bl	8008424 <_ZN16SystemManagement19tryPriority0ActionsEv>
}
 8008556:	bd10      	pop	{r4, pc}
 8008558:	2000abe0 	.word	0x2000abe0

0800855c <_ZN16SystemManagement14registerRebootEv>:
// **************************************************************
// Marks system as closing
// **************************************************************
void SystemManagement::registerReboot()
{
  if ((mGlobalManagement.mState & SYSTEM_RESET_PENDING) != 0) {
 800855c:	4b09      	ldr	r3, [pc, #36]	@ (8008584 <_ZN16SystemManagement14registerRebootEv+0x28>)
 800855e:	695b      	ldr	r3, [r3, #20]
 8008560:	f013 0f01 	tst.w	r3, #1
 8008564:	d000      	beq.n	8008568 <_ZN16SystemManagement14registerRebootEv+0xc>
 8008566:	4770      	bx	lr
{
 8008568:	b510      	push	{r4, lr}
    return;
  }

  mGlobalManagement.mState |= SYSTEM_RESET_PENDING;
 800856a:	4c06      	ldr	r4, [pc, #24]	@ (8008584 <_ZN16SystemManagement14registerRebootEv+0x28>)
 800856c:	f043 0301 	orr.w	r3, r3, #1
 8008570:	6163      	str	r3, [r4, #20]
  mGlobalManagement.mRebootTimeLimit = getTimerLease(SYSTEM_SHUTDOWN_DELAY);
 8008572:	f640 30b8 	movw	r0, #3000	@ 0xbb8
 8008576:	f001 fec7 	bl	800a308 <getTimerLease>
 800857a:	6120      	str	r0, [r4, #16]
  SystemObjects::getSingleton().mCommunicationCenter.closeCenter();
 800857c:	4802      	ldr	r0, [pc, #8]	@ (8008588 <_ZN16SystemManagement14registerRebootEv+0x2c>)
 800857e:	f7fc fbdd 	bl	8004d3c <_ZN19CommunicationCenter11closeCenterEv>
}
 8008582:	bd10      	pop	{r4, pc}
 8008584:	2000abe0 	.word	0x2000abe0
 8008588:	2000ac10 	.word	0x2000ac10

0800858c <_ZN16SystemManagement17handleLeyer2FrameER7InFrame>:
*/
// **************************************************************
// mediators
// **************************************************************
int SystemManagement::handleLeyer2Frame(InFrame& frame)
{
 800858c:	b508      	push	{r3, lr}
 800858e:	4601      	mov	r1, r0
  return mGlobalManagement.mCommunicationCenter.handleLeyer2Frame(frame);
 8008590:	4b02      	ldr	r3, [pc, #8]	@ (800859c <_ZN16SystemManagement17handleLeyer2FrameER7InFrame+0x10>)
 8008592:	6998      	ldr	r0, [r3, #24]
 8008594:	f7fc fbc2 	bl	8004d1c <_ZN19CommunicationCenter17handleLeyer2FrameER7InFrame>
}
 8008598:	bd08      	pop	{r3, pc}
 800859a:	bf00      	nop
 800859c:	2000abe0 	.word	0x2000abe0

080085a0 <_GLOBAL__sub_I__ZN16SystemManagement17mGlobalManagementE>:
 80085a0:	b508      	push	{r3, lr}
SystemManagement SystemManagement::mGlobalManagement;
 80085a2:	4802      	ldr	r0, [pc, #8]	@ (80085ac <_GLOBAL__sub_I__ZN16SystemManagement17mGlobalManagementE+0xc>)
 80085a4:	f7ff fec8 	bl	8008338 <_ZN16SystemManagementC1Ev>
}
 80085a8:	bd08      	pop	{r3, pc}
 80085aa:	bf00      	nop
 80085ac:	2000abe0 	.word	0x2000abe0

080085b0 <_ZN13SystemObjectsC1Ev>:
SystemObjects SystemObjects::mSingleton;

// **************************************************************
// Constructor
// **************************************************************
SystemObjects::SystemObjects() :
 80085b0:	b510      	push	{r4, lr}
 80085b2:	4604      	mov	r4, r0
		HwAddress(0),
 80085b4:	2300      	movs	r3, #0
 80085b6:	f800 3b08 	strb.w	r3, [r0], #8
		mCommunicationCenter(),
 80085ba:	f7fc fb41 	bl	8004c40 <_ZN19CommunicationCenterC1Ev>
		mPersistentData(HwAddress)
 80085be:	4621      	mov	r1, r4
 80085c0:	f604 0068 	addw	r0, r4, #2152	@ 0x868
 80085c4:	f000 f996 	bl	80088f4 <_ZN14PersistentDataC1ERh>
{
}
 80085c8:	4620      	mov	r0, r4
 80085ca:	bd10      	pop	{r4, pc}

080085cc <_GLOBAL__sub_I__ZN13SystemObjects10mSingletonE>:
// **************************************************************
uint16_t get16RandomNumber()
{
  SystemObjects& systemObjects = SystemObjects::getSingleton();
  return systemObjects.mPersistentData.getNext16RandomNumber();
}
 80085cc:	b508      	push	{r3, lr}
SystemObjects SystemObjects::mSingleton;
 80085ce:	4802      	ldr	r0, [pc, #8]	@ (80085d8 <_GLOBAL__sub_I__ZN13SystemObjects10mSingletonE+0xc>)
 80085d0:	f7ff ffee 	bl	80085b0 <_ZN13SystemObjectsC1Ev>
}
 80085d4:	bd08      	pop	{r3, pc}
 80085d6:	bf00      	nop
 80085d8:	2000ac08 	.word	0x2000ac08

080085dc <get16RandomNumber>:
{
 80085dc:	b508      	push	{r3, lr}
  return systemObjects.mPersistentData.getNext16RandomNumber();
 80085de:	4802      	ldr	r0, [pc, #8]	@ (80085e8 <get16RandomNumber+0xc>)
 80085e0:	f000 f8c6 	bl	8008770 <_ZN14PersistentData21getNext16RandomNumberEv>
}
 80085e4:	bd08      	pop	{r3, pc}
 80085e6:	bf00      	nop
 80085e8:	2000b470 	.word	0x2000b470

080085ec <_ZN20PersistentSystemData21Get_LocalRemoteSourceEv>:
  //Network Settings
   const IpSettings_t* Get_IpSetting();

   virtual const uint8_t Get_LocalRemoteSource()
     {
   	  return GET_CONFIG_ADDRESS(Address)->LocalRemoteSource;
 80085ec:	6883      	ldr	r3, [r0, #8]
 80085ee:	781b      	ldrb	r3, [r3, #0]
 80085f0:	f503 3380 	add.w	r3, r3, #65536	@ 0x10000
 80085f4:	3360      	adds	r3, #96	@ 0x60
 80085f6:	02db      	lsls	r3, r3, #11
     }
 80085f8:	7c98      	ldrb	r0, [r3, #18]
 80085fa:	4770      	bx	lr

080085fc <_ZN14PersistentData21Get_LocalRemoteSourceEv>:
   	  return GET_CONFIG_ADDRESS(Address)->LocalRemoteSource;
 80085fc:	6983      	ldr	r3, [r0, #24]
 80085fe:	781b      	ldrb	r3, [r3, #0]
 8008600:	f503 3380 	add.w	r3, r3, #65536	@ 0x10000
 8008604:	3360      	adds	r3, #96	@ 0x60
 8008606:	02db      	lsls	r3, r3, #11
  //Network Setings
  virtual const IpSettings_t* Get_IpSetting();
  virtual const uint8_t Get_LocalRemoteSource()
  {
	  return mPersistentSystemData.Get_LocalRemoteSource();
  }
 8008608:	7c98      	ldrb	r0, [r3, #18]
 800860a:	4770      	bx	lr

0800860c <_ZN14PersistentData19Get_GPOLinkSettingsEv>:
  
  //Hardware settings
   const OutLinkDCI_t* Get_OutputLinkSettings();
   const GpoLink_t* Get_GPOLinkSettings()
   {
	   return GET_CONFIG_ADDRESS(Address)->GpoLink;
 800860c:	6983      	ldr	r3, [r0, #24]
 800860e:	781b      	ldrb	r3, [r3, #0]
 8008610:	02db      	lsls	r3, r3, #11
  virtual const Raw_Config_t* Get_CBSetting(int CbNum);
  virtual const OutLinkDCI_t* Get_OutputLinkSettings();
  virtual const GpoLink_t* Get_GPOLinkSettings()
  {
	  return mPersistentSystemData.Get_GPOLinkSettings();
  }
 8008612:	4801      	ldr	r0, [pc, #4]	@ (8008618 <_ZN14PersistentData19Get_GPOLinkSettingsEv+0xc>)
 8008614:	4418      	add	r0, r3
 8008616:	4770      	bx	lr
 8008618:	080300b3 	.word	0x080300b3

0800861c <_ZN14PersistentData19Get_PorLinkSettingsEv>:
   }
 
 
   const MacroLink_t* Get_PorLinkSettings()
   {
 	  return &GET_CONFIG_ADDRESS(Address)->Por_Macro;
 800861c:	6983      	ldr	r3, [r0, #24]
 800861e:	781b      	ldrb	r3, [r3, #0]
 8008620:	02db      	lsls	r3, r3, #11
  
  //Macro
  virtual const MacroLink_t* Get_PorLinkSettings()
  {
	  return mPersistentSystemData.Get_PorLinkSettings();
  }
 8008622:	4801      	ldr	r0, [pc, #4]	@ (8008628 <_ZN14PersistentData19Get_PorLinkSettingsEv+0xc>)
 8008624:	4418      	add	r0, r3
 8008626:	4770      	bx	lr
 8008628:	080300c7 	.word	0x080300c7

0800862c <_ZN14PersistentData21Get_MacroLinkSettingsEv>:
   }

   const MacroLink_t* Get_MacroLinkSettings()
   {
 	  return GET_CONFIG_ADDRESS(Address)->DCI_Macro;
 800862c:	6983      	ldr	r3, [r0, #24]
 800862e:	781b      	ldrb	r3, [r3, #0]
 8008630:	02db      	lsls	r3, r3, #11

  virtual const MacroLink_t* Get_MacroLinkSettings()
  {
	  return mPersistentSystemData.Get_MacroLinkSettings();
  }
 8008632:	4801      	ldr	r0, [pc, #4]	@ (8008638 <_ZN14PersistentData21Get_MacroLinkSettingsEv+0xc>)
 8008634:	4418      	add	r0, r3
 8008636:	4770      	bx	lr
 8008638:	080300c9 	.word	0x080300c9

0800863c <_ZN14PersistentData21Get_StateLinkSettingsEv>:
   }

   const MacroLink_t* Get_StateLinkSettings()
   {
 	  return &GET_CONFIG_ADDRESS(Address)->State_Macro;
 800863c:	6983      	ldr	r3, [r0, #24]
 800863e:	781b      	ldrb	r3, [r3, #0]
 8008640:	02db      	lsls	r3, r3, #11

  virtual const MacroLink_t* Get_StateLinkSettings()
  {
	  return mPersistentSystemData.Get_StateLinkSettings();
  }
 8008642:	4801      	ldr	r0, [pc, #4]	@ (8008648 <_ZN14PersistentData21Get_StateLinkSettingsEv+0xc>)
 8008644:	4418      	add	r0, r3
 8008646:	4770      	bx	lr
 8008648:	080300ff 	.word	0x080300ff

0800864c <_ZN14PersistentData16Get_MacroAddressEh>:
   }
   const Macro_cmd* Get_MacroAddress(uint8_t MacroNum)
     {
   	  return GET_MACRO_ADDRESS(MacroNum);
 800864c:	f501 3080 	add.w	r0, r1, #65536	@ 0x10000
 8008650:	3070      	adds	r0, #112	@ 0x70
  virtual const Macro_cmd* Get_MacroAddress(uint8_t MacroNum)
  {
	  return mPersistentSystemData.Get_MacroAddress(MacroNum);
  }
 8008652:	02c0      	lsls	r0, r0, #11
 8008654:	4770      	bx	lr
	...

08008658 <_ZNK14PersistentData15getSerialNumberEv>:

const char* PersistentData::getSerialNumber() const
{
  return (char*)(PERSISTENT_BLOCK_BASE(PERSISTENT_DATA_STATIC_BLOCK_A) + SN_OFFSET);
  
}
 8008658:	4800      	ldr	r0, [pc, #0]	@ (800865c <_ZNK14PersistentData15getSerialNumberEv+0x4>)
 800865a:	4770      	bx	lr
 800865c:	08001080 	.word	0x08001080

08008660 <_ZN14PersistentData21getNext32RandomNumberEv>:

// **************************************************************
// Generates the next 32 bit quasy random sequence number
// **************************************************************
uint32_t PersistentData::getNext32RandomNumber()
{
 8008660:	b538      	push	{r3, r4, r5, lr}
 8008662:	4604      	mov	r4, r0
  uint32_t retVal = getNext16RandomNumber();
 8008664:	6803      	ldr	r3, [r0, #0]
 8008666:	6cdb      	ldr	r3, [r3, #76]	@ 0x4c
 8008668:	4798      	blx	r3
  retVal = retVal << 16;
 800866a:	0405      	lsls	r5, r0, #16
  retVal += getNext16RandomNumber();
 800866c:	6823      	ldr	r3, [r4, #0]
 800866e:	6cdb      	ldr	r3, [r3, #76]	@ 0x4c
 8008670:	4620      	mov	r0, r4
 8008672:	4798      	blx	r3
  return retVal;
}
 8008674:	4428      	add	r0, r5
 8008676:	bd38      	pop	{r3, r4, r5, pc}

08008678 <_ZNK14PersistentData10getMacAddrEv>:
// Returns the MAC address
// **************************************************************
const MACAddr& PersistentData::getMacAddr() const
{
  return mMacAddr;
}
 8008678:	3008      	adds	r0, #8
 800867a:	4770      	bx	lr

0800867c <_ZN14PersistentData16getSystemVersionEv>:
// **************************************************************
const Version_T& PersistentData::getSystemVersion()
{
  static Version_T version = {{0,0,0},0,0,{0,0,0},PERSISTENT_VERSION};
  Boot_Memory_Type *mem = (Boot_Memory_Type *)BOOT_LOADER_BASE;
  if (mem->active_version_file[0] != 0)
 800867c:	f04f 2308 	mov.w	r3, #134219776	@ 0x8000800
 8008680:	f893 3020 	ldrb.w	r3, [r3, #32]
 8008684:	b113      	cbz	r3, 800868c <_ZN14PersistentData16getSystemVersionEv+0x10>
    version.SW_Version_Raw = mem->active_version_file;
 8008686:	4b36      	ldr	r3, [pc, #216]	@ (8008760 <_ZN14PersistentData16getSystemVersionEv+0xe4>)
 8008688:	4a36      	ldr	r2, [pc, #216]	@ (8008764 <_ZN14PersistentData16getSystemVersionEv+0xe8>)
 800868a:	611a      	str	r2, [r3, #16]
  version.SW_Version[0] = (version.SW_Version_Raw[9]-0x30)*100 + (version.SW_Version_Raw[10]-0x30)*10 + (version.SW_Version_Raw[11]-0x30);
 800868c:	4834      	ldr	r0, [pc, #208]	@ (8008760 <_ZN14PersistentData16getSystemVersionEv+0xe4>)
 800868e:	6903      	ldr	r3, [r0, #16]
 8008690:	7a5a      	ldrb	r2, [r3, #9]
 8008692:	eb02 0282 	add.w	r2, r2, r2, lsl #2
 8008696:	eb02 0182 	add.w	r1, r2, r2, lsl #2
 800869a:	7ada      	ldrb	r2, [r3, #11]
 800869c:	3230      	adds	r2, #48	@ 0x30
 800869e:	eb02 0281 	add.w	r2, r2, r1, lsl #2
 80086a2:	7a99      	ldrb	r1, [r3, #10]
 80086a4:	eb01 0181 	add.w	r1, r1, r1, lsl #2
 80086a8:	eb02 0241 	add.w	r2, r2, r1, lsl #1
 80086ac:	7302      	strb	r2, [r0, #12]
  version.SW_Version[1] = (version.SW_Version_Raw[13]-0x30)*100 + (version.SW_Version_Raw[14]-0x30)*10 + (version.SW_Version_Raw[15]-0x30);
 80086ae:	7b5a      	ldrb	r2, [r3, #13]
 80086b0:	eb02 0282 	add.w	r2, r2, r2, lsl #2
 80086b4:	eb02 0182 	add.w	r1, r2, r2, lsl #2
 80086b8:	7bda      	ldrb	r2, [r3, #15]
 80086ba:	3230      	adds	r2, #48	@ 0x30
 80086bc:	eb02 0281 	add.w	r2, r2, r1, lsl #2
 80086c0:	7b99      	ldrb	r1, [r3, #14]
 80086c2:	eb01 0181 	add.w	r1, r1, r1, lsl #2
 80086c6:	eb02 0241 	add.w	r2, r2, r1, lsl #1
 80086ca:	7342      	strb	r2, [r0, #13]
  version.SW_Version[2] = (version.SW_Version_Raw[17]-0x30)*100 + (version.SW_Version_Raw[18]-0x30)*10 + (version.SW_Version_Raw[19]-0x30);
 80086cc:	7c5a      	ldrb	r2, [r3, #17]
 80086ce:	eb02 0282 	add.w	r2, r2, r2, lsl #2
 80086d2:	eb02 0182 	add.w	r1, r2, r2, lsl #2
 80086d6:	7cda      	ldrb	r2, [r3, #19]
 80086d8:	3230      	adds	r2, #48	@ 0x30
 80086da:	eb02 0281 	add.w	r2, r2, r1, lsl #2
 80086de:	7c9b      	ldrb	r3, [r3, #18]
 80086e0:	eb03 0383 	add.w	r3, r3, r3, lsl #2
 80086e4:	eb02 0343 	add.w	r3, r2, r3, lsl #1
 80086e8:	7383      	strb	r3, [r0, #14]
  version.FW_Version_Raw = mem->FPGA_version_file;
 80086ea:	4b1f      	ldr	r3, [pc, #124]	@ (8008768 <_ZN14PersistentData16getSystemVersionEv+0xec>)
 80086ec:	6043      	str	r3, [r0, #4]
  version.FW_Version[0] = (version.FW_Version_Raw[9]-0x30)*100 + (version.FW_Version_Raw[10]-0x30)*10 + (version.FW_Version_Raw[11]-0x30);
 80086ee:	f04f 2308 	mov.w	r3, #134219776	@ 0x8000800
 80086f2:	f893 2083 	ldrb.w	r2, [r3, #131]	@ 0x83
 80086f6:	eb02 0282 	add.w	r2, r2, r2, lsl #2
 80086fa:	eb02 0182 	add.w	r1, r2, r2, lsl #2
 80086fe:	f893 2085 	ldrb.w	r2, [r3, #133]	@ 0x85
 8008702:	3230      	adds	r2, #48	@ 0x30
 8008704:	eb02 0281 	add.w	r2, r2, r1, lsl #2
 8008708:	f893 1084 	ldrb.w	r1, [r3, #132]	@ 0x84
 800870c:	eb01 0181 	add.w	r1, r1, r1, lsl #2
 8008710:	eb02 0241 	add.w	r2, r2, r1, lsl #1
 8008714:	7002      	strb	r2, [r0, #0]
  version.FW_Version[1] = (version.FW_Version_Raw[13]-0x30)*100 + (version.FW_Version_Raw[14]-0x30)*10 + (version.FW_Version_Raw[15]-0x30);
 8008716:	f893 2087 	ldrb.w	r2, [r3, #135]	@ 0x87
 800871a:	eb02 0282 	add.w	r2, r2, r2, lsl #2
 800871e:	eb02 0182 	add.w	r1, r2, r2, lsl #2
 8008722:	f893 2089 	ldrb.w	r2, [r3, #137]	@ 0x89
 8008726:	3230      	adds	r2, #48	@ 0x30
 8008728:	eb02 0281 	add.w	r2, r2, r1, lsl #2
 800872c:	f893 1088 	ldrb.w	r1, [r3, #136]	@ 0x88
 8008730:	eb01 0181 	add.w	r1, r1, r1, lsl #2
 8008734:	eb02 0241 	add.w	r2, r2, r1, lsl #1
 8008738:	7042      	strb	r2, [r0, #1]
  version.FW_Version[2] = (version.FW_Version_Raw[17]-0x30)*100 + (version.FW_Version_Raw[18]-0x30)*10 + (version.FW_Version_Raw[19]-0x30);
 800873a:	f893 208b 	ldrb.w	r2, [r3, #139]	@ 0x8b
 800873e:	eb02 0282 	add.w	r2, r2, r2, lsl #2
 8008742:	eb02 0182 	add.w	r1, r2, r2, lsl #2
 8008746:	f893 208d 	ldrb.w	r2, [r3, #141]	@ 0x8d
 800874a:	3230      	adds	r2, #48	@ 0x30
 800874c:	eb02 0281 	add.w	r2, r2, r1, lsl #2
 8008750:	f893 308c 	ldrb.w	r3, [r3, #140]	@ 0x8c
 8008754:	eb03 0383 	add.w	r3, r3, r3, lsl #2
 8008758:	eb02 0343 	add.w	r3, r2, r3, lsl #1
 800875c:	7083      	strb	r3, [r0, #2]
  
  return version;
}
 800875e:	4770      	bx	lr
 8008760:	20000018 	.word	0x20000018
 8008764:	08000820 	.word	0x08000820
 8008768:	0800087a 	.word	0x0800087a

0800876c <_ZNK14PersistentData15getResetCounterEv>:


int PersistentData::getResetCounter() const
{
  return 0;
}
 800876c:	2000      	movs	r0, #0
 800876e:	4770      	bx	lr

08008770 <_ZN14PersistentData21getNext16RandomNumberEv>:
{
 8008770:	b508      	push	{r3, lr}
  return mPersistentSystemStats.getNext16RandomNumber();
 8008772:	3004      	adds	r0, #4
 8008774:	f000 fef6 	bl	8009564 <_ZN21PersistentSystemStats21getNext16RandomNumberEv>
}
 8008778:	bd08      	pop	{r3, pc}

0800877a <_ZN14PersistentData13Get_IpSettingEv>:
{
 800877a:	b508      	push	{r3, lr}
  return mPersistentSystemData.Get_IpSetting();
 800877c:	3010      	adds	r0, #16
 800877e:	f000 fc7d 	bl	800907c <_ZN20PersistentSystemData13Get_IpSettingEv>
}
 8008782:	bd08      	pop	{r3, pc}

08008784 <_ZN14PersistentData13Get_CBSettingEi>:
{
 8008784:	b508      	push	{r3, lr}
    return mPersistentSystemData.Get_CBSetting(CbNum);
 8008786:	3010      	adds	r0, #16
 8008788:	f000 fc80 	bl	800908c <_ZN20PersistentSystemData13Get_CBSettingEi>
}
 800878c:	bd08      	pop	{r3, pc}

0800878e <_ZN14PersistentData15handleGetConfigER6BufferS1_>:

void PersistentData::handleGetConfig(Buffer& DataIn,Buffer& DataOut)
{
 800878e:	b508      	push	{r3, lr}
  mPersistentSystemData.handleGetConfig(DataIn,DataOut);
 8008790:	3010      	adds	r0, #16
 8008792:	f000 fe4f 	bl	8009434 <_ZN20PersistentSystemData15handleGetConfigER6BufferS1_>
}
 8008796:	bd08      	pop	{r3, pc}

08008798 <_ZN14PersistentData22Get_OutputLinkSettingsEv>:
			return EEPROM_ERROR;
   return mPersistentSystemData.handleSetConfig(DataIn);
 }
 
 const OutLinkDCI_t* PersistentData::Get_OutputLinkSettings()
 {
 8008798:	b508      	push	{r3, lr}
   return mPersistentSystemData.Get_OutputLinkSettings();
 800879a:	3010      	adds	r0, #16
 800879c:	f000 fa0a 	bl	8008bb4 <_ZN20PersistentSystemData22Get_OutputLinkSettingsEv>
 }
 80087a0:	bd08      	pop	{r3, pc}
	...

080087a4 <_ZN14PersistentData15handleSetConfigER6Buffer>:
 {
 80087a4:	b570      	push	{r4, r5, r6, lr}
 80087a6:	4605      	mov	r5, r0
 80087a8:	460c      	mov	r4, r1
    if (mSingelton == NULL)
 80087aa:	4b0d      	ldr	r3, [pc, #52]	@ (80087e0 <_ZN14PersistentData15handleSetConfigER6Buffer+0x3c>)
 80087ac:	681b      	ldr	r3, [r3, #0]
 80087ae:	b153      	cbz	r3, 80087c6 <_ZN14PersistentData15handleSetConfigER6Buffer+0x22>
		if (!HardwareCenter::GetInstance().ins.WP_MCU)
 80087b0:	4b0b      	ldr	r3, [pc, #44]	@ (80087e0 <_ZN14PersistentData15handleSetConfigER6Buffer+0x3c>)
 80087b2:	681b      	ldr	r3, [r3, #0]
 80087b4:	f893 303f 	ldrb.w	r3, [r3, #63]	@ 0x3f
 80087b8:	b17b      	cbz	r3, 80087da <_ZN14PersistentData15handleSetConfigER6Buffer+0x36>
   return mPersistentSystemData.handleSetConfig(DataIn);
 80087ba:	4621      	mov	r1, r4
 80087bc:	f105 0010 	add.w	r0, r5, #16
 80087c0:	f000 fa60 	bl	8008c84 <_ZN20PersistentSystemData15handleSetConfigER6Buffer>
 }
 80087c4:	bd70      	pop	{r4, r5, r6, pc}
      mSingelton = new HardwareCenter;
 80087c6:	f44f 702e 	mov.w	r0, #696	@ 0x2b8
 80087ca:	f003 fb95 	bl	800bef8 <_Znwj>
 80087ce:	4606      	mov	r6, r0
 80087d0:	f7fb fc52 	bl	8004078 <_ZN14HardwareCenterC1Ev>
 80087d4:	4b02      	ldr	r3, [pc, #8]	@ (80087e0 <_ZN14PersistentData15handleSetConfigER6Buffer+0x3c>)
 80087d6:	601e      	str	r6, [r3, #0]
 80087d8:	e7ea      	b.n	80087b0 <_ZN14PersistentData15handleSetConfigER6Buffer+0xc>
			return EEPROM_ERROR;
 80087da:	2002      	movs	r0, #2
 80087dc:	e7f2      	b.n	80087c4 <_ZN14PersistentData15handleSetConfigER6Buffer+0x20>
 80087de:	bf00      	nop
 80087e0:	200003f4 	.word	0x200003f4

080087e4 <_ZN14PersistentData14handleSetMacroER6Buffer>:
 {
 80087e4:	b570      	push	{r4, r5, r6, lr}
 80087e6:	4605      	mov	r5, r0
 80087e8:	460c      	mov	r4, r1
    if (mSingelton == NULL)
 80087ea:	4b0d      	ldr	r3, [pc, #52]	@ (8008820 <_ZN14PersistentData14handleSetMacroER6Buffer+0x3c>)
 80087ec:	681b      	ldr	r3, [r3, #0]
 80087ee:	b153      	cbz	r3, 8008806 <_ZN14PersistentData14handleSetMacroER6Buffer+0x22>
	if (!HardwareCenter::GetInstance().ins.WP_MCU)
 80087f0:	4b0b      	ldr	r3, [pc, #44]	@ (8008820 <_ZN14PersistentData14handleSetMacroER6Buffer+0x3c>)
 80087f2:	681b      	ldr	r3, [r3, #0]
 80087f4:	f893 303f 	ldrb.w	r3, [r3, #63]	@ 0x3f
 80087f8:	b17b      	cbz	r3, 800881a <_ZN14PersistentData14handleSetMacroER6Buffer+0x36>
   return mPersistentSystemData.handleSetMacro(DataIn);
 80087fa:	4621      	mov	r1, r4
 80087fc:	f105 0010 	add.w	r0, r5, #16
 8008800:	f000 f9e8 	bl	8008bd4 <_ZN20PersistentSystemData14handleSetMacroER6Buffer>
 }
 8008804:	bd70      	pop	{r4, r5, r6, pc}
      mSingelton = new HardwareCenter;
 8008806:	f44f 702e 	mov.w	r0, #696	@ 0x2b8
 800880a:	f003 fb75 	bl	800bef8 <_Znwj>
 800880e:	4606      	mov	r6, r0
 8008810:	f7fb fc32 	bl	8004078 <_ZN14HardwareCenterC1Ev>
 8008814:	4b02      	ldr	r3, [pc, #8]	@ (8008820 <_ZN14PersistentData14handleSetMacroER6Buffer+0x3c>)
 8008816:	601e      	str	r6, [r3, #0]
 8008818:	e7ea      	b.n	80087f0 <_ZN14PersistentData14handleSetMacroER6Buffer+0xc>
		return EEPROM_ERROR;
 800881a:	2002      	movs	r0, #2
 800881c:	e7f2      	b.n	8008804 <_ZN14PersistentData14handleSetMacroER6Buffer+0x20>
 800881e:	bf00      	nop
 8008820:	200003f4 	.word	0x200003f4

08008824 <_ZN14PersistentData12FactoryResetEv>:
{
 8008824:	b538      	push	{r3, r4, r5, lr}
 8008826:	4604      	mov	r4, r0
    if (mSingelton == NULL)
 8008828:	4b0e      	ldr	r3, [pc, #56]	@ (8008864 <_ZN14PersistentData12FactoryResetEv+0x40>)
 800882a:	681b      	ldr	r3, [r3, #0]
 800882c:	b12b      	cbz	r3, 800883a <_ZN14PersistentData12FactoryResetEv+0x16>
	if (!HardwareCenter::GetInstance().ins.WP_MCU)
 800882e:	4b0d      	ldr	r3, [pc, #52]	@ (8008864 <_ZN14PersistentData12FactoryResetEv+0x40>)
 8008830:	681b      	ldr	r3, [r3, #0]
 8008832:	f893 003f 	ldrb.w	r0, [r3, #63]	@ 0x3f
 8008836:	b950      	cbnz	r0, 800884e <_ZN14PersistentData12FactoryResetEv+0x2a>
}
 8008838:	bd38      	pop	{r3, r4, r5, pc}
      mSingelton = new HardwareCenter;
 800883a:	f44f 702e 	mov.w	r0, #696	@ 0x2b8
 800883e:	f003 fb5b 	bl	800bef8 <_Znwj>
 8008842:	4605      	mov	r5, r0
 8008844:	f7fb fc18 	bl	8004078 <_ZN14HardwareCenterC1Ev>
 8008848:	4b06      	ldr	r3, [pc, #24]	@ (8008864 <_ZN14PersistentData12FactoryResetEv+0x40>)
 800884a:	601d      	str	r5, [r3, #0]
 800884c:	e7ef      	b.n	800882e <_ZN14PersistentData12FactoryResetEv+0xa>
  if (mPersistentSystemData.EraseAllData() == ERROR)
 800884e:	3410      	adds	r4, #16
 8008850:	4620      	mov	r0, r4
 8008852:	f000 fbcd 	bl	8008ff0 <_ZN20PersistentSystemData12EraseAllDataEv>
 8008856:	2800      	cmp	r0, #0
 8008858:	d0ee      	beq.n	8008838 <_ZN14PersistentData12FactoryResetEv+0x14>
  return mPersistentSystemData.Initialize();
 800885a:	4620      	mov	r0, r4
 800885c:	f000 fc4c 	bl	80090f8 <_ZN20PersistentSystemData10InitializeEv>
 8008860:	e7ea      	b.n	8008838 <_ZN14PersistentData12FactoryResetEv+0x14>
 8008862:	bf00      	nop
 8008864:	200003f4 	.word	0x200003f4

08008868 <_ZN14PersistentData21resetPersistentMemoryEb>:
{
 8008868:	b570      	push	{r4, r5, r6, lr}
 800886a:	b082      	sub	sp, #8
 800886c:	4605      	mov	r5, r0
 800886e:	460c      	mov	r4, r1
    if (mSingelton == NULL)
 8008870:	4b1d      	ldr	r3, [pc, #116]	@ (80088e8 <_ZN14PersistentData21resetPersistentMemoryEb+0x80>)
 8008872:	681b      	ldr	r3, [r3, #0]
 8008874:	b133      	cbz	r3, 8008884 <_ZN14PersistentData21resetPersistentMemoryEb+0x1c>
	if (!HardwareCenter::GetInstance().ins.WP_MCU)
 8008876:	4b1c      	ldr	r3, [pc, #112]	@ (80088e8 <_ZN14PersistentData21resetPersistentMemoryEb+0x80>)
 8008878:	681b      	ldr	r3, [r3, #0]
 800887a:	f893 003f 	ldrb.w	r0, [r3, #63]	@ 0x3f
 800887e:	b958      	cbnz	r0, 8008898 <_ZN14PersistentData21resetPersistentMemoryEb+0x30>
}
 8008880:	b002      	add	sp, #8
 8008882:	bd70      	pop	{r4, r5, r6, pc}
      mSingelton = new HardwareCenter;
 8008884:	f44f 702e 	mov.w	r0, #696	@ 0x2b8
 8008888:	f003 fb36 	bl	800bef8 <_Znwj>
 800888c:	4606      	mov	r6, r0
 800888e:	f7fb fbf3 	bl	8004078 <_ZN14HardwareCenterC1Ev>
 8008892:	4b15      	ldr	r3, [pc, #84]	@ (80088e8 <_ZN14PersistentData21resetPersistentMemoryEb+0x80>)
 8008894:	601e      	str	r6, [r3, #0]
 8008896:	e7ee      	b.n	8008876 <_ZN14PersistentData21resetPersistentMemoryEb+0xe>
  if (mPersistentSystemData.Initialize() == ERROR)
 8008898:	f105 0010 	add.w	r0, r5, #16
 800889c:	f000 fc2c 	bl	80090f8 <_ZN20PersistentSystemData10InitializeEv>
 80088a0:	2800      	cmp	r0, #0
 80088a2:	d0ed      	beq.n	8008880 <_ZN14PersistentData21resetPersistentMemoryEb+0x18>
  if (!resetAll)
 80088a4:	b1ec      	cbz	r4, 80088e2 <_ZN14PersistentData21resetPersistentMemoryEb+0x7a>
    FlashUnlock unlocker;
 80088a6:	a801      	add	r0, sp, #4
 80088a8:	f7ff fd1c 	bl	80082e4 <_ZN11FlashUnlockC1Ev>
    if (FLASH_ErasePage(addr) != FLASH_COMPLETE) {
 80088ac:	480f      	ldr	r0, [pc, #60]	@ (80088ec <_ZN14PersistentData21resetPersistentMemoryEb+0x84>)
 80088ae:	f002 fb77 	bl	800afa0 <FLASH_ErasePage>
 80088b2:	2804      	cmp	r0, #4
 80088b4:	d10f      	bne.n	80088d6 <_ZN14PersistentData21resetPersistentMemoryEb+0x6e>
  }
 80088b6:	a801      	add	r0, sp, #4
 80088b8:	f7ff fd28 	bl	800830c <_ZN11FlashUnlockD1Ev>
    FlashUnlock unlocker;
 80088bc:	a801      	add	r0, sp, #4
 80088be:	f7ff fd11 	bl	80082e4 <_ZN11FlashUnlockC1Ev>
    if (FLASH_ErasePage(addr) != FLASH_COMPLETE) {
 80088c2:	480b      	ldr	r0, [pc, #44]	@ (80088f0 <_ZN14PersistentData21resetPersistentMemoryEb+0x88>)
 80088c4:	f002 fb6c 	bl	800afa0 <FLASH_ErasePage>
 80088c8:	2804      	cmp	r0, #4
 80088ca:	d107      	bne.n	80088dc <_ZN14PersistentData21resetPersistentMemoryEb+0x74>
  }
 80088cc:	a801      	add	r0, sp, #4
 80088ce:	f7ff fd1d 	bl	800830c <_ZN11FlashUnlockD1Ev>
  return SUCCESS;
 80088d2:	2001      	movs	r0, #1
 80088d4:	e7d4      	b.n	8008880 <_ZN14PersistentData21resetPersistentMemoryEb+0x18>
      enterLiveLoop();
 80088d6:	f7ff fd25 	bl	8008324 <enterLiveLoop>
 80088da:	e7ec      	b.n	80088b6 <_ZN14PersistentData21resetPersistentMemoryEb+0x4e>
 80088dc:	f7ff fd22 	bl	8008324 <enterLiveLoop>
 80088e0:	e7f4      	b.n	80088cc <_ZN14PersistentData21resetPersistentMemoryEb+0x64>
    return SUCCESS;
 80088e2:	2001      	movs	r0, #1
 80088e4:	e7cc      	b.n	8008880 <_ZN14PersistentData21resetPersistentMemoryEb+0x18>
 80088e6:	bf00      	nop
 80088e8:	200003f4 	.word	0x200003f4
 80088ec:	08001000 	.word	0x08001000
 80088f0:	08001800 	.word	0x08001800

080088f4 <_ZN14PersistentDataC1ERh>:
PersistentData::PersistentData(uint8_t& Address) :
 80088f4:	b538      	push	{r3, r4, r5, lr}
 80088f6:	4604      	mov	r4, r0
 80088f8:	460d      	mov	r5, r1
	mPersistentSystemData(Address)
 80088fa:	4b08      	ldr	r3, [pc, #32]	@ (800891c <_ZN14PersistentDataC1ERh+0x28>)
 80088fc:	f840 3b04 	str.w	r3, [r0], #4
 8008900:	f000 fdfa 	bl	80094f8 <_ZN21PersistentSystemStatsC1Ev>
	mMacAddr(),
 8008904:	f104 0008 	add.w	r0, r4, #8
 8008908:	f7fd fdcc 	bl	80064a4 <_ZN7MACAddrC1Ev>
	mPersistentSystemData(Address)
 800890c:	4629      	mov	r1, r5
 800890e:	f104 0010 	add.w	r0, r4, #16
 8008912:	f000 f957 	bl	8008bc4 <_ZN20PersistentSystemDataC1ERh>
}
 8008916:	4620      	mov	r0, r4
 8008918:	bd38      	pop	{r3, r4, r5, pc}
 800891a:	bf00      	nop
 800891c:	0800c924 	.word	0x0800c924

08008920 <_ZN14PersistentData25writePersistentStaticDataEiPKci>:
{
 8008920:	e92d 47f0 	stmdb	sp!, {r4, r5, r6, r7, r8, r9, sl, lr}
 8008924:	b082      	sub	sp, #8
 8008926:	460d      	mov	r5, r1
 8008928:	4616      	mov	r6, r2
 800892a:	4699      	mov	r9, r3
  FlashUnlock unlocker;
 800892c:	a801      	add	r0, sp, #4
 800892e:	f7ff fcd9 	bl	80082e4 <_ZN11FlashUnlockC1Ev>
  if ((offset < 0) || (dataLen < 0) || ((uint32_t)(offset + dataLen) > FLASH_BLOCK_SIZE)) {
 8008932:	ea55 0309 	orrs.w	r3, r5, r9
 8008936:	d404      	bmi.n	8008942 <_ZN14PersistentData25writePersistentStaticDataEiPKci+0x22>
 8008938:	eb05 0309 	add.w	r3, r5, r9
 800893c:	f5b3 6f00 	cmp.w	r3, #2048	@ 0x800
 8008940:	d901      	bls.n	8008946 <_ZN14PersistentData25writePersistentStaticDataEiPKci+0x26>
    enterLiveLoop();
 8008942:	f7ff fcef 	bl	8008324 <enterLiveLoop>
  for (i=0; i<dataLen-1; i+=2) {
 8008946:	f1b9 0f01 	cmp.w	r9, #1
 800894a:	dd22      	ble.n	8008992 <_ZN14PersistentData25writePersistentStaticDataEiPKci+0x72>
 800894c:	1eb4      	subs	r4, r6, #2
 800894e:	f1a9 0a02 	sub.w	sl, r9, #2
 8008952:	f02a 0701 	bic.w	r7, sl, #1
 8008956:	4437      	add	r7, r6
    if (FLASH_ProgramHalfWord(baseAddrA+i, thisWord) != FLASH_COMPLETE)
 8008958:	f8df 8054 	ldr.w	r8, [pc, #84]	@ 80089b0 <_ZN14PersistentData25writePersistentStaticDataEiPKci+0x90>
 800895c:	e001      	b.n	8008962 <_ZN14PersistentData25writePersistentStaticDataEiPKci+0x42>
  for (i=0; i<dataLen-1; i+=2) {
 800895e:	42bc      	cmp	r4, r7
 8008960:	d00c      	beq.n	800897c <_ZN14PersistentData25writePersistentStaticDataEiPKci+0x5c>
    uint16_t thisWord = *(uint16_t*)(data + i);
 8008962:	4620      	mov	r0, r4
    if (FLASH_ProgramHalfWord(baseAddrA+i, thisWord) != FLASH_COMPLETE)
 8008964:	4440      	add	r0, r8
 8008966:	1b80      	subs	r0, r0, r6
 8008968:	f834 1f02 	ldrh.w	r1, [r4, #2]!
 800896c:	4428      	add	r0, r5
 800896e:	f002 fb99 	bl	800b0a4 <FLASH_ProgramHalfWord>
 8008972:	2804      	cmp	r0, #4
 8008974:	d0f3      	beq.n	800895e <_ZN14PersistentData25writePersistentStaticDataEiPKci+0x3e>
      enterLiveLoop();
 8008976:	f7ff fcd5 	bl	8008324 <enterLiveLoop>
 800897a:	e7f0      	b.n	800895e <_ZN14PersistentData25writePersistentStaticDataEiPKci+0x3e>
  for (i=0; i<dataLen-1; i+=2) {
 800897c:	f02a 0001 	bic.w	r0, sl, #1
 8008980:	3002      	adds	r0, #2
  if (i < dataLen) {
 8008982:	4581      	cmp	r9, r0
 8008984:	dc07      	bgt.n	8008996 <_ZN14PersistentData25writePersistentStaticDataEiPKci+0x76>
}
 8008986:	a801      	add	r0, sp, #4
 8008988:	f7ff fcc0 	bl	800830c <_ZN11FlashUnlockD1Ev>
 800898c:	b002      	add	sp, #8
 800898e:	e8bd 87f0 	ldmia.w	sp!, {r4, r5, r6, r7, r8, r9, sl, pc}
  for (i=0; i<dataLen-1; i+=2) {
 8008992:	2000      	movs	r0, #0
 8008994:	e7f5      	b.n	8008982 <_ZN14PersistentData25writePersistentStaticDataEiPKci+0x62>
  const uint32_t baseAddrA = PERSISTENT_BLOCK_BASE(PERSISTENT_DATA_STATIC_BLOCK_A) + offset;
 8008996:	f105 6500 	add.w	r5, r5, #134217728	@ 0x8000000
 800899a:	f505 5580 	add.w	r5, r5, #4096	@ 0x1000
    if (FLASH_ProgramHalfWord(baseAddrA+i, thisWord) != FLASH_COMPLETE)        
 800899e:	5c31      	ldrb	r1, [r6, r0]
 80089a0:	4428      	add	r0, r5
 80089a2:	f002 fb7f 	bl	800b0a4 <FLASH_ProgramHalfWord>
 80089a6:	2804      	cmp	r0, #4
 80089a8:	d0ed      	beq.n	8008986 <_ZN14PersistentData25writePersistentStaticDataEiPKci+0x66>
      enterLiveLoop();
 80089aa:	f7ff fcbb 	bl	8008324 <enterLiveLoop>
 80089ae:	e7ea      	b.n	8008986 <_ZN14PersistentData25writePersistentStaticDataEiPKci+0x66>
 80089b0:	08001002 	.word	0x08001002

080089b4 <_ZN14PersistentData15setSerialNumberEPKc>:
{
 80089b4:	b570      	push	{r4, r5, r6, lr}
 80089b6:	b088      	sub	sp, #32
 80089b8:	4604      	mov	r4, r0
 80089ba:	460d      	mov	r5, r1
    if (mSingelton == NULL)
 80089bc:	4b19      	ldr	r3, [pc, #100]	@ (8008a24 <_ZN14PersistentData15setSerialNumberEPKc+0x70>)
 80089be:	681b      	ldr	r3, [r3, #0]
 80089c0:	b1fb      	cbz	r3, 8008a02 <_ZN14PersistentData15setSerialNumberEPKc+0x4e>
	if (!HardwareCenter::GetInstance().ins.WP_MCU)
 80089c2:	4b18      	ldr	r3, [pc, #96]	@ (8008a24 <_ZN14PersistentData15setSerialNumberEPKc+0x70>)
 80089c4:	681b      	ldr	r3, [r3, #0]
 80089c6:	f893 303f 	ldrb.w	r3, [r3, #63]	@ 0x3f
 80089ca:	b323      	cbz	r3, 8008a16 <_ZN14PersistentData15setSerialNumberEPKc+0x62>
  memset(tempString, 0xFF, 0x20);
 80089cc:	2220      	movs	r2, #32
 80089ce:	21ff      	movs	r1, #255	@ 0xff
 80089d0:	4668      	mov	r0, sp
 80089d2:	f003 fb79 	bl	800c0c8 <memset>
  if (memcmp( getSerialNumber() , tempString, 0x20) != 0) return -1;
 80089d6:	6823      	ldr	r3, [r4, #0]
 80089d8:	695b      	ldr	r3, [r3, #20]
 80089da:	4620      	mov	r0, r4
 80089dc:	4798      	blx	r3
 80089de:	2220      	movs	r2, #32
 80089e0:	4669      	mov	r1, sp
 80089e2:	f003 fb61 	bl	800c0a8 <memcmp>
 80089e6:	4606      	mov	r6, r0
 80089e8:	b9c0      	cbnz	r0, 8008a1c <_ZN14PersistentData15setSerialNumberEPKc+0x68>
  writePersistentStaticData(SN_OFFSET, SN, strlen(SN)+1);
 80089ea:	4628      	mov	r0, r5
 80089ec:	f7f9 fbe4 	bl	80021b8 <strlen>
 80089f0:	1c43      	adds	r3, r0, #1
 80089f2:	462a      	mov	r2, r5
 80089f4:	2180      	movs	r1, #128	@ 0x80
 80089f6:	4620      	mov	r0, r4
 80089f8:	f7ff ff92 	bl	8008920 <_ZN14PersistentData25writePersistentStaticDataEiPKci>
}
 80089fc:	4630      	mov	r0, r6
 80089fe:	b008      	add	sp, #32
 8008a00:	bd70      	pop	{r4, r5, r6, pc}
      mSingelton = new HardwareCenter;
 8008a02:	f44f 702e 	mov.w	r0, #696	@ 0x2b8
 8008a06:	f003 fa77 	bl	800bef8 <_Znwj>
 8008a0a:	4606      	mov	r6, r0
 8008a0c:	f7fb fb34 	bl	8004078 <_ZN14HardwareCenterC1Ev>
 8008a10:	4b04      	ldr	r3, [pc, #16]	@ (8008a24 <_ZN14PersistentData15setSerialNumberEPKc+0x70>)
 8008a12:	601e      	str	r6, [r3, #0]
 8008a14:	e7d5      	b.n	80089c2 <_ZN14PersistentData15setSerialNumberEPKc+0xe>
		return -1;
 8008a16:	f04f 36ff 	mov.w	r6, #4294967295
 8008a1a:	e7ef      	b.n	80089fc <_ZN14PersistentData15setSerialNumberEPKc+0x48>
  if (memcmp( getSerialNumber() , tempString, 0x20) != 0) return -1;
 8008a1c:	f04f 36ff 	mov.w	r6, #4294967295
 8008a20:	e7ec      	b.n	80089fc <_ZN14PersistentData15setSerialNumberEPKc+0x48>
 8008a22:	bf00      	nop
 8008a24:	200003f4 	.word	0x200003f4

08008a28 <_ZN14PersistentData19initializeStaticMemEv>:
{
 8008a28:	b570      	push	{r4, r5, r6, lr}
 8008a2a:	b088      	sub	sp, #32
 8008a2c:	4605      	mov	r5, r0
  memset(tempString, 0, 0x20);
 8008a2e:	2620      	movs	r6, #32
 8008a30:	4632      	mov	r2, r6
 8008a32:	2100      	movs	r1, #0
 8008a34:	4668      	mov	r0, sp
 8008a36:	f003 fb47 	bl	800c0c8 <memset>
  memcpy (tempString, (char*)0x1FFFF7E9, 12);
 8008a3a:	4a14      	ldr	r2, [pc, #80]	@ (8008a8c <_ZN14PersistentData19initializeStaticMemEv+0x64>)
 8008a3c:	466b      	mov	r3, sp
 8008a3e:	f8d2 00e9 	ldr.w	r0, [r2, #233]	@ 0xe9
 8008a42:	f8d2 10ed 	ldr.w	r1, [r2, #237]	@ 0xed
 8008a46:	f8d2 20f1 	ldr.w	r2, [r2, #241]	@ 0xf1
 8008a4a:	c307      	stmia	r3!, {r0, r1, r2}
  writePersistentStaticData(CHIP_ID_OFFSET, tempString, 0x20);
 8008a4c:	4633      	mov	r3, r6
 8008a4e:	466a      	mov	r2, sp
 8008a50:	4631      	mov	r1, r6
 8008a52:	4628      	mov	r0, r5
 8008a54:	f7ff ff64 	bl	8008920 <_ZN14PersistentData25writePersistentStaticDataEiPKci>
  memset(tempString, 0, 0x20);
 8008a58:	2300      	movs	r3, #0
 8008a5a:	f8cd 3015 	str.w	r3, [sp, #21]
 8008a5e:	f8cd 3019 	str.w	r3, [sp, #25]
 8008a62:	9307      	str	r3, [sp, #28]
  strcpy (tempString, PERSISTENT_VERSION);
 8008a64:	46ec      	mov	ip, sp
 8008a66:	4c0a      	ldr	r4, [pc, #40]	@ (8008a90 <_ZN14PersistentData19initializeStaticMemEv+0x68>)
 8008a68:	cc0f      	ldmia	r4!, {r0, r1, r2, r3}
 8008a6a:	e8ac 000f 	stmia.w	ip!, {r0, r1, r2, r3}
 8008a6e:	e894 0003 	ldmia.w	r4, {r0, r1}
 8008a72:	f84c 0b04 	str.w	r0, [ip], #4
 8008a76:	f88c 1000 	strb.w	r1, [ip]
  writePersistentStaticData(VERSION_OFFSET, tempString, 0x20);
 8008a7a:	4633      	mov	r3, r6
 8008a7c:	466a      	mov	r2, sp
 8008a7e:	2140      	movs	r1, #64	@ 0x40
 8008a80:	4628      	mov	r0, r5
 8008a82:	f7ff ff4d 	bl	8008920 <_ZN14PersistentData25writePersistentStaticDataEiPKci>
}
 8008a86:	b008      	add	sp, #32
 8008a88:	bd70      	pop	{r4, r5, r6, pc}
 8008a8a:	bf00      	nop
 8008a8c:	1ffff700 	.word	0x1ffff700
 8008a90:	0800c8e8 	.word	0x0800c8e8

08008a94 <_ZN14PersistentData18initPersistentDataEv>:
{
 8008a94:	b530      	push	{r4, r5, lr}
 8008a96:	b089      	sub	sp, #36	@ 0x24
 8008a98:	4604      	mov	r4, r0
    if (mSingelton == NULL)
 8008a9a:	4b1d      	ldr	r3, [pc, #116]	@ (8008b10 <_ZN14PersistentData18initPersistentDataEv+0x7c>)
 8008a9c:	681b      	ldr	r3, [r3, #0]
 8008a9e:	b363      	cbz	r3, 8008afa <_ZN14PersistentData18initPersistentDataEv+0x66>
	if (!HardwareCenter::GetInstance().ins.WP_MCU)
 8008aa0:	4b1b      	ldr	r3, [pc, #108]	@ (8008b10 <_ZN14PersistentData18initPersistentDataEv+0x7c>)
 8008aa2:	681b      	ldr	r3, [r3, #0]
 8008aa4:	f893 303f 	ldrb.w	r3, [r3, #63]	@ 0x3f
 8008aa8:	b32b      	cbz	r3, 8008af6 <_ZN14PersistentData18initPersistentDataEv+0x62>
  resetPersistentMemory();
 8008aaa:	6823      	ldr	r3, [r4, #0]
 8008aac:	681b      	ldr	r3, [r3, #0]
 8008aae:	2101      	movs	r1, #1
 8008ab0:	4620      	mov	r0, r4
 8008ab2:	4798      	blx	r3
  initializeStaticMem();
 8008ab4:	4620      	mov	r0, r4
 8008ab6:	f7ff ffb7 	bl	8008a28 <_ZN14PersistentData19initializeStaticMemEv>
  memset(tempString, 0, 0x20);
 8008aba:	f04f 0e00 	mov.w	lr, #0
 8008abe:	f8cd e00f 	str.w	lr, [sp, #15]
 8008ac2:	f8cd e013 	str.w	lr, [sp, #19]
 8008ac6:	f8cd e017 	str.w	lr, [sp, #23]
 8008aca:	f8cd e01b 	str.w	lr, [sp, #27]
 8008ace:	f88d e01f 	strb.w	lr, [sp, #31]
  strcpy (tempString, PERSISTENT_MAGIC_NUM);
 8008ad2:	4b10      	ldr	r3, [pc, #64]	@ (8008b14 <_ZN14PersistentData18initPersistentDataEv+0x80>)
 8008ad4:	46ec      	mov	ip, sp
 8008ad6:	cb0f      	ldmia	r3, {r0, r1, r2, r3}
 8008ad8:	e8ac 0007 	stmia.w	ip!, {r0, r1, r2}
 8008adc:	f82c 3b02 	strh.w	r3, [ip], #2
 8008ae0:	0c1b      	lsrs	r3, r3, #16
 8008ae2:	f88c 3000 	strb.w	r3, [ip]
  writePersistentStaticData(MAGIC_NUM_OFFSET, tempString, 0x20);
 8008ae6:	2320      	movs	r3, #32
 8008ae8:	466a      	mov	r2, sp
 8008aea:	4671      	mov	r1, lr
 8008aec:	4620      	mov	r0, r4
 8008aee:	f7ff ff17 	bl	8008920 <_ZN14PersistentData25writePersistentStaticDataEiPKci>
  systemResetNoStats();
 8008af2:	f001 fe9d 	bl	800a830 <systemResetNoStats>
}
 8008af6:	b009      	add	sp, #36	@ 0x24
 8008af8:	bd30      	pop	{r4, r5, pc}
      mSingelton = new HardwareCenter;
 8008afa:	f44f 702e 	mov.w	r0, #696	@ 0x2b8
 8008afe:	f003 f9fb 	bl	800bef8 <_Znwj>
 8008b02:	4605      	mov	r5, r0
 8008b04:	f7fb fab8 	bl	8004078 <_ZN14HardwareCenterC1Ev>
 8008b08:	4b01      	ldr	r3, [pc, #4]	@ (8008b10 <_ZN14PersistentData18initPersistentDataEv+0x7c>)
 8008b0a:	601d      	str	r5, [r3, #0]
 8008b0c:	e7c8      	b.n	8008aa0 <_ZN14PersistentData18initPersistentDataEv+0xc>
 8008b0e:	bf00      	nop
 8008b10:	200003f4 	.word	0x200003f4
 8008b14:	0800c900 	.word	0x0800c900

08008b18 <_ZN14PersistentData10setMacAddrEPc>:
{
 8008b18:	b538      	push	{r3, r4, r5, lr}
 8008b1a:	460c      	mov	r4, r1
    wait(1000);
 8008b1c:	f44f 757a 	mov.w	r5, #1000	@ 0x3e8
  while (getMacAddress(buffer) != 0) {
 8008b20:	e002      	b.n	8008b28 <_ZN14PersistentData10setMacAddrEPc+0x10>
    wait(1000);
 8008b22:	4628      	mov	r0, r5
 8008b24:	f001 fc3c 	bl	800a3a0 <wait>
  while (getMacAddress(buffer) != 0) {
 8008b28:	4620      	mov	r0, r4
 8008b2a:	f001 fa79 	bl	800a020 <getMacAddress>
 8008b2e:	2800      	cmp	r0, #0
 8008b30:	d1f7      	bne.n	8008b22 <_ZN14PersistentData10setMacAddrEPc+0xa>
}
 8008b32:	bd38      	pop	{r3, r4, r5, pc}

08008b34 <_ZN14PersistentData18loadPersistentDataEv>:
{
 8008b34:	b570      	push	{r4, r5, r6, lr}
 8008b36:	b084      	sub	sp, #16
 8008b38:	4604      	mov	r4, r0
  int firstInit = strcmp(staticSection, PERSISTENT_MAGIC_NUM);
 8008b3a:	491b      	ldr	r1, [pc, #108]	@ (8008ba8 <_ZN14PersistentData18loadPersistentDataEv+0x74>)
 8008b3c:	481b      	ldr	r0, [pc, #108]	@ (8008bac <_ZN14PersistentData18loadPersistentDataEv+0x78>)
 8008b3e:	f7f9 fb31 	bl	80021a4 <strcmp>
  if (firstInit) {
 8008b42:	b9a8      	cbnz	r0, 8008b70 <_ZN14PersistentData18loadPersistentDataEv+0x3c>
  if (mPersistentSystemData.CheckMemory() == ERROR && HardwareCenter::GetInstance().ins.WP_MCU)
 8008b44:	f104 0510 	add.w	r5, r4, #16
 8008b48:	4628      	mov	r0, r5
 8008b4a:	f000 fa73 	bl	8009034 <_ZN20PersistentSystemData11CheckMemoryEv>
 8008b4e:	b198      	cbz	r0, 8008b78 <_ZN14PersistentData18loadPersistentDataEv+0x44>
  setMacAddr(mac_address);
 8008b50:	4669      	mov	r1, sp
 8008b52:	4620      	mov	r0, r4
 8008b54:	f7ff ffe0 	bl	8008b18 <_ZN14PersistentData10setMacAddrEPc>
  mMacAddr = MACAddr(mac_address);
 8008b58:	ad02      	add	r5, sp, #8
 8008b5a:	4669      	mov	r1, sp
 8008b5c:	4628      	mov	r0, r5
 8008b5e:	f7fd fcad 	bl	80064bc <_ZN7MACAddrC1EPKc>
 8008b62:	3408      	adds	r4, #8
 8008b64:	e895 0003 	ldmia.w	r5, {r0, r1}
 8008b68:	e884 0003 	stmia.w	r4, {r0, r1}
}
 8008b6c:	b004      	add	sp, #16
 8008b6e:	bd70      	pop	{r4, r5, r6, pc}
    initPersistentData();
 8008b70:	4620      	mov	r0, r4
 8008b72:	f7ff ff8f 	bl	8008a94 <_ZN14PersistentData18initPersistentDataEv>
 8008b76:	e7e5      	b.n	8008b44 <_ZN14PersistentData18loadPersistentDataEv+0x10>
    if (mSingelton == NULL)
 8008b78:	4b0d      	ldr	r3, [pc, #52]	@ (8008bb0 <_ZN14PersistentData18loadPersistentDataEv+0x7c>)
 8008b7a:	681b      	ldr	r3, [r3, #0]
 8008b7c:	b14b      	cbz	r3, 8008b92 <_ZN14PersistentData18loadPersistentDataEv+0x5e>
  if (mPersistentSystemData.CheckMemory() == ERROR && HardwareCenter::GetInstance().ins.WP_MCU)
 8008b7e:	4b0c      	ldr	r3, [pc, #48]	@ (8008bb0 <_ZN14PersistentData18loadPersistentDataEv+0x7c>)
 8008b80:	681b      	ldr	r3, [r3, #0]
 8008b82:	f893 303f 	ldrb.w	r3, [r3, #63]	@ 0x3f
 8008b86:	2b00      	cmp	r3, #0
 8008b88:	d0e2      	beq.n	8008b50 <_ZN14PersistentData18loadPersistentDataEv+0x1c>
    mPersistentSystemData.Initialize();
 8008b8a:	4628      	mov	r0, r5
 8008b8c:	f000 fab4 	bl	80090f8 <_ZN20PersistentSystemData10InitializeEv>
 8008b90:	e7de      	b.n	8008b50 <_ZN14PersistentData18loadPersistentDataEv+0x1c>
      mSingelton = new HardwareCenter;
 8008b92:	f44f 702e 	mov.w	r0, #696	@ 0x2b8
 8008b96:	f003 f9af 	bl	800bef8 <_Znwj>
 8008b9a:	4606      	mov	r6, r0
 8008b9c:	f7fb fa6c 	bl	8004078 <_ZN14HardwareCenterC1Ev>
 8008ba0:	4b03      	ldr	r3, [pc, #12]	@ (8008bb0 <_ZN14PersistentData18loadPersistentDataEv+0x7c>)
 8008ba2:	601e      	str	r6, [r3, #0]
 8008ba4:	e7eb      	b.n	8008b7e <_ZN14PersistentData18loadPersistentDataEv+0x4a>
 8008ba6:	bf00      	nop
 8008ba8:	0800c900 	.word	0x0800c900
 8008bac:	08001000 	.word	0x08001000
 8008bb0:	200003f4 	.word	0x200003f4

08008bb4 <_ZN20PersistentSystemData22Get_OutputLinkSettingsEv>:
// **********************************************************************
// **********************************************************************

const OutLinkDCI_t* PersistentSystemData::Get_OutputLinkSettings()
{
  SystemSettings_t *pSettings = GET_CONFIG_ADDRESS(Address);
 8008bb4:	6883      	ldr	r3, [r0, #8]
 8008bb6:	781b      	ldrb	r3, [r3, #0]
 8008bb8:	02db      	lsls	r3, r3, #11
  return pSettings->OutLinkDCI;
}
 8008bba:	4801      	ldr	r0, [pc, #4]	@ (8008bc0 <_ZN20PersistentSystemData22Get_OutputLinkSettingsEv+0xc>)
 8008bbc:	4418      	add	r0, r3
 8008bbe:	4770      	bx	lr
 8008bc0:	08030083 	.word	0x08030083

08008bc4 <_ZN20PersistentSystemDataC1ERh>:

PersistentSystemData::PersistentSystemData(uint8_t& Address) : MemoryOk(ErrorStatus::ERROR), Address(Address)
 8008bc4:	4a02      	ldr	r2, [pc, #8]	@ (8008bd0 <_ZN20PersistentSystemDataC1ERh+0xc>)
 8008bc6:	6002      	str	r2, [r0, #0]
 8008bc8:	2200      	movs	r2, #0
 8008bca:	7102      	strb	r2, [r0, #4]
 8008bcc:	6081      	str	r1, [r0, #8]
{
}
 8008bce:	4770      	bx	lr
 8008bd0:	0800c918 	.word	0x0800c918

08008bd4 <_ZN20PersistentSystemData14handleSetMacroER6Buffer>:

COMMAND_SUCCESS PersistentSystemData::handleSetMacro(Buffer& DataIn)
{
 8008bd4:	b5f0      	push	{r4, r5, r6, r7, lr}
 8008bd6:	b083      	sub	sp, #12
 8008bd8:	460e      	mov	r6, r1
  uint32_t addr;
  FlashUnlock unlocker;
 8008bda:	a801      	add	r0, sp, #4
 8008bdc:	f7ff fb82 	bl	80082e4 <_ZN11FlashUnlockC1Ev>
  uint16_t len = DataIn.readShort()-3;
 8008be0:	4630      	mov	r0, r6
 8008be2:	f7fc f9b3 	bl	8004f4c <_ZN6Buffer9readShortEv>
 8008be6:	4604      	mov	r4, r0
  addr = (uint32_t)GET_MACRO_ADDRESS(DataIn.readChar());
 8008be8:	4630      	mov	r0, r6
 8008bea:	f7fc f995 	bl	8004f18 <_ZN6Buffer8readCharEv>
 8008bee:	f500 3580 	add.w	r5, r0, #65536	@ 0x10000
 8008bf2:	3570      	adds	r5, #112	@ 0x70
 8008bf4:	02ed      	lsls	r5, r5, #11
  if (FLASH_ErasePage(addr) != FLASH_COMPLETE) {
 8008bf6:	4628      	mov	r0, r5
 8008bf8:	f002 f9d2 	bl	800afa0 <FLASH_ErasePage>
 8008bfc:	2804      	cmp	r0, #4
 8008bfe:	d139      	bne.n	8008c74 <_ZN20PersistentSystemData14handleSetMacroER6Buffer+0xa0>
  uint16_t len = DataIn.readShort()-3;
 8008c00:	3c03      	subs	r4, #3
 8008c02:	b2a4      	uxth	r4, r4
    return EEPROM_ERROR;
  }
  uint32_t Block = 0xFFFF;
 8008c04:	f64f 73ff 	movw	r3, #65535	@ 0xffff
 8008c08:	9300      	str	r3, [sp, #0]
  while (DataIn.readBlock((char *)&Block,2) == 2 && len >1)
 8008c0a:	2702      	movs	r7, #2
 8008c0c:	e006      	b.n	8008c1c <_ZN20PersistentSystemData14handleSetMacroER6Buffer+0x48>
  {
   if (FLASH_ProgramHalfWord(addr, Block) != FLASH_COMPLETE)
     return EEPROM_ERROR;
    addr+=2;
 8008c0e:	3502      	adds	r5, #2
    DataIn.advanceRead(2);
 8008c10:	4639      	mov	r1, r7
 8008c12:	4630      	mov	r0, r6
 8008c14:	f7fc fa52 	bl	80050bc <_ZN6Buffer11advanceReadEj>
    len-=2;
 8008c18:	3c02      	subs	r4, #2
 8008c1a:	b2a4      	uxth	r4, r4
  while (DataIn.readBlock((char *)&Block,2) == 2 && len >1)
 8008c1c:	463a      	mov	r2, r7
 8008c1e:	4669      	mov	r1, sp
 8008c20:	4630      	mov	r0, r6
 8008c22:	f7fc fa45 	bl	80050b0 <_ZNK6Buffer9readBlockEPcj>
 8008c26:	2802      	cmp	r0, #2
 8008c28:	d10a      	bne.n	8008c40 <_ZN20PersistentSystemData14handleSetMacroER6Buffer+0x6c>
 8008c2a:	2c01      	cmp	r4, #1
 8008c2c:	d908      	bls.n	8008c40 <_ZN20PersistentSystemData14handleSetMacroER6Buffer+0x6c>
   if (FLASH_ProgramHalfWord(addr, Block) != FLASH_COMPLETE)
 8008c2e:	f8bd 1000 	ldrh.w	r1, [sp]
 8008c32:	4628      	mov	r0, r5
 8008c34:	f002 fa36 	bl	800b0a4 <FLASH_ProgramHalfWord>
 8008c38:	2804      	cmp	r0, #4
 8008c3a:	d0e8      	beq.n	8008c0e <_ZN20PersistentSystemData14handleSetMacroER6Buffer+0x3a>
     return EEPROM_ERROR;
 8008c3c:	2402      	movs	r4, #2
 8008c3e:	e01a      	b.n	8008c76 <_ZN20PersistentSystemData14handleSetMacroER6Buffer+0xa2>
  }
  if (DataIn.getDataSize() == 1 && len == 1)
 8008c40:	4630      	mov	r0, r6
 8008c42:	f7fc f8ea 	bl	8004e1a <_ZNK6Buffer11getDataSizeEv>
 8008c46:	2801      	cmp	r0, #1
 8008c48:	d001      	beq.n	8008c4e <_ZN20PersistentSystemData14handleSetMacroER6Buffer+0x7a>
  {
    Block = 0xFF00 | DataIn.readChar();
    if (FLASH_ProgramHalfWord(addr, Block) != FLASH_COMPLETE)
      return EEPROM_ERROR;
  }
  return COMMAND_SUCCESS::ACK;
 8008c4a:	2400      	movs	r4, #0
 8008c4c:	e013      	b.n	8008c76 <_ZN20PersistentSystemData14handleSetMacroER6Buffer+0xa2>
  if (DataIn.getDataSize() == 1 && len == 1)
 8008c4e:	2c01      	cmp	r4, #1
 8008c50:	d001      	beq.n	8008c56 <_ZN20PersistentSystemData14handleSetMacroER6Buffer+0x82>
  return COMMAND_SUCCESS::ACK;
 8008c52:	2400      	movs	r4, #0
 8008c54:	e00f      	b.n	8008c76 <_ZN20PersistentSystemData14handleSetMacroER6Buffer+0xa2>
    Block = 0xFF00 | DataIn.readChar();
 8008c56:	4630      	mov	r0, r6
 8008c58:	f7fc f95e 	bl	8004f18 <_ZN6Buffer8readCharEv>
 8008c5c:	f440 417f 	orr.w	r1, r0, #65280	@ 0xff00
 8008c60:	9100      	str	r1, [sp, #0]
    if (FLASH_ProgramHalfWord(addr, Block) != FLASH_COMPLETE)
 8008c62:	b289      	uxth	r1, r1
 8008c64:	4628      	mov	r0, r5
 8008c66:	f002 fa1d 	bl	800b0a4 <FLASH_ProgramHalfWord>
 8008c6a:	1f04      	subs	r4, r0, #4
 8008c6c:	bf18      	it	ne
 8008c6e:	2401      	movne	r4, #1
 8008c70:	0064      	lsls	r4, r4, #1
 8008c72:	e000      	b.n	8008c76 <_ZN20PersistentSystemData14handleSetMacroER6Buffer+0xa2>
    return EEPROM_ERROR;
 8008c74:	2402      	movs	r4, #2
}
 8008c76:	a801      	add	r0, sp, #4
 8008c78:	f7ff fb48 	bl	800830c <_ZN11FlashUnlockD1Ev>
 8008c7c:	4620      	mov	r0, r4
 8008c7e:	b003      	add	sp, #12
 8008c80:	bdf0      	pop	{r4, r5, r6, r7, pc}
	...

08008c84 <_ZN20PersistentSystemData15handleSetConfigER6Buffer>:

COMMAND_SUCCESS PersistentSystemData::handleSetConfig(Buffer& DataIn)
{
 8008c84:	e92d 4ff0 	stmdb	sp!, {r4, r5, r6, r7, r8, r9, sl, fp, lr}
 8008c88:	b0c9      	sub	sp, #292	@ 0x124
 8008c8a:	460e      	mov	r6, r1
   uint32_t addr;
  FlashUnlock unlocker;
 8008c8c:	a847      	add	r0, sp, #284	@ 0x11c
 8008c8e:	f7ff fb29 	bl	80082e4 <_ZN11FlashUnlockC1Ev>
  if (DataIn.readShort() != 261)
 8008c92:	4630      	mov	r0, r6
 8008c94:	f7fc f95a 	bl	8004f4c <_ZN6Buffer9readShortEv>
 8008c98:	f240 1305 	movw	r3, #261	@ 0x105
 8008c9c:	4298      	cmp	r0, r3
 8008c9e:	d007      	beq.n	8008cb0 <_ZN20PersistentSystemData15handleSetConfigER6Buffer+0x2c>
	  return NACK;
 8008ca0:	2401      	movs	r4, #1
	  if (FLASH_ProgramHalfWord(addr, *(uint16_t *)(((uint8_t *)&set)+i) ) != FLASH_COMPLETE)
	       return EEPROM_ERROR;
	  addr+=2;
  }
  return COMMAND_SUCCESS::ACK;
}
 8008ca2:	a847      	add	r0, sp, #284	@ 0x11c
 8008ca4:	f7ff fb32 	bl	800830c <_ZN11FlashUnlockD1Ev>
 8008ca8:	4620      	mov	r0, r4
 8008caa:	b049      	add	sp, #292	@ 0x124
 8008cac:	e8bd 8ff0 	ldmia.w	sp!, {r4, r5, r6, r7, r8, r9, sl, fp, pc}
  uint8_t page = DataIn.readChar();
 8008cb0:	4630      	mov	r0, r6
 8008cb2:	f7fc f931 	bl	8004f18 <_ZN6Buffer8readCharEv>
  addr = (uint32_t)GET_CONFIG_ADDRESS(page);
 8008cb6:	b2c5      	uxtb	r5, r0
 8008cb8:	f505 3580 	add.w	r5, r5, #65536	@ 0x10000
 8008cbc:	3560      	adds	r5, #96	@ 0x60
 8008cbe:	02ed      	lsls	r5, r5, #11
  if (FLASH_ErasePage(addr) != FLASH_COMPLETE) {
 8008cc0:	4628      	mov	r0, r5
 8008cc2:	f002 f96d 	bl	800afa0 <FLASH_ErasePage>
 8008cc6:	2804      	cmp	r0, #4
 8008cc8:	d001      	beq.n	8008cce <_ZN20PersistentSystemData15handleSetConfigER6Buffer+0x4a>
    return EEPROM_ERROR;
 8008cca:	2402      	movs	r4, #2
 8008ccc:	e7e9      	b.n	8008ca2 <_ZN20PersistentSystemData15handleSetConfigER6Buffer+0x1e>
  SystemSettings_t set;
 8008cce:	ac01      	add	r4, sp, #4
 8008cd0:	f240 1215 	movw	r2, #277	@ 0x115
 8008cd4:	2100      	movs	r1, #0
 8008cd6:	4620      	mov	r0, r4
 8008cd8:	f003 f9f6 	bl	800c0c8 <memset>
 8008cdc:	4bc2      	ldr	r3, [pc, #776]	@ (8008fe8 <_ZN20PersistentSystemData15handleSetConfigER6Buffer+0x364>)
 8008cde:	6023      	str	r3, [r4, #0]
 8008ce0:	f06f 437f 	mvn.w	r3, #4278190080	@ 0xff000000
 8008ce4:	6063      	str	r3, [r4, #4]
 8008ce6:	2301      	movs	r3, #1
 8008ce8:	7223      	strb	r3, [r4, #8]
 8008cea:	f04f 0c00 	mov.w	ip, #0
 8008cee:	f06f 033f 	mvn.w	r3, #63	@ 0x3f
 8008cf2:	7263      	strb	r3, [r4, #9]
 8008cf4:	f06f 0357 	mvn.w	r3, #87	@ 0x57
 8008cf8:	72a3      	strb	r3, [r4, #10]
 8008cfa:	f884 c00b 	strb.w	ip, [r4, #11]
 8008cfe:	2377      	movs	r3, #119	@ 0x77
 8008d00:	7323      	strb	r3, [r4, #12]
 8008d02:	f04f 33ff 	mov.w	r3, #4294967295
 8008d06:	7363      	strb	r3, [r4, #13]
 8008d08:	73a3      	strb	r3, [r4, #14]
 8008d0a:	73e3      	strb	r3, [r4, #15]
 8008d0c:	f884 c010 	strb.w	ip, [r4, #16]
 8008d10:	221a      	movs	r2, #26
 8008d12:	74a2      	strb	r2, [r4, #18]
 8008d14:	f06f 0b1f 	mvn.w	fp, #31
 8008d18:	f884 b013 	strb.w	fp, [r4, #19]
 8008d1c:	f04f 0a01 	mov.w	sl, #1
 8008d20:	f884 a014 	strb.w	sl, [r4, #20]
 8008d24:	f06f 082f 	mvn.w	r8, #47	@ 0x2f
 8008d28:	f884 8015 	strb.w	r8, [r4, #21]
 8008d2c:	f04f 0907 	mov.w	r9, #7
 8008d30:	f884 9016 	strb.w	r9, [r4, #22]
 8008d34:	f06f 0017 	mvn.w	r0, #23
 8008d38:	75e0      	strb	r0, [r4, #23]
 8008d3a:	2103      	movs	r1, #3
 8008d3c:	7621      	strb	r1, [r4, #24]
 8008d3e:	7663      	strb	r3, [r4, #25]
 8008d40:	f44f 77f0 	mov.w	r7, #480	@ 0x1e0
 8008d44:	8367      	strh	r7, [r4, #26]
 8008d46:	f44f 6efa 	mov.w	lr, #2000	@ 0x7d0
 8008d4a:	f8a4 e01c 	strh.w	lr, [r4, #28]
 8008d4e:	f44f 727a 	mov.w	r2, #1000	@ 0x3e8
 8008d52:	83e2      	strh	r2, [r4, #30]
 8008d54:	f884 3020 	strb.w	r3, [r4, #32]
 8008d58:	f06f 090f 	mvn.w	r9, #15
 8008d5c:	f884 9021 	strb.w	r9, [r4, #33]	@ 0x21
 8008d60:	f884 c022 	strb.w	ip, [r4, #34]	@ 0x22
 8008d64:	f884 c023 	strb.w	ip, [r4, #35]	@ 0x23
 8008d68:	f04f 0805 	mov.w	r8, #5
 8008d6c:	f884 8024 	strb.w	r8, [r4, #36]	@ 0x24
 8008d70:	f884 0025 	strb.w	r0, [r4, #37]	@ 0x25
 8008d74:	f884 1026 	strb.w	r1, [r4, #38]	@ 0x26
 8008d78:	f884 3027 	strb.w	r3, [r4, #39]	@ 0x27
 8008d7c:	8527      	strh	r7, [r4, #40]	@ 0x28
 8008d7e:	f8a4 e02a 	strh.w	lr, [r4, #42]	@ 0x2a
 8008d82:	85a2      	strh	r2, [r4, #44]	@ 0x2c
 8008d84:	f884 302e 	strb.w	r3, [r4, #46]	@ 0x2e
 8008d88:	f884 902f 	strb.w	r9, [r4, #47]	@ 0x2f
 8008d8c:	f884 c030 	strb.w	ip, [r4, #48]	@ 0x30
 8008d90:	f884 c031 	strb.w	ip, [r4, #49]	@ 0x31
 8008d94:	f884 8032 	strb.w	r8, [r4, #50]	@ 0x32
 8008d98:	f884 0033 	strb.w	r0, [r4, #51]	@ 0x33
 8008d9c:	f884 1034 	strb.w	r1, [r4, #52]	@ 0x34
 8008da0:	f884 3035 	strb.w	r3, [r4, #53]	@ 0x35
 8008da4:	27f0      	movs	r7, #240	@ 0xf0
 8008da6:	86e7      	strh	r7, [r4, #54]	@ 0x36
 8008da8:	f44f 6ea0 	mov.w	lr, #1280	@ 0x500
 8008dac:	f8a4 e038 	strh.w	lr, [r4, #56]	@ 0x38
 8008db0:	8762      	strh	r2, [r4, #58]	@ 0x3a
 8008db2:	f884 303c 	strb.w	r3, [r4, #60]	@ 0x3c
 8008db6:	f884 903d 	strb.w	r9, [r4, #61]	@ 0x3d
 8008dba:	f884 c03e 	strb.w	ip, [r4, #62]	@ 0x3e
 8008dbe:	f884 c03f 	strb.w	ip, [r4, #63]	@ 0x3f
 8008dc2:	f884 8040 	strb.w	r8, [r4, #64]	@ 0x40
 8008dc6:	f884 0041 	strb.w	r0, [r4, #65]	@ 0x41
 8008dca:	f884 1042 	strb.w	r1, [r4, #66]	@ 0x42
 8008dce:	f884 3043 	strb.w	r3, [r4, #67]	@ 0x43
 8008dd2:	f8a4 7044 	strh.w	r7, [r4, #68]	@ 0x44
 8008dd6:	f8a4 e046 	strh.w	lr, [r4, #70]	@ 0x46
 8008dda:	f8a4 2048 	strh.w	r2, [r4, #72]	@ 0x48
 8008dde:	f884 304a 	strb.w	r3, [r4, #74]	@ 0x4a
 8008de2:	f884 904b 	strb.w	r9, [r4, #75]	@ 0x4b
 8008de6:	f884 c04c 	strb.w	ip, [r4, #76]	@ 0x4c
 8008dea:	f884 c04d 	strb.w	ip, [r4, #77]	@ 0x4d
 8008dee:	f884 804e 	strb.w	r8, [r4, #78]	@ 0x4e
 8008df2:	f884 004f 	strb.w	r0, [r4, #79]	@ 0x4f
 8008df6:	f884 1050 	strb.w	r1, [r4, #80]	@ 0x50
 8008dfa:	f884 3051 	strb.w	r3, [r4, #81]	@ 0x51
 8008dfe:	f8a4 7052 	strh.w	r7, [r4, #82]	@ 0x52
 8008e02:	f8a4 e054 	strh.w	lr, [r4, #84]	@ 0x54
 8008e06:	f8a4 2056 	strh.w	r2, [r4, #86]	@ 0x56
 8008e0a:	f884 3058 	strb.w	r3, [r4, #88]	@ 0x58
 8008e0e:	f04f 0878 	mov.w	r8, #120	@ 0x78
 8008e12:	f884 8059 	strb.w	r8, [r4, #89]	@ 0x59
 8008e16:	f884 c05a 	strb.w	ip, [r4, #90]	@ 0x5a
 8008e1a:	f06f 087f 	mvn.w	r8, #127	@ 0x7f
 8008e1e:	f884 805b 	strb.w	r8, [r4, #91]	@ 0x5b
 8008e22:	f04f 0802 	mov.w	r8, #2
 8008e26:	f884 805c 	strb.w	r8, [r4, #92]	@ 0x5c
 8008e2a:	f884 005d 	strb.w	r0, [r4, #93]	@ 0x5d
 8008e2e:	f884 105e 	strb.w	r1, [r4, #94]	@ 0x5e
 8008e32:	f884 305f 	strb.w	r3, [r4, #95]	@ 0x5f
 8008e36:	f8a4 7060 	strh.w	r7, [r4, #96]	@ 0x60
 8008e3a:	f8a4 e062 	strh.w	lr, [r4, #98]	@ 0x62
 8008e3e:	f8a4 2064 	strh.w	r2, [r4, #100]	@ 0x64
 8008e42:	f884 3066 	strb.w	r3, [r4, #102]	@ 0x66
 8008e46:	f884 b067 	strb.w	fp, [r4, #103]	@ 0x67
 8008e4a:	f884 a068 	strb.w	sl, [r4, #104]	@ 0x68
 8008e4e:	f06f 082f 	mvn.w	r8, #47	@ 0x2f
 8008e52:	f884 8069 	strb.w	r8, [r4, #105]	@ 0x69
 8008e56:	f04f 0907 	mov.w	r9, #7
 8008e5a:	f884 906a 	strb.w	r9, [r4, #106]	@ 0x6a
 8008e5e:	f884 006b 	strb.w	r0, [r4, #107]	@ 0x6b
 8008e62:	f884 106c 	strb.w	r1, [r4, #108]	@ 0x6c
 8008e66:	f884 306d 	strb.w	r3, [r4, #109]	@ 0x6d
 8008e6a:	f8a4 706e 	strh.w	r7, [r4, #110]	@ 0x6e
 8008e6e:	f8a4 e070 	strh.w	lr, [r4, #112]	@ 0x70
 8008e72:	f8a4 2072 	strh.w	r2, [r4, #114]	@ 0x72
 8008e76:	f884 3074 	strb.w	r3, [r4, #116]	@ 0x74
 8008e7a:	f884 b075 	strb.w	fp, [r4, #117]	@ 0x75
 8008e7e:	f884 a076 	strb.w	sl, [r4, #118]	@ 0x76
 8008e82:	f884 8077 	strb.w	r8, [r4, #119]	@ 0x77
 8008e86:	f884 9078 	strb.w	r9, [r4, #120]	@ 0x78
 8008e8a:	f884 0079 	strb.w	r0, [r4, #121]	@ 0x79
 8008e8e:	f884 107a 	strb.w	r1, [r4, #122]	@ 0x7a
 8008e92:	f884 307b 	strb.w	r3, [r4, #123]	@ 0x7b
 8008e96:	f44f 77f0 	mov.w	r7, #480	@ 0x1e0
 8008e9a:	f8a4 707c 	strh.w	r7, [r4, #124]	@ 0x7c
 8008e9e:	f44f 6efa 	mov.w	lr, #2000	@ 0x7d0
 8008ea2:	f8a4 e07e 	strh.w	lr, [r4, #126]	@ 0x7e
 8008ea6:	f8a4 2080 	strh.w	r2, [r4, #128]	@ 0x80
 8008eaa:	f884 3082 	strb.w	r3, [r4, #130]	@ 0x82
 8008eae:	f884 30c7 	strb.w	r3, [r4, #199]	@ 0xc7
 8008eb2:	f884 30c8 	strb.w	r3, [r4, #200]	@ 0xc8
 8008eb6:	f884 30c9 	strb.w	r3, [r4, #201]	@ 0xc9
 8008eba:	f884 30ca 	strb.w	r3, [r4, #202]	@ 0xca
 8008ebe:	f884 30cb 	strb.w	r3, [r4, #203]	@ 0xcb
 8008ec2:	f884 30cc 	strb.w	r3, [r4, #204]	@ 0xcc
 8008ec6:	f884 30cd 	strb.w	r3, [r4, #205]	@ 0xcd
 8008eca:	f884 30ce 	strb.w	r3, [r4, #206]	@ 0xce
 8008ece:	f884 30cf 	strb.w	r3, [r4, #207]	@ 0xcf
 8008ed2:	f884 30d0 	strb.w	r3, [r4, #208]	@ 0xd0
 8008ed6:	f884 30d1 	strb.w	r3, [r4, #209]	@ 0xd1
 8008eda:	f884 30d2 	strb.w	r3, [r4, #210]	@ 0xd2
 8008ede:	f884 30d3 	strb.w	r3, [r4, #211]	@ 0xd3
 8008ee2:	f884 30d4 	strb.w	r3, [r4, #212]	@ 0xd4
 8008ee6:	f884 30d5 	strb.w	r3, [r4, #213]	@ 0xd5
 8008eea:	f884 30d6 	strb.w	r3, [r4, #214]	@ 0xd6
 8008eee:	f884 30d7 	strb.w	r3, [r4, #215]	@ 0xd7
 8008ef2:	f884 30d8 	strb.w	r3, [r4, #216]	@ 0xd8
 8008ef6:	f884 30d9 	strb.w	r3, [r4, #217]	@ 0xd9
 8008efa:	f884 30da 	strb.w	r3, [r4, #218]	@ 0xda
 8008efe:	f884 30db 	strb.w	r3, [r4, #219]	@ 0xdb
 8008f02:	f884 30dc 	strb.w	r3, [r4, #220]	@ 0xdc
 8008f06:	f884 30dd 	strb.w	r3, [r4, #221]	@ 0xdd
 8008f0a:	f884 30de 	strb.w	r3, [r4, #222]	@ 0xde
 8008f0e:	f884 30df 	strb.w	r3, [r4, #223]	@ 0xdf
 8008f12:	f884 30e0 	strb.w	r3, [r4, #224]	@ 0xe0
 8008f16:	f884 30e1 	strb.w	r3, [r4, #225]	@ 0xe1
 8008f1a:	f884 30e2 	strb.w	r3, [r4, #226]	@ 0xe2
 8008f1e:	f884 30e3 	strb.w	r3, [r4, #227]	@ 0xe3
 8008f22:	f884 30e4 	strb.w	r3, [r4, #228]	@ 0xe4
 8008f26:	f884 30e5 	strb.w	r3, [r4, #229]	@ 0xe5
 8008f2a:	f884 30e6 	strb.w	r3, [r4, #230]	@ 0xe6
 8008f2e:	f884 30e7 	strb.w	r3, [r4, #231]	@ 0xe7
 8008f32:	f884 30e8 	strb.w	r3, [r4, #232]	@ 0xe8
 8008f36:	f884 30e9 	strb.w	r3, [r4, #233]	@ 0xe9
 8008f3a:	f884 30ea 	strb.w	r3, [r4, #234]	@ 0xea
 8008f3e:	f884 30eb 	strb.w	r3, [r4, #235]	@ 0xeb
 8008f42:	f884 30ec 	strb.w	r3, [r4, #236]	@ 0xec
 8008f46:	f884 30ed 	strb.w	r3, [r4, #237]	@ 0xed
 8008f4a:	f884 30ee 	strb.w	r3, [r4, #238]	@ 0xee
 8008f4e:	f884 30ef 	strb.w	r3, [r4, #239]	@ 0xef
 8008f52:	f884 30f0 	strb.w	r3, [r4, #240]	@ 0xf0
 8008f56:	f884 30f1 	strb.w	r3, [r4, #241]	@ 0xf1
 8008f5a:	f884 30f2 	strb.w	r3, [r4, #242]	@ 0xf2
 8008f5e:	f884 30f3 	strb.w	r3, [r4, #243]	@ 0xf3
 8008f62:	f884 30f4 	strb.w	r3, [r4, #244]	@ 0xf4
 8008f66:	f884 30f5 	strb.w	r3, [r4, #245]	@ 0xf5
 8008f6a:	f884 30f6 	strb.w	r3, [r4, #246]	@ 0xf6
 8008f6e:	f884 30f7 	strb.w	r3, [r4, #247]	@ 0xf7
 8008f72:	f884 30f8 	strb.w	r3, [r4, #248]	@ 0xf8
 8008f76:	f884 30f9 	strb.w	r3, [r4, #249]	@ 0xf9
 8008f7a:	f884 30fa 	strb.w	r3, [r4, #250]	@ 0xfa
 8008f7e:	f884 30fb 	strb.w	r3, [r4, #251]	@ 0xfb
 8008f82:	f884 30fc 	strb.w	r3, [r4, #252]	@ 0xfc
 8008f86:	f884 30fd 	strb.w	r3, [r4, #253]	@ 0xfd
 8008f8a:	f884 30fe 	strb.w	r3, [r4, #254]	@ 0xfe
 8008f8e:	f884 30ff 	strb.w	r3, [r4, #255]	@ 0xff
 8008f92:	f884 3100 	strb.w	r3, [r4, #256]	@ 0x100
 8008f96:	4b15      	ldr	r3, [pc, #84]	@ (8008fec <_ZN20PersistentSystemData15handleSetConfigER6Buffer+0x368>)
 8008f98:	cb07      	ldmia	r3!, {r0, r1, r2}
 8008f9a:	f8cd 0105 	str.w	r0, [sp, #261]	@ 0x105
 8008f9e:	f8cd 1109 	str.w	r1, [sp, #265]	@ 0x109
 8008fa2:	f8cd 210d 	str.w	r2, [sp, #269]	@ 0x10d
 8008fa6:	881a      	ldrh	r2, [r3, #0]
 8008fa8:	789b      	ldrb	r3, [r3, #2]
 8008faa:	f8ad 2111 	strh.w	r2, [sp, #273]	@ 0x111
 8008fae:	f88d 3113 	strb.w	r3, [sp, #275]	@ 0x113
 8008fb2:	f8cd c114 	str.w	ip, [sp, #276]	@ 0x114
 8008fb6:	f88d c118 	strb.w	ip, [sp, #280]	@ 0x118
  DataIn.readBlock((char *)&set,sizeof(SystemSettings_t)-20);
 8008fba:	f240 1201 	movw	r2, #257	@ 0x101
 8008fbe:	4621      	mov	r1, r4
 8008fc0:	4630      	mov	r0, r6
 8008fc2:	f7fc f875 	bl	80050b0 <_ZNK6Buffer9readBlockEPcj>
  for (uint32_t i=0; i<sizeof(SystemSettings_t); i+=2)
 8008fc6:	f50d 778d 	add.w	r7, sp, #282	@ 0x11a
  DataIn.readBlock((char *)&set,sizeof(SystemSettings_t)-20);
 8008fca:	4626      	mov	r6, r4
 8008fcc:	1b2d      	subs	r5, r5, r4
 8008fce:	1970      	adds	r0, r6, r5
	  if (FLASH_ProgramHalfWord(addr, *(uint16_t *)(((uint8_t *)&set)+i) ) != FLASH_COMPLETE)
 8008fd0:	f836 1b02 	ldrh.w	r1, [r6], #2
 8008fd4:	f002 f866 	bl	800b0a4 <FLASH_ProgramHalfWord>
 8008fd8:	2804      	cmp	r0, #4
 8008fda:	d103      	bne.n	8008fe4 <_ZN20PersistentSystemData15handleSetConfigER6Buffer+0x360>
  for (uint32_t i=0; i<sizeof(SystemSettings_t); i+=2)
 8008fdc:	42be      	cmp	r6, r7
 8008fde:	d1f6      	bne.n	8008fce <_ZN20PersistentSystemData15handleSetConfigER6Buffer+0x34a>
  return COMMAND_SUCCESS::ACK;
 8008fe0:	2400      	movs	r4, #0
 8008fe2:	e65e      	b.n	8008ca2 <_ZN20PersistentSystemData15handleSetConfigER6Buffer+0x1e>
	       return EEPROM_ERROR;
 8008fe4:	2402      	movs	r4, #2
 8008fe6:	e65c      	b.n	8008ca2 <_ZN20PersistentSystemData15handleSetConfigER6Buffer+0x1e>
 8008fe8:	7701a8c0 	.word	0x7701a8c0
 8008fec:	0800c260 	.word	0x0800c260

08008ff0 <_ZN20PersistentSystemData12EraseAllDataEv>:

ErrorStatus PersistentSystemData::EraseAllData()
{
 8008ff0:	b538      	push	{r3, r4, r5, lr}
 8008ff2:	4c0d      	ldr	r4, [pc, #52]	@ (8009028 <_ZN20PersistentSystemData12EraseAllDataEv+0x38>)
	uint32_t addr;
	for(int i=0; i<16; i++)
 8008ff4:	4d0d      	ldr	r5, [pc, #52]	@ (800902c <_ZN20PersistentSystemData12EraseAllDataEv+0x3c>)
	{
		addr = (uint32_t)GET_CONFIG_ADDRESS(i);
		if (FLASH_ErasePage(addr) != FLASH_COMPLETE) {
 8008ff6:	4620      	mov	r0, r4
 8008ff8:	f001 ffd2 	bl	800afa0 <FLASH_ErasePage>
 8008ffc:	2804      	cmp	r0, #4
 8008ffe:	d10f      	bne.n	8009020 <_ZN20PersistentSystemData12EraseAllDataEv+0x30>
	for(int i=0; i<16; i++)
 8009000:	f504 6400 	add.w	r4, r4, #2048	@ 0x800
 8009004:	42ac      	cmp	r4, r5
 8009006:	d1f6      	bne.n	8008ff6 <_ZN20PersistentSystemData12EraseAllDataEv+0x6>
			return ERROR;
		}
	}
	for(int i=0; i<16; i++)
 8009008:	4d09      	ldr	r5, [pc, #36]	@ (8009030 <_ZN20PersistentSystemData12EraseAllDataEv+0x40>)
	{
		addr = (uint32_t)GET_MACRO_ADDRESS(i);
		if (FLASH_ErasePage(addr) != FLASH_COMPLETE) {
 800900a:	4620      	mov	r0, r4
 800900c:	f001 ffc8 	bl	800afa0 <FLASH_ErasePage>
 8009010:	2804      	cmp	r0, #4
 8009012:	d107      	bne.n	8009024 <_ZN20PersistentSystemData12EraseAllDataEv+0x34>
	for(int i=0; i<16; i++)
 8009014:	f504 6400 	add.w	r4, r4, #2048	@ 0x800
 8009018:	42ac      	cmp	r4, r5
 800901a:	d1f6      	bne.n	800900a <_ZN20PersistentSystemData12EraseAllDataEv+0x1a>
			return ERROR;
		}
	}
	return SUCCESS;
 800901c:	2001      	movs	r0, #1
 800901e:	e000      	b.n	8009022 <_ZN20PersistentSystemData12EraseAllDataEv+0x32>
			return ERROR;
 8009020:	2000      	movs	r0, #0

}
 8009022:	bd38      	pop	{r3, r4, r5, pc}
			return ERROR;
 8009024:	2000      	movs	r0, #0
 8009026:	e7fc      	b.n	8009022 <_ZN20PersistentSystemData12EraseAllDataEv+0x32>
 8009028:	08030000 	.word	0x08030000
 800902c:	08038000 	.word	0x08038000
 8009030:	08040000 	.word	0x08040000

08009034 <_ZN20PersistentSystemData11CheckMemoryEv>:
  MemoryOk = (ErrorStatus)rc;
  return MemoryOk;
}

ErrorStatus PersistentSystemData::CheckMemory()
{
 8009034:	b570      	push	{r4, r5, r6, lr}
 8009036:	4605      	mov	r5, r0
	int firstInit = strcmp(GET_CONFIG_ADDRESS(Address & 0xFE)->magicNumber, MagicNum);
 8009038:	6883      	ldr	r3, [r0, #8]
 800903a:	781c      	ldrb	r4, [r3, #0]
 800903c:	f004 03fe 	and.w	r3, r4, #254	@ 0xfe
 8009040:	02db      	lsls	r3, r3, #11
 8009042:	490b      	ldr	r1, [pc, #44]	@ (8009070 <_ZN20PersistentSystemData11CheckMemoryEv+0x3c>)
 8009044:	480b      	ldr	r0, [pc, #44]	@ (8009074 <_ZN20PersistentSystemData11CheckMemoryEv+0x40>)
 8009046:	4418      	add	r0, r3
 8009048:	f7f9 f8ac 	bl	80021a4 <strcmp>
 800904c:	4606      	mov	r6, r0
	firstInit |= strcmp(GET_CONFIG_ADDRESS(Address | 0x01)->magicNumber, PERSISTENT_MAGIC_NUM);
 800904e:	f044 1401 	orr.w	r4, r4, #65537	@ 0x10001
 8009052:	02e4      	lsls	r4, r4, #11
 8009054:	4908      	ldr	r1, [pc, #32]	@ (8009078 <_ZN20PersistentSystemData11CheckMemoryEv+0x44>)
 8009056:	f504 3040 	add.w	r0, r4, #196608	@ 0x30000
 800905a:	f200 1001 	addw	r0, r0, #257	@ 0x101
 800905e:	f7f9 f8a1 	bl	80021a4 <strcmp>
	MemoryOk = firstInit ? ERROR : SUCCESS;
 8009062:	4330      	orrs	r0, r6
 8009064:	bf0c      	ite	eq
 8009066:	2001      	moveq	r0, #1
 8009068:	2000      	movne	r0, #0
 800906a:	7128      	strb	r0, [r5, #4]
	return MemoryOk;
}
 800906c:	bd70      	pop	{r4, r5, r6, pc}
 800906e:	bf00      	nop
 8009070:	08002150 	.word	0x08002150
 8009074:	08030101 	.word	0x08030101
 8009078:	0800c900 	.word	0x0800c900

0800907c <_ZN20PersistentSystemData13Get_IpSettingEv>:
/* ---------------- */

const IpSettings_t* PersistentSystemData::Get_IpSetting()
{
  
  return &(GET_CONFIG_ADDRESS(Address)->IP_Settings);	
 800907c:	6883      	ldr	r3, [r0, #8]
 800907e:	7818      	ldrb	r0, [r3, #0]
 8009080:	f500 3080 	add.w	r0, r0, #65536	@ 0x10000
 8009084:	3060      	adds	r0, #96	@ 0x60
}
 8009086:	02c0      	lsls	r0, r0, #11
 8009088:	4770      	bx	lr
	...

0800908c <_ZN20PersistentSystemData13Get_CBSettingEi>:
/* CB settings */
/* ----------- */

const Raw_Config_t* PersistentSystemData::Get_CBSetting(int CbNum)
{
  return &(GET_CONFIG_ADDRESS(Address)->ChannelConfig[CbNum]);
 800908c:	6883      	ldr	r3, [r0, #8]
 800908e:	781b      	ldrb	r3, [r3, #0]
 8009090:	ebc1 01c1 	rsb	r1, r1, r1, lsl #3
 8009094:	eb01 21c3 	add.w	r1, r1, r3, lsl #11
}
 8009098:	4801      	ldr	r0, [pc, #4]	@ (80090a0 <_ZN20PersistentSystemData13Get_CBSettingEi+0x14>)
 800909a:	4408      	add	r0, r1
 800909c:	4770      	bx	lr
 800909e:	bf00      	nop
 80090a0:	08030013 	.word	0x08030013

080090a4 <_ZN20PersistentSystemData12UpdateMemoryEhPK16SystemSettings_t>:



ErrorStatus PersistentSystemData::UpdateMemory(uint8_t DevAdd, const SystemSettings_t* nSystemSettings)
{
 80090a4:	b5f0      	push	{r4, r5, r6, r7, lr}
 80090a6:	b083      	sub	sp, #12
 80090a8:	460c      	mov	r4, r1
 80090aa:	4615      	mov	r5, r2
  uint32_t dataLen = sizeof(SystemSettings_t);
  uint32_t addr;
 FlashUnlock unlocker;
 80090ac:	a801      	add	r0, sp, #4
 80090ae:	f7ff f919 	bl	80082e4 <_ZN11FlashUnlockC1Ev>
 addr = (uint32_t)GET_CONFIG_ADDRESS(DevAdd);
 80090b2:	f504 3180 	add.w	r1, r4, #65536	@ 0x10000
 80090b6:	3160      	adds	r1, #96	@ 0x60
 80090b8:	02ce      	lsls	r6, r1, #11
 if (FLASH_ErasePage(addr) != FLASH_COMPLETE) {
 80090ba:	4630      	mov	r0, r6
 80090bc:	f001 ff70 	bl	800afa0 <FLASH_ErasePage>
 80090c0:	2804      	cmp	r0, #4
 80090c2:	d110      	bne.n	80090e6 <_ZN20PersistentSystemData12UpdateMemoryEhPK16SystemSettings_t+0x42>
	return ERROR;
  }
  for (uint32_t j=0; j< dataLen; j+=2)
 80090c4:	1eac      	subs	r4, r5, #2
 80090c6:	f505 778a 	add.w	r7, r5, #276	@ 0x114
 80090ca:	f1c5 0502 	rsb	r5, r5, #2
 80090ce:	4435      	add	r5, r6
 80090d0:	1960      	adds	r0, r4, r5
  {
   if (FLASH_ProgramHalfWord(addr, *(uint16_t *)(((uint8_t*)nSystemSettings)+j)) != FLASH_COMPLETE)
 80090d2:	f834 1f02 	ldrh.w	r1, [r4, #2]!
 80090d6:	f001 ffe5 	bl	800b0a4 <FLASH_ProgramHalfWord>
 80090da:	2804      	cmp	r0, #4
 80090dc:	d10a      	bne.n	80090f4 <_ZN20PersistentSystemData12UpdateMemoryEhPK16SystemSettings_t+0x50>
  for (uint32_t j=0; j< dataLen; j+=2)
 80090de:	42bc      	cmp	r4, r7
 80090e0:	d1f6      	bne.n	80090d0 <_ZN20PersistentSystemData12UpdateMemoryEhPK16SystemSettings_t+0x2c>
	 return ERROR;
	addr+=2;
  }
 return SUCCESS;
 80090e2:	2401      	movs	r4, #1
 80090e4:	e000      	b.n	80090e8 <_ZN20PersistentSystemData12UpdateMemoryEhPK16SystemSettings_t+0x44>
	return ERROR;
 80090e6:	2400      	movs	r4, #0
}
 80090e8:	a801      	add	r0, sp, #4
 80090ea:	f7ff f90f 	bl	800830c <_ZN11FlashUnlockD1Ev>
 80090ee:	4620      	mov	r0, r4
 80090f0:	b003      	add	sp, #12
 80090f2:	bdf0      	pop	{r4, r5, r6, r7, pc}
	 return ERROR;
 80090f4:	2400      	movs	r4, #0
 80090f6:	e7f7      	b.n	80090e8 <_ZN20PersistentSystemData12UpdateMemoryEhPK16SystemSettings_t+0x44>

080090f8 <_ZN20PersistentSystemData10InitializeEv>:
{
 80090f8:	e92d 4ff0 	stmdb	sp!, {r4, r5, r6, r7, r8, r9, sl, fp, lr}
 80090fc:	b0c7      	sub	sp, #284	@ 0x11c
 80090fe:	4604      	mov	r4, r0
  SystemSettings_t nSettings;
 8009100:	f240 1215 	movw	r2, #277	@ 0x115
 8009104:	2100      	movs	r1, #0
 8009106:	4668      	mov	r0, sp
 8009108:	f002 ffde 	bl	800c0c8 <memset>
 800910c:	4bc7      	ldr	r3, [pc, #796]	@ (800942c <_ZN20PersistentSystemData10InitializeEv+0x334>)
 800910e:	9300      	str	r3, [sp, #0]
 8009110:	f06f 437f 	mvn.w	r3, #4278190080	@ 0xff000000
 8009114:	9301      	str	r3, [sp, #4]
 8009116:	2301      	movs	r3, #1
 8009118:	f88d 3008 	strb.w	r3, [sp, #8]
 800911c:	f04f 0c00 	mov.w	ip, #0
 8009120:	f06f 033f 	mvn.w	r3, #63	@ 0x3f
 8009124:	f88d 3009 	strb.w	r3, [sp, #9]
 8009128:	f06f 0357 	mvn.w	r3, #87	@ 0x57
 800912c:	f88d 300a 	strb.w	r3, [sp, #10]
 8009130:	f88d c00b 	strb.w	ip, [sp, #11]
 8009134:	2377      	movs	r3, #119	@ 0x77
 8009136:	f88d 300c 	strb.w	r3, [sp, #12]
 800913a:	f04f 33ff 	mov.w	r3, #4294967295
 800913e:	f88d 300d 	strb.w	r3, [sp, #13]
 8009142:	f88d 300e 	strb.w	r3, [sp, #14]
 8009146:	f88d 300f 	strb.w	r3, [sp, #15]
 800914a:	f88d c010 	strb.w	ip, [sp, #16]
 800914e:	221a      	movs	r2, #26
 8009150:	f88d 2012 	strb.w	r2, [sp, #18]
 8009154:	f06f 0b1f 	mvn.w	fp, #31
 8009158:	f88d b013 	strb.w	fp, [sp, #19]
 800915c:	f04f 0a01 	mov.w	sl, #1
 8009160:	f88d a014 	strb.w	sl, [sp, #20]
 8009164:	f06f 092f 	mvn.w	r9, #47	@ 0x2f
 8009168:	f88d 9015 	strb.w	r9, [sp, #21]
 800916c:	f04f 0807 	mov.w	r8, #7
 8009170:	f88d 8016 	strb.w	r8, [sp, #22]
 8009174:	f06f 0e17 	mvn.w	lr, #23
 8009178:	f88d e017 	strb.w	lr, [sp, #23]
 800917c:	2103      	movs	r1, #3
 800917e:	f88d 1018 	strb.w	r1, [sp, #24]
 8009182:	f88d 3019 	strb.w	r3, [sp, #25]
 8009186:	f44f 70f0 	mov.w	r0, #480	@ 0x1e0
 800918a:	f8ad 001a 	strh.w	r0, [sp, #26]
 800918e:	f44f 65fa 	mov.w	r5, #2000	@ 0x7d0
 8009192:	f8ad 501c 	strh.w	r5, [sp, #28]
 8009196:	f44f 727a 	mov.w	r2, #1000	@ 0x3e8
 800919a:	f8ad 201e 	strh.w	r2, [sp, #30]
 800919e:	f88d 3020 	strb.w	r3, [sp, #32]
 80091a2:	f06f 070f 	mvn.w	r7, #15
 80091a6:	f88d 7021 	strb.w	r7, [sp, #33]	@ 0x21
 80091aa:	f88d c022 	strb.w	ip, [sp, #34]	@ 0x22
 80091ae:	f88d c023 	strb.w	ip, [sp, #35]	@ 0x23
 80091b2:	2605      	movs	r6, #5
 80091b4:	f88d 6024 	strb.w	r6, [sp, #36]	@ 0x24
 80091b8:	f88d e025 	strb.w	lr, [sp, #37]	@ 0x25
 80091bc:	f88d 1026 	strb.w	r1, [sp, #38]	@ 0x26
 80091c0:	f88d 3027 	strb.w	r3, [sp, #39]	@ 0x27
 80091c4:	f8ad 0028 	strh.w	r0, [sp, #40]	@ 0x28
 80091c8:	f8ad 502a 	strh.w	r5, [sp, #42]	@ 0x2a
 80091cc:	f8ad 202c 	strh.w	r2, [sp, #44]	@ 0x2c
 80091d0:	f88d 302e 	strb.w	r3, [sp, #46]	@ 0x2e
 80091d4:	f88d 702f 	strb.w	r7, [sp, #47]	@ 0x2f
 80091d8:	f88d c030 	strb.w	ip, [sp, #48]	@ 0x30
 80091dc:	f88d c031 	strb.w	ip, [sp, #49]	@ 0x31
 80091e0:	f88d 6032 	strb.w	r6, [sp, #50]	@ 0x32
 80091e4:	f88d e033 	strb.w	lr, [sp, #51]	@ 0x33
 80091e8:	f88d 1034 	strb.w	r1, [sp, #52]	@ 0x34
 80091ec:	f88d 3035 	strb.w	r3, [sp, #53]	@ 0x35
 80091f0:	25f0      	movs	r5, #240	@ 0xf0
 80091f2:	f8ad 5036 	strh.w	r5, [sp, #54]	@ 0x36
 80091f6:	f44f 60a0 	mov.w	r0, #1280	@ 0x500
 80091fa:	f8ad 0038 	strh.w	r0, [sp, #56]	@ 0x38
 80091fe:	f8ad 203a 	strh.w	r2, [sp, #58]	@ 0x3a
 8009202:	f88d 303c 	strb.w	r3, [sp, #60]	@ 0x3c
 8009206:	f88d 703d 	strb.w	r7, [sp, #61]	@ 0x3d
 800920a:	f88d c03e 	strb.w	ip, [sp, #62]	@ 0x3e
 800920e:	f88d c03f 	strb.w	ip, [sp, #63]	@ 0x3f
 8009212:	f88d 6040 	strb.w	r6, [sp, #64]	@ 0x40
 8009216:	f88d e041 	strb.w	lr, [sp, #65]	@ 0x41
 800921a:	f88d 1042 	strb.w	r1, [sp, #66]	@ 0x42
 800921e:	f88d 3043 	strb.w	r3, [sp, #67]	@ 0x43
 8009222:	f8ad 5044 	strh.w	r5, [sp, #68]	@ 0x44
 8009226:	f8ad 0046 	strh.w	r0, [sp, #70]	@ 0x46
 800922a:	f8ad 2048 	strh.w	r2, [sp, #72]	@ 0x48
 800922e:	f88d 304a 	strb.w	r3, [sp, #74]	@ 0x4a
 8009232:	f88d 704b 	strb.w	r7, [sp, #75]	@ 0x4b
 8009236:	f88d c04c 	strb.w	ip, [sp, #76]	@ 0x4c
 800923a:	f88d c04d 	strb.w	ip, [sp, #77]	@ 0x4d
 800923e:	f88d 604e 	strb.w	r6, [sp, #78]	@ 0x4e
 8009242:	f88d e04f 	strb.w	lr, [sp, #79]	@ 0x4f
 8009246:	f88d 1050 	strb.w	r1, [sp, #80]	@ 0x50
 800924a:	f88d 3051 	strb.w	r3, [sp, #81]	@ 0x51
 800924e:	f8ad 5052 	strh.w	r5, [sp, #82]	@ 0x52
 8009252:	f8ad 0054 	strh.w	r0, [sp, #84]	@ 0x54
 8009256:	f8ad 2056 	strh.w	r2, [sp, #86]	@ 0x56
 800925a:	f88d 3058 	strb.w	r3, [sp, #88]	@ 0x58
 800925e:	2678      	movs	r6, #120	@ 0x78
 8009260:	f88d 6059 	strb.w	r6, [sp, #89]	@ 0x59
 8009264:	f88d c05a 	strb.w	ip, [sp, #90]	@ 0x5a
 8009268:	f06f 067f 	mvn.w	r6, #127	@ 0x7f
 800926c:	f88d 605b 	strb.w	r6, [sp, #91]	@ 0x5b
 8009270:	2602      	movs	r6, #2
 8009272:	f88d 605c 	strb.w	r6, [sp, #92]	@ 0x5c
 8009276:	f88d e05d 	strb.w	lr, [sp, #93]	@ 0x5d
 800927a:	f88d 105e 	strb.w	r1, [sp, #94]	@ 0x5e
 800927e:	f88d 305f 	strb.w	r3, [sp, #95]	@ 0x5f
 8009282:	f8ad 5060 	strh.w	r5, [sp, #96]	@ 0x60
 8009286:	f8ad 0062 	strh.w	r0, [sp, #98]	@ 0x62
 800928a:	f8ad 2064 	strh.w	r2, [sp, #100]	@ 0x64
 800928e:	f88d 3066 	strb.w	r3, [sp, #102]	@ 0x66
 8009292:	f88d b067 	strb.w	fp, [sp, #103]	@ 0x67
 8009296:	f88d a068 	strb.w	sl, [sp, #104]	@ 0x68
 800929a:	f88d 9069 	strb.w	r9, [sp, #105]	@ 0x69
 800929e:	f88d 806a 	strb.w	r8, [sp, #106]	@ 0x6a
 80092a2:	f88d e06b 	strb.w	lr, [sp, #107]	@ 0x6b
 80092a6:	f88d 106c 	strb.w	r1, [sp, #108]	@ 0x6c
 80092aa:	f88d 306d 	strb.w	r3, [sp, #109]	@ 0x6d
 80092ae:	f8ad 506e 	strh.w	r5, [sp, #110]	@ 0x6e
 80092b2:	f8ad 0070 	strh.w	r0, [sp, #112]	@ 0x70
 80092b6:	f8ad 2072 	strh.w	r2, [sp, #114]	@ 0x72
 80092ba:	f88d 3074 	strb.w	r3, [sp, #116]	@ 0x74
 80092be:	f88d b075 	strb.w	fp, [sp, #117]	@ 0x75
 80092c2:	f88d a076 	strb.w	sl, [sp, #118]	@ 0x76
 80092c6:	f88d 9077 	strb.w	r9, [sp, #119]	@ 0x77
 80092ca:	f88d 8078 	strb.w	r8, [sp, #120]	@ 0x78
 80092ce:	f88d e079 	strb.w	lr, [sp, #121]	@ 0x79
 80092d2:	f88d 107a 	strb.w	r1, [sp, #122]	@ 0x7a
 80092d6:	f88d 307b 	strb.w	r3, [sp, #123]	@ 0x7b
 80092da:	f44f 70f0 	mov.w	r0, #480	@ 0x1e0
 80092de:	f8ad 007c 	strh.w	r0, [sp, #124]	@ 0x7c
 80092e2:	f44f 65fa 	mov.w	r5, #2000	@ 0x7d0
 80092e6:	f8ad 507e 	strh.w	r5, [sp, #126]	@ 0x7e
 80092ea:	f8ad 2080 	strh.w	r2, [sp, #128]	@ 0x80
 80092ee:	f88d 3082 	strb.w	r3, [sp, #130]	@ 0x82
 80092f2:	f88d 30c7 	strb.w	r3, [sp, #199]	@ 0xc7
 80092f6:	f88d 30c8 	strb.w	r3, [sp, #200]	@ 0xc8
 80092fa:	f88d 30c9 	strb.w	r3, [sp, #201]	@ 0xc9
 80092fe:	f88d 30ca 	strb.w	r3, [sp, #202]	@ 0xca
 8009302:	f88d 30cb 	strb.w	r3, [sp, #203]	@ 0xcb
 8009306:	f88d 30cc 	strb.w	r3, [sp, #204]	@ 0xcc
 800930a:	f88d 30cd 	strb.w	r3, [sp, #205]	@ 0xcd
 800930e:	f88d 30ce 	strb.w	r3, [sp, #206]	@ 0xce
 8009312:	f88d 30cf 	strb.w	r3, [sp, #207]	@ 0xcf
 8009316:	f88d 30d0 	strb.w	r3, [sp, #208]	@ 0xd0
 800931a:	f88d 30d1 	strb.w	r3, [sp, #209]	@ 0xd1
 800931e:	f88d 30d2 	strb.w	r3, [sp, #210]	@ 0xd2
 8009322:	f88d 30d3 	strb.w	r3, [sp, #211]	@ 0xd3
 8009326:	f88d 30d4 	strb.w	r3, [sp, #212]	@ 0xd4
 800932a:	f88d 30d5 	strb.w	r3, [sp, #213]	@ 0xd5
 800932e:	f88d 30d6 	strb.w	r3, [sp, #214]	@ 0xd6
 8009332:	f88d 30d7 	strb.w	r3, [sp, #215]	@ 0xd7
 8009336:	f88d 30d8 	strb.w	r3, [sp, #216]	@ 0xd8
 800933a:	f88d 30d9 	strb.w	r3, [sp, #217]	@ 0xd9
 800933e:	f88d 30da 	strb.w	r3, [sp, #218]	@ 0xda
 8009342:	f88d 30db 	strb.w	r3, [sp, #219]	@ 0xdb
 8009346:	f88d 30dc 	strb.w	r3, [sp, #220]	@ 0xdc
 800934a:	f88d 30dd 	strb.w	r3, [sp, #221]	@ 0xdd
 800934e:	f88d 30de 	strb.w	r3, [sp, #222]	@ 0xde
 8009352:	f88d 30df 	strb.w	r3, [sp, #223]	@ 0xdf
 8009356:	f88d 30e0 	strb.w	r3, [sp, #224]	@ 0xe0
 800935a:	f88d 30e1 	strb.w	r3, [sp, #225]	@ 0xe1
 800935e:	f88d 30e2 	strb.w	r3, [sp, #226]	@ 0xe2
 8009362:	f88d 30e3 	strb.w	r3, [sp, #227]	@ 0xe3
 8009366:	f88d 30e4 	strb.w	r3, [sp, #228]	@ 0xe4
 800936a:	f88d 30e5 	strb.w	r3, [sp, #229]	@ 0xe5
 800936e:	f88d 30e6 	strb.w	r3, [sp, #230]	@ 0xe6
 8009372:	f88d 30e7 	strb.w	r3, [sp, #231]	@ 0xe7
 8009376:	f88d 30e8 	strb.w	r3, [sp, #232]	@ 0xe8
 800937a:	f88d 30e9 	strb.w	r3, [sp, #233]	@ 0xe9
 800937e:	f88d 30ea 	strb.w	r3, [sp, #234]	@ 0xea
 8009382:	f88d 30eb 	strb.w	r3, [sp, #235]	@ 0xeb
 8009386:	f88d 30ec 	strb.w	r3, [sp, #236]	@ 0xec
 800938a:	f88d 30ed 	strb.w	r3, [sp, #237]	@ 0xed
 800938e:	f88d 30ee 	strb.w	r3, [sp, #238]	@ 0xee
 8009392:	f88d 30ef 	strb.w	r3, [sp, #239]	@ 0xef
 8009396:	f88d 30f0 	strb.w	r3, [sp, #240]	@ 0xf0
 800939a:	f88d 30f1 	strb.w	r3, [sp, #241]	@ 0xf1
 800939e:	f88d 30f2 	strb.w	r3, [sp, #242]	@ 0xf2
 80093a2:	f88d 30f3 	strb.w	r3, [sp, #243]	@ 0xf3
 80093a6:	f88d 30f4 	strb.w	r3, [sp, #244]	@ 0xf4
 80093aa:	f88d 30f5 	strb.w	r3, [sp, #245]	@ 0xf5
 80093ae:	f88d 30f6 	strb.w	r3, [sp, #246]	@ 0xf6
 80093b2:	f88d 30f7 	strb.w	r3, [sp, #247]	@ 0xf7
 80093b6:	f88d 30f8 	strb.w	r3, [sp, #248]	@ 0xf8
 80093ba:	f88d 30f9 	strb.w	r3, [sp, #249]	@ 0xf9
 80093be:	f88d 30fa 	strb.w	r3, [sp, #250]	@ 0xfa
 80093c2:	f88d 30fb 	strb.w	r3, [sp, #251]	@ 0xfb
 80093c6:	f88d 30fc 	strb.w	r3, [sp, #252]	@ 0xfc
 80093ca:	f88d 30fd 	strb.w	r3, [sp, #253]	@ 0xfd
 80093ce:	f88d 30fe 	strb.w	r3, [sp, #254]	@ 0xfe
 80093d2:	f88d 30ff 	strb.w	r3, [sp, #255]	@ 0xff
 80093d6:	f88d 3100 	strb.w	r3, [sp, #256]	@ 0x100
 80093da:	4b15      	ldr	r3, [pc, #84]	@ (8009430 <_ZN20PersistentSystemData10InitializeEv+0x338>)
 80093dc:	cb07      	ldmia	r3!, {r0, r1, r2}
 80093de:	f8cd 0101 	str.w	r0, [sp, #257]	@ 0x101
 80093e2:	f8cd 1105 	str.w	r1, [sp, #261]	@ 0x105
 80093e6:	f8cd 2109 	str.w	r2, [sp, #265]	@ 0x109
 80093ea:	881a      	ldrh	r2, [r3, #0]
 80093ec:	789b      	ldrb	r3, [r3, #2]
 80093ee:	f8ad 210d 	strh.w	r2, [sp, #269]	@ 0x10d
 80093f2:	f88d 310f 	strb.w	r3, [sp, #271]	@ 0x10f
 80093f6:	f8cd c110 	str.w	ip, [sp, #272]	@ 0x110
 80093fa:	f88d c114 	strb.w	ip, [sp, #276]	@ 0x114
  rc = UpdateMemory(Address & 0xFE, &nSettings);
 80093fe:	68a3      	ldr	r3, [r4, #8]
 8009400:	7819      	ldrb	r1, [r3, #0]
 8009402:	466a      	mov	r2, sp
 8009404:	f001 01fe 	and.w	r1, r1, #254	@ 0xfe
 8009408:	4620      	mov	r0, r4
 800940a:	f7ff fe4b 	bl	80090a4 <_ZN20PersistentSystemData12UpdateMemoryEhPK16SystemSettings_t>
 800940e:	4605      	mov	r5, r0
  rc &= UpdateMemory(Address | 0x01, &nSettings);
 8009410:	68a3      	ldr	r3, [r4, #8]
 8009412:	7819      	ldrb	r1, [r3, #0]
 8009414:	466a      	mov	r2, sp
 8009416:	ea41 010a 	orr.w	r1, r1, sl
 800941a:	4620      	mov	r0, r4
 800941c:	f7ff fe42 	bl	80090a4 <_ZN20PersistentSystemData12UpdateMemoryEhPK16SystemSettings_t>
 8009420:	4028      	ands	r0, r5
 8009422:	b2c0      	uxtb	r0, r0
  MemoryOk = (ErrorStatus)rc;
 8009424:	7120      	strb	r0, [r4, #4]
}
 8009426:	b047      	add	sp, #284	@ 0x11c
 8009428:	e8bd 8ff0 	ldmia.w	sp!, {r4, r5, r6, r7, r8, r9, sl, fp, pc}
 800942c:	7701a8c0 	.word	0x7701a8c0
 8009430:	0800c260 	.word	0x0800c260

08009434 <_ZN20PersistentSystemData15handleGetConfigER6BufferS1_>:
  return SUCCESS;
}
*/

void PersistentSystemData::handleGetConfig(Buffer& DataIn, Buffer& DataOut)
{
 8009434:	b570      	push	{r4, r5, r6, lr}
 8009436:	460d      	mov	r5, r1
 8009438:	4614      	mov	r4, r2

  if (DataIn.readShort() != 4)
 800943a:	4608      	mov	r0, r1
 800943c:	f7fb fd86 	bl	8004f4c <_ZN6Buffer9readShortEv>
 8009440:	2804      	cmp	r0, #4
 8009442:	d008      	beq.n	8009456 <_ZN20PersistentSystemData15handleGetConfigER6BufferS1_+0x22>
  {
	  DataOut.writeShort(4);
 8009444:	2104      	movs	r1, #4
 8009446:	4620      	mov	r0, r4
 8009448:	f7fb fd24 	bl	8004e94 <_ZN6Buffer10writeShortEt>
	  DataOut.writeChar(1);
 800944c:	2101      	movs	r1, #1
 800944e:	4620      	mov	r0, r4
 8009450:	f7fb fd05 	bl	8004e5e <_ZN6Buffer9writeCharEc>
    	DataOut.writeChar(0);
		DataOut.writeChar(page);
		DataOut.writeBlock(setting, sizeof(Macro_cmd)*50);
  }

 }
 8009454:	bd70      	pop	{r4, r5, r6, pc}
  uint8_t page = DataIn.readChar();
 8009456:	4628      	mov	r0, r5
 8009458:	f7fb fd5e 	bl	8004f18 <_ZN6Buffer8readCharEv>
 800945c:	4605      	mov	r5, r0
 800945e:	b2c6      	uxtb	r6, r0
  if (page  >= 32)
 8009460:	2e1f      	cmp	r6, #31
 8009462:	d820      	bhi.n	80094a6 <_ZN20PersistentSystemData15handleGetConfigER6BufferS1_+0x72>
  if (page <16)
 8009464:	2e0f      	cmp	r6, #15
 8009466:	d82c      	bhi.n	80094c2 <_ZN20PersistentSystemData15handleGetConfigER6BufferS1_+0x8e>
	  SystemSettings_t *setting = GET_CONFIG_ADDRESS(page);
 8009468:	b2c5      	uxtb	r5, r0
 800946a:	f505 3580 	add.w	r5, r5, #65536	@ 0x10000
 800946e:	3560      	adds	r5, #96	@ 0x60
 8009470:	02ed      	lsls	r5, r5, #11
	    DataOut.writeShort(5+sizeof(SystemSettings_t)-20);
 8009472:	f44f 7183 	mov.w	r1, #262	@ 0x106
 8009476:	4620      	mov	r0, r4
 8009478:	f7fb fd0c 	bl	8004e94 <_ZN6Buffer10writeShortEt>
	    if (strcmp(setting->magicNumber, PERSISTENT_MAGIC_NUM))
 800947c:	491d      	ldr	r1, [pc, #116]	@ (80094f4 <_ZN20PersistentSystemData15handleGetConfigER6BufferS1_+0xc0>)
 800947e:	f205 1001 	addw	r0, r5, #257	@ 0x101
 8009482:	f7f8 fe8f 	bl	80021a4 <strcmp>
 8009486:	b1b8      	cbz	r0, 80094b8 <_ZN20PersistentSystemData15handleGetConfigER6BufferS1_+0x84>
	        DataOut.writeChar(1);
 8009488:	2101      	movs	r1, #1
 800948a:	4620      	mov	r0, r4
 800948c:	f7fb fce7 	bl	8004e5e <_ZN6Buffer9writeCharEc>
	    DataOut.writeChar(page);
 8009490:	4631      	mov	r1, r6
 8009492:	4620      	mov	r0, r4
 8009494:	f7fb fce3 	bl	8004e5e <_ZN6Buffer9writeCharEc>
	    DataOut.writeBlock(setting, sizeof(SystemSettings_t) -20);
 8009498:	f240 1201 	movw	r2, #257	@ 0x101
 800949c:	4629      	mov	r1, r5
 800949e:	4620      	mov	r0, r4
 80094a0:	f7fb fd6a 	bl	8004f78 <_ZN6Buffer10writeBlockEPKvj>
 80094a4:	e7d6      	b.n	8009454 <_ZN20PersistentSystemData15handleGetConfigER6BufferS1_+0x20>
	  DataOut.writeShort(4);
 80094a6:	2104      	movs	r1, #4
 80094a8:	4620      	mov	r0, r4
 80094aa:	f7fb fcf3 	bl	8004e94 <_ZN6Buffer10writeShortEt>
	  DataOut.writeChar(1);
 80094ae:	2101      	movs	r1, #1
 80094b0:	4620      	mov	r0, r4
 80094b2:	f7fb fcd4 	bl	8004e5e <_ZN6Buffer9writeCharEc>
	  return;
 80094b6:	e7cd      	b.n	8009454 <_ZN20PersistentSystemData15handleGetConfigER6BufferS1_+0x20>
	        DataOut.writeChar(0);
 80094b8:	2100      	movs	r1, #0
 80094ba:	4620      	mov	r0, r4
 80094bc:	f7fb fccf 	bl	8004e5e <_ZN6Buffer9writeCharEc>
 80094c0:	e7e6      	b.n	8009490 <_ZN20PersistentSystemData15handleGetConfigER6BufferS1_+0x5c>
		DataOut.writeShort(5+sizeof(Macro_cmd)*50);
 80094c2:	f240 11c7 	movw	r1, #455	@ 0x1c7
 80094c6:	4620      	mov	r0, r4
 80094c8:	f7fb fce4 	bl	8004e94 <_ZN6Buffer10writeShortEt>
    	DataOut.writeChar(0);
 80094cc:	2100      	movs	r1, #0
 80094ce:	4620      	mov	r0, r4
 80094d0:	f7fb fcc5 	bl	8004e5e <_ZN6Buffer9writeCharEc>
		DataOut.writeChar(page);
 80094d4:	4631      	mov	r1, r6
 80094d6:	4620      	mov	r0, r4
 80094d8:	f7fb fcc1 	bl	8004e5e <_ZN6Buffer9writeCharEc>
		Macro_cmd *setting = GET_MACRO_ADDRESS(page-16);
 80094dc:	b2e9      	uxtb	r1, r5
 80094de:	f501 3180 	add.w	r1, r1, #65536	@ 0x10000
 80094e2:	3160      	adds	r1, #96	@ 0x60
		DataOut.writeBlock(setting, sizeof(Macro_cmd)*50);
 80094e4:	f44f 72e1 	mov.w	r2, #450	@ 0x1c2
 80094e8:	02c9      	lsls	r1, r1, #11
 80094ea:	4620      	mov	r0, r4
 80094ec:	f7fb fd44 	bl	8004f78 <_ZN6Buffer10writeBlockEPKvj>
 80094f0:	e7b0      	b.n	8009454 <_ZN20PersistentSystemData15handleGetConfigER6BufferS1_+0x20>
 80094f2:	bf00      	nop
 80094f4:	0800c900 	.word	0x0800c900

080094f8 <_ZN21PersistentSystemStatsC1Ev>:

// **************************************************************
// constructor
// **************************************************************
PersistentSystemStats::PersistentSystemStats() :
  mRandomNumber(0)
 80094f8:	2200      	movs	r2, #0
 80094fa:	8002      	strh	r2, [r0, #0]
{
}
 80094fc:	4770      	bx	lr
	...

08009500 <_ZN21PersistentSystemStats16initRandomNumberEv>:

// **************************************************************
// initiates the random number according to reset counter and chip ID.
// **************************************************************
void PersistentSystemStats::initRandomNumber()
{
 8009500:	b530      	push	{r4, r5, lr}
  mRandomNumber = SysTick->VAL * RANDOM_RST_MUL;
 8009502:	f04f 23e0 	mov.w	r3, #3758153728	@ 0xe000e000
 8009506:	699b      	ldr	r3, [r3, #24]
 8009508:	eb03 0243 	add.w	r2, r3, r3, lsl #1
 800950c:	ebc3 1242 	rsb	r2, r3, r2, lsl #5
 8009510:	ebc2 1202 	rsb	r2, r2, r2, lsl #4
 8009514:	eb03 1302 	add.w	r3, r3, r2, lsl #4
 8009518:	8003      	strh	r3, [r0, #0]
 800951a:	490f      	ldr	r1, [pc, #60]	@ (8009558 <_ZN21PersistentSystemStats16initRandomNumberEv+0x58>)

  int i;
  for (i=0; i<12; i++) {
    unsigned char ch = chipIdAddr[i];
    mRandomNumber = (mRandomNumber + ch) * RANDOM_CHIP_MUL;
    mRandomNumber = mRandomNumber % RANDOM_CHIP_MOD;
 800951c:	4d0f      	ldr	r5, [pc, #60]	@ (800955c <_ZN21PersistentSystemStats16initRandomNumberEv+0x5c>)
 800951e:	f24f 3c11 	movw	ip, #62225	@ 0xf311
  for (i=0; i<12; i++) {
 8009522:	4c0f      	ldr	r4, [pc, #60]	@ (8009560 <_ZN21PersistentSystemStats16initRandomNumberEv+0x60>)
    mRandomNumber = (mRandomNumber + ch) * RANDOM_CHIP_MUL;
 8009524:	8803      	ldrh	r3, [r0, #0]
 8009526:	f811 2b01 	ldrb.w	r2, [r1], #1
 800952a:	4413      	add	r3, r2
 800952c:	ebc3 02c3 	rsb	r2, r3, r3, lsl #3
 8009530:	eb03 1302 	add.w	r3, r3, r2, lsl #4
 8009534:	ebc3 1303 	rsb	r3, r3, r3, lsl #4
 8009538:	ebc3 1303 	rsb	r3, r3, r3, lsl #4
    mRandomNumber = mRandomNumber % RANDOM_CHIP_MOD;
 800953c:	b29b      	uxth	r3, r3
 800953e:	fba5 e203 	umull	lr, r2, r5, r3
 8009542:	eba3 0e02 	sub.w	lr, r3, r2
 8009546:	eb02 025e 	add.w	r2, r2, lr, lsr #1
 800954a:	0bd2      	lsrs	r2, r2, #15
 800954c:	fb0c 3312 	mls	r3, ip, r2, r3
 8009550:	8003      	strh	r3, [r0, #0]
  for (i=0; i<12; i++) {
 8009552:	42a1      	cmp	r1, r4
 8009554:	d1e6      	bne.n	8009524 <_ZN21PersistentSystemStats16initRandomNumberEv+0x24>
  }
}
 8009556:	bd30      	pop	{r4, r5, pc}
 8009558:	08001020 	.word	0x08001020
 800955c:	0d9f2dc1 	.word	0x0d9f2dc1
 8009560:	0800102c 	.word	0x0800102c

08009564 <_ZN21PersistentSystemStats21getNext16RandomNumberEv>:
{
 8009564:	b510      	push	{r4, lr}
 8009566:	4604      	mov	r4, r0
  if (mRandomNumber == 0) {
 8009568:	8803      	ldrh	r3, [r0, #0]
 800956a:	b303      	cbz	r3, 80095ae <_ZN21PersistentSystemStats21getNext16RandomNumberEv+0x4a>
  mRandomNumber = mRandomNumber * RANDOM_SEQ_MUL;
 800956c:	8823      	ldrh	r3, [r4, #0]
 800956e:	eb03 12c3 	add.w	r2, r3, r3, lsl #7
 8009572:	ebc3 02c2 	rsb	r2, r3, r2, lsl #3
 8009576:	ebc2 0282 	rsb	r2, r2, r2, lsl #2
 800957a:	ebc3 0382 	rsb	r3, r3, r2, lsl #2
 800957e:	b29b      	uxth	r3, r3
 8009580:	8023      	strh	r3, [r4, #0]
  mRandomNumber += SysTick->VAL + RANDOM_SEQ_ADD;
 8009582:	f04f 22e0 	mov.w	r2, #3758153728	@ 0xe000e000
 8009586:	6992      	ldr	r2, [r2, #24]
 8009588:	f502 42c2 	add.w	r2, r2, #24832	@ 0x6100
 800958c:	3223      	adds	r2, #35	@ 0x23
 800958e:	4413      	add	r3, r2
  mRandomNumber = mRandomNumber % RANDOM_SEQ_MOD;
 8009590:	b29b      	uxth	r3, r3
 8009592:	4a08      	ldr	r2, [pc, #32]	@ (80095b4 <_ZN21PersistentSystemStats21getNext16RandomNumberEv+0x50>)
 8009594:	fba2 1203 	umull	r1, r2, r2, r3
 8009598:	1a99      	subs	r1, r3, r2
 800959a:	eb02 0251 	add.w	r2, r2, r1, lsr #1
 800959e:	0bd2      	lsrs	r2, r2, #15
 80095a0:	f24f 3109 	movw	r1, #62217	@ 0xf309
 80095a4:	fb01 3312 	mls	r3, r1, r2, r3
 80095a8:	b298      	uxth	r0, r3
 80095aa:	8020      	strh	r0, [r4, #0]
}
 80095ac:	bd10      	pop	{r4, pc}
    initRandomNumber();
 80095ae:	f7ff ffa7 	bl	8009500 <_ZN21PersistentSystemStats16initRandomNumberEv>
 80095b2:	e7db      	b.n	800956c <_ZN21PersistentSystemStats21getNext16RandomNumberEv+0x8>
 80095b4:	0da80dcb 	.word	0x0da80dcb

080095b8 <_ZN7I2C_DRV8BusResetEv>:

}



void I2C_DRV::BusReset(){
 80095b8:	b5f0      	push	{r4, r5, r6, r7, lr}
 80095ba:	b083      	sub	sp, #12

	GPIO_InitTypeDef GPIO_InitStructure;
	int i;
	//Timer_S *Timer = Timer_S::Get_Instance();

	I2C_ITConfig(I2C1, I2C_IT_EVT | I2C_IT_BUF | I2C_IT_ERR, DISABLE); //disable I2C interrupts
 80095bc:	2200      	movs	r2, #0
 80095be:	f44f 61e0 	mov.w	r1, #1792	@ 0x700
 80095c2:	4840      	ldr	r0, [pc, #256]	@ (80096c4 <_ZN7I2C_DRV8BusResetEv+0x10c>)
 80095c4:	f002 f940 	bl	800b848 <I2C_ITConfig>

	SET_SCL(1);
 80095c8:	4c3f      	ldr	r4, [pc, #252]	@ (80096c8 <_ZN7I2C_DRV8BusResetEv+0x110>)
 80095ca:	2201      	movs	r2, #1
 80095cc:	2140      	movs	r1, #64	@ 0x40
 80095ce:	4620      	mov	r0, r4
 80095d0:	f001 ff33 	bl	800b43a <GPIO_WriteBit>
	SET_SDA(1);
 80095d4:	2201      	movs	r2, #1
 80095d6:	2180      	movs	r1, #128	@ 0x80
 80095d8:	4620      	mov	r0, r4
 80095da:	f001 ff2e 	bl	800b43a <GPIO_WriteBit>

	//Configurate I2C pin
	GPIO_InitStructure.GPIO_Speed = GPIO_Speed_10MHz;
 80095de:	2601      	movs	r6, #1
 80095e0:	f88d 6006 	strb.w	r6, [sp, #6]
	GPIO_InitStructure.GPIO_Mode = GPIO_Mode_Out_OD;
 80095e4:	2514      	movs	r5, #20
 80095e6:	f88d 5007 	strb.w	r5, [sp, #7]
	GPIO_InitStructure.GPIO_Pin = I2C_SCL_Pin;
 80095ea:	2340      	movs	r3, #64	@ 0x40
 80095ec:	f8ad 3004 	strh.w	r3, [sp, #4]
	GPIO_Init(I2C_SCL_Port, &GPIO_InitStructure);
 80095f0:	a901      	add	r1, sp, #4
 80095f2:	4620      	mov	r0, r4
 80095f4:	f001 fdf8 	bl	800b1e8 <GPIO_Init>

	//Configurate I2C pin
	GPIO_InitStructure.GPIO_Speed = GPIO_Speed_10MHz;
 80095f8:	f88d 6006 	strb.w	r6, [sp, #6]
	GPIO_InitStructure.GPIO_Mode = GPIO_Mode_Out_OD;
 80095fc:	f88d 5007 	strb.w	r5, [sp, #7]
	GPIO_InitStructure.GPIO_Pin = I2C_SDA_Pin;
 8009600:	2380      	movs	r3, #128	@ 0x80
 8009602:	f8ad 3004 	strh.w	r3, [sp, #4]
	GPIO_Init(I2C_SDA_Port, &GPIO_InitStructure);
 8009606:	a901      	add	r1, sp, #4
 8009608:	4620      	mov	r0, r4
 800960a:	f001 fded 	bl	800b1e8 <GPIO_Init>
 800960e:	240a      	movs	r4, #10

	do{
		//wait for SCL to be released 100usec at most
		for (i=0; i<10; i++)
		{
			if (READ_SCL)
 8009610:	4e2d      	ldr	r6, [pc, #180]	@ (80096c8 <_ZN7I2C_DRV8BusResetEv+0x110>)
 8009612:	2540      	movs	r5, #64	@ 0x40
 8009614:	4629      	mov	r1, r5
 8009616:	4630      	mov	r0, r6
 8009618:	f001 feb5 	bl	800b386 <GPIO_ReadInputDataBit>
 800961c:	b908      	cbnz	r0, 8009622 <_ZN7I2C_DRV8BusResetEv+0x6a>
		for (i=0; i<10; i++)
 800961e:	3c01      	subs	r4, #1
 8009620:	d1f8      	bne.n	8009614 <_ZN7I2C_DRV8BusResetEv+0x5c>
				break;
			//Timer->shortDelay(10);
		}

		if (!READ_SCL)
 8009622:	2140      	movs	r1, #64	@ 0x40
 8009624:	4828      	ldr	r0, [pc, #160]	@ (80096c8 <_ZN7I2C_DRV8BusResetEv+0x110>)
 8009626:	f001 feae 	bl	800b386 <GPIO_ReadInputDataBit>
 800962a:	2800      	cmp	r0, #0
 800962c:	d048      	beq.n	80096c0 <_ZN7I2C_DRV8BusResetEv+0x108>
 800962e:	2407      	movs	r4, #7
			break; //error - SCL held low by external device

		//if SDA held low - generate SCL pulses (7 at most)
		for (i=0; i<7; i++)
		{
			if (!READ_SDA)
 8009630:	4d25      	ldr	r5, [pc, #148]	@ (80096c8 <_ZN7I2C_DRV8BusResetEv+0x110>)
 8009632:	2680      	movs	r6, #128	@ 0x80
			{
				Delay(25);
				SET_SCL(0);
 8009634:	2700      	movs	r7, #0
 8009636:	e001      	b.n	800963c <_ZN7I2C_DRV8BusResetEv+0x84>
		for (i=0; i<7; i++)
 8009638:	3c01      	subs	r4, #1
 800963a:	d018      	beq.n	800966e <_ZN7I2C_DRV8BusResetEv+0xb6>
			if (!READ_SDA)
 800963c:	4631      	mov	r1, r6
 800963e:	4628      	mov	r0, r5
 8009640:	f001 fea1 	bl	800b386 <GPIO_ReadInputDataBit>
 8009644:	2800      	cmp	r0, #0
 8009646:	d1f7      	bne.n	8009638 <_ZN7I2C_DRV8BusResetEv+0x80>
 8009648:	f240 7354 	movw	r3, #1876	@ 0x754
				Delay(25);
 800964c:	3b01      	subs	r3, #1
 800964e:	d1fd      	bne.n	800964c <_ZN7I2C_DRV8BusResetEv+0x94>
				SET_SCL(0);
 8009650:	463a      	mov	r2, r7
 8009652:	2140      	movs	r1, #64	@ 0x40
 8009654:	4628      	mov	r0, r5
 8009656:	f001 fef0 	bl	800b43a <GPIO_WriteBit>
				Delay(25);
 800965a:	f240 7354 	movw	r3, #1876	@ 0x754
 800965e:	3b01      	subs	r3, #1
 8009660:	d1fd      	bne.n	800965e <_ZN7I2C_DRV8BusResetEv+0xa6>
				SET_SCL(1);
 8009662:	2201      	movs	r2, #1
 8009664:	2140      	movs	r1, #64	@ 0x40
 8009666:	4628      	mov	r0, r5
 8009668:	f001 fee7 	bl	800b43a <GPIO_WriteBit>
 800966c:	e7e4      	b.n	8009638 <_ZN7I2C_DRV8BusResetEv+0x80>
			}
		}

		if (!READ_SDA)
 800966e:	2180      	movs	r1, #128	@ 0x80
 8009670:	4815      	ldr	r0, [pc, #84]	@ (80096c8 <_ZN7I2C_DRV8BusResetEv+0x110>)
 8009672:	f001 fe88 	bl	800b386 <GPIO_ReadInputDataBit>
 8009676:	b318      	cbz	r0, 80096c0 <_ZN7I2C_DRV8BusResetEv+0x108>
 8009678:	f240 7354 	movw	r3, #1876	@ 0x754
			break; //error - SDA held low by external device

		//generate START
		Delay(25);
 800967c:	3b01      	subs	r3, #1
 800967e:	d1fd      	bne.n	800967c <_ZN7I2C_DRV8BusResetEv+0xc4>
		SET_SDA(0);
 8009680:	2200      	movs	r2, #0
 8009682:	2180      	movs	r1, #128	@ 0x80
 8009684:	4810      	ldr	r0, [pc, #64]	@ (80096c8 <_ZN7I2C_DRV8BusResetEv+0x110>)
 8009686:	f001 fed8 	bl	800b43a <GPIO_WriteBit>
		Delay(25);
 800968a:	f240 7354 	movw	r3, #1876	@ 0x754
 800968e:	3b01      	subs	r3, #1
 8009690:	d1fd      	bne.n	800968e <_ZN7I2C_DRV8BusResetEv+0xd6>
		SET_SCL(0);
 8009692:	2200      	movs	r2, #0
 8009694:	2140      	movs	r1, #64	@ 0x40
 8009696:	480c      	ldr	r0, [pc, #48]	@ (80096c8 <_ZN7I2C_DRV8BusResetEv+0x110>)
 8009698:	f001 fecf 	bl	800b43a <GPIO_WriteBit>

		//generate STOP
		Delay(25);
 800969c:	f240 7354 	movw	r3, #1876	@ 0x754
 80096a0:	3b01      	subs	r3, #1
 80096a2:	d1fd      	bne.n	80096a0 <_ZN7I2C_DRV8BusResetEv+0xe8>
		SET_SCL(1);
 80096a4:	2201      	movs	r2, #1
 80096a6:	2140      	movs	r1, #64	@ 0x40
 80096a8:	4807      	ldr	r0, [pc, #28]	@ (80096c8 <_ZN7I2C_DRV8BusResetEv+0x110>)
 80096aa:	f001 fec6 	bl	800b43a <GPIO_WriteBit>
		Delay(25);
 80096ae:	f240 7354 	movw	r3, #1876	@ 0x754
 80096b2:	3b01      	subs	r3, #1
 80096b4:	d1fd      	bne.n	80096b2 <_ZN7I2C_DRV8BusResetEv+0xfa>
		SET_SDA(1);
 80096b6:	2201      	movs	r2, #1
 80096b8:	2180      	movs	r1, #128	@ 0x80
 80096ba:	4803      	ldr	r0, [pc, #12]	@ (80096c8 <_ZN7I2C_DRV8BusResetEv+0x110>)
 80096bc:	f001 febd 	bl	800b43a <GPIO_WriteBit>

	//DO NOT restor the control over GPIO pins to the I2C module!!!
	//GPIO_InitStructure.GPIO_Mode = GPIO_Mode_AF_OD;
	//GPIO_Init(I2C_GPIO_PORT, &GPIO_InitStructure);

}
 80096c0:	b003      	add	sp, #12
 80096c2:	bdf0      	pop	{r4, r5, r6, r7, pc}
 80096c4:	40005400 	.word	0x40005400
 80096c8:	40010c00 	.word	0x40010c00

080096cc <_ZN7I2C_DRV9GPIO_INITEv>:

}


ErrorStatus I2C_DRV::GPIO_INIT(void)
{
 80096cc:	b530      	push	{r4, r5, lr}
 80096ce:	b083      	sub	sp, #12
	GPIO_InitTypeDef GPIO_InitStructure;

	//Configurate I2C pin
	GPIO_InitStructure.GPIO_Speed = GPIO_Speed_10MHz;
 80096d0:	2401      	movs	r4, #1
 80096d2:	f88d 4006 	strb.w	r4, [sp, #6]
	GPIO_InitStructure.GPIO_Mode = GPIO_Mode_AF_PP;
 80096d6:	2318      	movs	r3, #24
 80096d8:	f88d 3007 	strb.w	r3, [sp, #7]
	GPIO_InitStructure.GPIO_Pin = I2C_SCL_Pin;
 80096dc:	2340      	movs	r3, #64	@ 0x40
 80096de:	f8ad 3004 	strh.w	r3, [sp, #4]
	GPIO_Init(I2C_SCL_Port, &GPIO_InitStructure);
 80096e2:	4d0a      	ldr	r5, [pc, #40]	@ (800970c <_ZN7I2C_DRV9GPIO_INITEv+0x40>)
 80096e4:	a901      	add	r1, sp, #4
 80096e6:	4628      	mov	r0, r5
 80096e8:	f001 fd7e 	bl	800b1e8 <GPIO_Init>

	//Configurate I2C pin
	GPIO_InitStructure.GPIO_Speed = GPIO_Speed_10MHz;
 80096ec:	f88d 4006 	strb.w	r4, [sp, #6]
	GPIO_InitStructure.GPIO_Mode = GPIO_Mode_AF_OD;
 80096f0:	231c      	movs	r3, #28
 80096f2:	f88d 3007 	strb.w	r3, [sp, #7]
	GPIO_InitStructure.GPIO_Pin = I2C_SDA_Pin;
 80096f6:	2380      	movs	r3, #128	@ 0x80
 80096f8:	f8ad 3004 	strh.w	r3, [sp, #4]
	GPIO_Init(I2C_SDA_Port, &GPIO_InitStructure);
 80096fc:	a901      	add	r1, sp, #4
 80096fe:	4628      	mov	r0, r5
 8009700:	f001 fd72 	bl	800b1e8 <GPIO_Init>

	return(SUCCESS);

}
 8009704:	4620      	mov	r0, r4
 8009706:	b003      	add	sp, #12
 8009708:	bd30      	pop	{r4, r5, pc}
 800970a:	bf00      	nop
 800970c:	40010c00 	.word	0x40010c00

08009710 <_ZN7I2C_DRV7IT_INITEv>:


ErrorStatus I2C_DRV::IT_INIT(void)
{
 8009710:	b530      	push	{r4, r5, lr}
 8009712:	b083      	sub	sp, #12
	NVIC_InitTypeDef  NVIC_InitStructure;


	// Configure and enable I2C event interrupt
	NVIC_InitStructure.NVIC_IRQChannel = I2C1_EV_IRQn;
 8009714:	231f      	movs	r3, #31
 8009716:	f88d 3004 	strb.w	r3, [sp, #4]
	NVIC_InitStructure.NVIC_IRQChannelPreemptionPriority = 0; //DONE: what this for?
 800971a:	2500      	movs	r5, #0
 800971c:	f88d 5005 	strb.w	r5, [sp, #5]
	NVIC_InitStructure.NVIC_IRQChannelSubPriority = 1; //DONE: what this for?
 8009720:	2401      	movs	r4, #1
 8009722:	f88d 4006 	strb.w	r4, [sp, #6]
	NVIC_InitStructure.NVIC_IRQChannelCmd = ENABLE;
 8009726:	f88d 4007 	strb.w	r4, [sp, #7]
	NVIC_Init(&NVIC_InitStructure);
 800972a:	a801      	add	r0, sp, #4
 800972c:	f000 fd0a 	bl	800a144 <NVIC_Init>

	// Configure and enable I2C error interrupt
	NVIC_InitStructure.NVIC_IRQChannel = I2C1_ER_IRQn;
 8009730:	2320      	movs	r3, #32
 8009732:	f88d 3004 	strb.w	r3, [sp, #4]
	NVIC_InitStructure.NVIC_IRQChannelPreemptionPriority = 0; //DONE: what this for?
 8009736:	f88d 5005 	strb.w	r5, [sp, #5]
	NVIC_InitStructure.NVIC_IRQChannelSubPriority = 1; //DONE: what this for?
 800973a:	f88d 4006 	strb.w	r4, [sp, #6]
	NVIC_InitStructure.NVIC_IRQChannelCmd = ENABLE;
 800973e:	f88d 4007 	strb.w	r4, [sp, #7]
	NVIC_Init(&NVIC_InitStructure);
 8009742:	a801      	add	r0, sp, #4
 8009744:	f000 fcfe 	bl	800a144 <NVIC_Init>

	return(SUCCESS);
}
 8009748:	4620      	mov	r0, r4
 800974a:	b003      	add	sp, #12
 800974c:	bd30      	pop	{r4, r5, pc}
	...

08009750 <_ZN7I2C_DRV4InitEv>:
{
 8009750:	b5f0      	push	{r4, r5, r6, r7, lr}
 8009752:	b085      	sub	sp, #20
 8009754:	4605      	mov	r5, r0
	RCC_APB1PeriphClockCmd(RCC_APB1Periph_I2C1, ENABLE);
 8009756:	2101      	movs	r1, #1
 8009758:	f44f 1000 	mov.w	r0, #2097152	@ 0x200000
 800975c:	f002 fa7e 	bl	800bc5c <RCC_APB1PeriphClockCmd>
        I2C_SoftwareResetCmd(I2C1,FunctionalState::ENABLE);
 8009760:	4e1d      	ldr	r6, [pc, #116]	@ (80097d8 <_ZN7I2C_DRV4InitEv+0x88>)
 8009762:	2101      	movs	r1, #1
 8009764:	4630      	mov	r0, r6
 8009766:	f002 f8cb 	bl	800b900 <I2C_SoftwareResetCmd>
 */
__STATIC_INLINE void __NVIC_ClearPendingIRQ(IRQn_Type IRQn)
{
  if ((int32_t)(IRQn) >= 0)
  {
    NVIC->ICPR[(((uint32_t)IRQn) >> 5UL)] = (uint32_t)(1UL << (((uint32_t)IRQn) & 0x1FUL));
 800976a:	4b1c      	ldr	r3, [pc, #112]	@ (80097dc <_ZN7I2C_DRV4InitEv+0x8c>)
 800976c:	f04f 4200 	mov.w	r2, #2147483648	@ 0x80000000
 8009770:	f8c3 2180 	str.w	r2, [r3, #384]	@ 0x180
 8009774:	2701      	movs	r7, #1
 8009776:	f8c3 7184 	str.w	r7, [r3, #388]	@ 0x184
        I2C_SoftwareResetCmd(I2C1,FunctionalState::DISABLE);
 800977a:	2100      	movs	r1, #0
 800977c:	4630      	mov	r0, r6
 800977e:	f002 f8bf 	bl	800b900 <I2C_SoftwareResetCmd>
	BusReset();
 8009782:	4628      	mov	r0, r5
 8009784:	f7ff ff18 	bl	80095b8 <_ZN7I2C_DRV8BusResetEv>
	I2C_DeInit(I2C1);
 8009788:	4630      	mov	r0, r6
 800978a:	f001 fedd 	bl	800b548 <I2C_DeInit>
	I2C_StructInit(&I2C_InitStruct);
 800978e:	4668      	mov	r0, sp
 8009790:	f001 ffc0 	bl	800b714 <I2C_StructInit>
	I2C_InitStruct.I2C_ClockSpeed = 400000;									/* initialize the I2C_ClockSpeed member */
 8009794:	4b12      	ldr	r3, [pc, #72]	@ (80097e0 <_ZN7I2C_DRV4InitEv+0x90>)
 8009796:	9300      	str	r3, [sp, #0]
	I2C_InitStruct.I2C_DutyCycle = I2C_DutyCycle_2; 	  					/* Initialize the I2C_DutyCycle member */
 8009798:	f64b 73ff 	movw	r3, #49151	@ 0xbfff
 800979c:	f8ad 3006 	strh.w	r3, [sp, #6]
	I2C_InitStruct.I2C_OwnAddress1 = 0; 	  								/* Initialize the I2C_OwnAddress1 member */
 80097a0:	2300      	movs	r3, #0
 80097a2:	f8ad 3008 	strh.w	r3, [sp, #8]
	I2C_InitStruct.I2C_Ack = I2C_Ack_Disable; 	  							/* Initialize the I2C_Ack member */
 80097a6:	f8ad 300a 	strh.w	r3, [sp, #10]
	I2C_InitStruct.I2C_AcknowledgedAddress = 0x4700;//I2C_AcknowledgedAddress_7bit;	/* Initialize the I2C_AcknowledgedAddress member */
 80097aa:	f44f 438e 	mov.w	r3, #18176	@ 0x4700
 80097ae:	f8ad 300c 	strh.w	r3, [sp, #12]
	I2C_Init(I2C1, &I2C_InitStruct);
 80097b2:	4669      	mov	r1, sp
 80097b4:	4630      	mov	r0, r6
 80097b6:	f001 feeb 	bl	800b590 <I2C_Init>
	status &= GPIO_INIT();
 80097ba:	4628      	mov	r0, r5
 80097bc:	f7ff ff86 	bl	80096cc <_ZN7I2C_DRV9GPIO_INITEv>
 80097c0:	4604      	mov	r4, r0
	I2C_Cmd(I2C1, ENABLE);
 80097c2:	4639      	mov	r1, r7
 80097c4:	4630      	mov	r0, r6
 80097c6:	f001 ffc3 	bl	800b750 <I2C_Cmd>
	status &= IT_INIT();
 80097ca:	4628      	mov	r0, r5
 80097cc:	f7ff ffa0 	bl	8009710 <_ZN7I2C_DRV7IT_INITEv>
	return((ErrorStatus)status);
 80097d0:	4020      	ands	r0, r4
}
 80097d2:	4038      	ands	r0, r7
 80097d4:	b005      	add	sp, #20
 80097d6:	bdf0      	pop	{r4, r5, r6, r7, pc}
 80097d8:	40005400 	.word	0x40005400
 80097dc:	e000e100 	.word	0xe000e100
 80097e0:	00061a80 	.word	0x00061a80

080097e4 <_ZN7I2C_DRV8StartComEv>:
ErrorStatus I2C_DRV::StartCom(){
 80097e4:	b570      	push	{r4, r5, r6, lr}
	if (I2C_State != I2C_Idle)
 80097e6:	f890 5021 	ldrb.w	r5, [r0, #33]	@ 0x21
 80097ea:	2d00      	cmp	r5, #0
 80097ec:	d13d      	bne.n	800986a <_ZN7I2C_DRV8StartComEv+0x86>
 80097ee:	4604      	mov	r4, r0
	if ((TxMessage.pData == NULL) || (TxMessage.Length == 0))
 80097f0:	6983      	ldr	r3, [r0, #24]
 80097f2:	b10b      	cbz	r3, 80097f8 <_ZN7I2C_DRV8StartComEv+0x14>
 80097f4:	7f03      	ldrb	r3, [r0, #28]
 80097f6:	b923      	cbnz	r3, 8009802 <_ZN7I2C_DRV8StartComEv+0x1e>
		I2C_Last_Error = I2C_WrongParameters;
 80097f8:	2306      	movs	r3, #6
 80097fa:	f884 3020 	strb.w	r3, [r4, #32]
}
 80097fe:	4628      	mov	r0, r5
 8009800:	bd70      	pop	{r4, r5, r6, pc}
	I2C_Last_Error = I2C_NoError;
 8009802:	2200      	movs	r2, #0
 8009804:	f880 2020 	strb.w	r2, [r0, #32]
        I2C_ITConfig(I2C1, I2C_IT_EVT | I2C_IT_BUF | I2C_IT_ERR, DISABLE);
 8009808:	4e19      	ldr	r6, [pc, #100]	@ (8009870 <_ZN7I2C_DRV8StartComEv+0x8c>)
 800980a:	f44f 61e0 	mov.w	r1, #1792	@ 0x700
 800980e:	4630      	mov	r0, r6
 8009810:	f002 f81a 	bl	800b848 <I2C_ITConfig>
	I2C_ClearFlag(I2C1, I2C_FLAG_AF | I2C_FLAG_ARLO | I2C_FLAG_BERR);
 8009814:	4917      	ldr	r1, [pc, #92]	@ (8009874 <_ZN7I2C_DRV8StartComEv+0x90>)
 8009816:	4630      	mov	r0, r6
 8009818:	f002 f8e3 	bl	800b9e2 <I2C_ClearFlag>
	if (I2C_CheckEvent(I2C1,I2C_FLAG_BUSY)) //read flags in order to clear them, Check that is not still busy
 800981c:	f44f 3100 	mov.w	r1, #131072	@ 0x20000
 8009820:	4630      	mov	r0, r6
 8009822:	f002 f88e 	bl	800b942 <I2C_CheckEvent>
 8009826:	2800      	cmp	r0, #0
 8009828:	d1e9      	bne.n	80097fe <_ZN7I2C_DRV8StartComEv+0x1a>
	I2C_State = I2C_DeviceAddress;
 800982a:	2301      	movs	r3, #1
 800982c:	f884 3021 	strb.w	r3, [r4, #33]	@ 0x21
        I2C_GetLastEvent(I2C1);
 8009830:	4630      	mov	r0, r6
 8009832:	f002 f8b5 	bl	800b9a0 <I2C_GetLastEvent>
        if (I2C_CheckEvent(I2C1,I2C_EVENT_SLAVE_STOP_DETECTED))
 8009836:	2110      	movs	r1, #16
 8009838:	4630      	mov	r0, r6
 800983a:	f002 f882 	bl	800b942 <I2C_CheckEvent>
 800983e:	b980      	cbnz	r0, 8009862 <_ZN7I2C_DRV8StartComEv+0x7e>
	I2C_GenerateSTART(I2C1, ENABLE);
 8009840:	4e0b      	ldr	r6, [pc, #44]	@ (8009870 <_ZN7I2C_DRV8StartComEv+0x8c>)
 8009842:	2101      	movs	r1, #1
 8009844:	4630      	mov	r0, r6
 8009846:	f001 ffa2 	bl	800b78e <I2C_GenerateSTART>
	InterruptWatchdogCounter = 0;
 800984a:	2500      	movs	r5, #0
 800984c:	6265      	str	r5, [r4, #36]	@ 0x24
	I2C_ITConfig(I2C1, I2C_IT_EVT | I2C_IT_BUF | I2C_IT_ERR, ENABLE);
 800984e:	2201      	movs	r2, #1
 8009850:	f44f 61e0 	mov.w	r1, #1792	@ 0x700
 8009854:	4630      	mov	r0, r6
 8009856:	f001 fff7 	bl	800b848 <I2C_ITConfig>
        aaa = 0;
 800985a:	f884 5022 	strb.w	r5, [r4, #34]	@ 0x22
	return SUCCESS;
 800985e:	2501      	movs	r5, #1
 8009860:	e7cd      	b.n	80097fe <_ZN7I2C_DRV8StartComEv+0x1a>
          Init();
 8009862:	4620      	mov	r0, r4
 8009864:	f7ff ff74 	bl	8009750 <_ZN7I2C_DRV4InitEv>
 8009868:	e7ea      	b.n	8009840 <_ZN7I2C_DRV8StartComEv+0x5c>
		return ERROR;
 800986a:	2500      	movs	r5, #0
 800986c:	e7c7      	b.n	80097fe <_ZN7I2C_DRV8StartComEv+0x1a>
 800986e:	bf00      	nop
 8009870:	40005400 	.word	0x40005400
 8009874:	10000700 	.word	0x10000700

08009878 <_ZN7I2C_DRV5ResetEv>:
void I2C_DRV::Reset(){
 8009878:	b510      	push	{r4, lr}
 800987a:	4604      	mov	r4, r0
	I2C_ITConfig(I2C1, I2C_IT_EVT | I2C_IT_BUF | I2C_IT_ERR, DISABLE); //disable I2C interrupts
 800987c:	2200      	movs	r2, #0
 800987e:	f44f 61e0 	mov.w	r1, #1792	@ 0x700
 8009882:	4806      	ldr	r0, [pc, #24]	@ (800989c <_ZN7I2C_DRV5ResetEv+0x24>)
 8009884:	f001 ffe0 	bl	800b848 <I2C_ITConfig>
	I2C_State = I2C_Idle;
 8009888:	2300      	movs	r3, #0
 800988a:	f884 3021 	strb.w	r3, [r4, #33]	@ 0x21
	MsgStatus = Idle;
 800988e:	7023      	strb	r3, [r4, #0]
	I2C_Last_Error = I2C_NoError;
 8009890:	f884 3020 	strb.w	r3, [r4, #32]
	Init();
 8009894:	4620      	mov	r0, r4
 8009896:	f7ff ff5b 	bl	8009750 <_ZN7I2C_DRV4InitEv>
}
 800989a:	bd10      	pop	{r4, pc}
 800989c:	40005400 	.word	0x40005400

080098a0 <_ZN7I2C_DRV8WaitBusyEv>:
{
 80098a0:	e92d 41f0 	stmdb	sp!, {r4, r5, r6, r7, r8, lr}
 80098a4:	4605      	mov	r5, r0
  while (IsBusy()) 
 80098a6:	2400      	movs	r4, #0
		else if (I2C_CheckEvent(I2C1,I2C_FLAG_BUSY)){
 80098a8:	f8df 805c 	ldr.w	r8, [pc, #92]	@ 8009908 <_ZN7I2C_DRV8WaitBusyEv+0x68>
 80098ac:	f44f 3700 	mov.w	r7, #131072	@ 0x20000
			timeout++;
 80098b0:	4e16      	ldr	r6, [pc, #88]	@ (800990c <_ZN7I2C_DRV8WaitBusyEv+0x6c>)
 80098b2:	e006      	b.n	80098c2 <_ZN7I2C_DRV8WaitBusyEv+0x22>
		if ((MsgStatus != Idle && MsgStatus != MsgReady) || I2C_State != I2C_Idle)
 80098b4:	f895 3021 	ldrb.w	r3, [r5, #33]	@ 0x21
 80098b8:	b14b      	cbz	r3, 80098ce <_ZN7I2C_DRV8WaitBusyEv+0x2e>
    if (Timeout-- == 0) 
 80098ba:	3401      	adds	r4, #1
 80098bc:	f5b4 3f80 	cmp.w	r4, #65536	@ 0x10000
 80098c0:	d01f      	beq.n	8009902 <_ZN7I2C_DRV8WaitBusyEv+0x62>
 80098c2:	782b      	ldrb	r3, [r5, #0]
 80098c4:	2b00      	cmp	r3, #0
 80098c6:	d0f5      	beq.n	80098b4 <_ZN7I2C_DRV8WaitBusyEv+0x14>
 80098c8:	2b03      	cmp	r3, #3
 80098ca:	d1f6      	bne.n	80098ba <_ZN7I2C_DRV8WaitBusyEv+0x1a>
 80098cc:	e7f2      	b.n	80098b4 <_ZN7I2C_DRV8WaitBusyEv+0x14>
		else if (I2C_CheckEvent(I2C1,I2C_FLAG_BUSY)){
 80098ce:	4639      	mov	r1, r7
 80098d0:	4640      	mov	r0, r8
 80098d2:	f002 f836 	bl	800b942 <I2C_CheckEvent>
 80098d6:	b170      	cbz	r0, 80098f6 <_ZN7I2C_DRV8WaitBusyEv+0x56>
			timeout++;
 80098d8:	8833      	ldrh	r3, [r6, #0]
 80098da:	3301      	adds	r3, #1
 80098dc:	b29b      	uxth	r3, r3
 80098de:	8033      	strh	r3, [r6, #0]
			if (timeout == 0xFFF){
 80098e0:	f640 72ff 	movw	r2, #4095	@ 0xfff
 80098e4:	4293      	cmp	r3, r2
 80098e6:	d1e8      	bne.n	80098ba <_ZN7I2C_DRV8WaitBusyEv+0x1a>
				Reset();
 80098e8:	4628      	mov	r0, r5
 80098ea:	f7ff ffc5 	bl	8009878 <_ZN7I2C_DRV5ResetEv>
				timeout =0;
 80098ee:	4b07      	ldr	r3, [pc, #28]	@ (800990c <_ZN7I2C_DRV8WaitBusyEv+0x6c>)
 80098f0:	2200      	movs	r2, #0
 80098f2:	801a      	strh	r2, [r3, #0]
 80098f4:	e7e1      	b.n	80098ba <_ZN7I2C_DRV8WaitBusyEv+0x1a>
			timeout =0;
 80098f6:	4b05      	ldr	r3, [pc, #20]	@ (800990c <_ZN7I2C_DRV8WaitBusyEv+0x6c>)
 80098f8:	2200      	movs	r2, #0
 80098fa:	801a      	strh	r2, [r3, #0]
  return SUCCESS;
 80098fc:	2001      	movs	r0, #1
}
 80098fe:	e8bd 81f0 	ldmia.w	sp!, {r4, r5, r6, r7, r8, pc}
      return ERROR;
 8009902:	2000      	movs	r0, #0
 8009904:	e7fb      	b.n	80098fe <_ZN7I2C_DRV8WaitBusyEv+0x5e>
 8009906:	bf00      	nop
 8009908:	40005400 	.word	0x40005400
 800990c:	200003ac 	.word	0x200003ac

08009910 <_ZN7I2C_DRV11SendMessageEPK8TxI2CMsg>:
ErrorStatus I2C_DRV::SendMessage(const TxI2CMsg* Message){
 8009910:	b538      	push	{r3, r4, r5, lr}
 8009912:	4604      	mov	r4, r0
 8009914:	460d      	mov	r5, r1
		if ((MsgStatus != Idle && MsgStatus != MsgReady) || I2C_State != I2C_Idle)
 8009916:	7803      	ldrb	r3, [r0, #0]
 8009918:	b10b      	cbz	r3, 800991e <_ZN7I2C_DRV11SendMessageEPK8TxI2CMsg+0xe>
 800991a:	2b03      	cmp	r3, #3
 800991c:	d102      	bne.n	8009924 <_ZN7I2C_DRV11SendMessageEPK8TxI2CMsg+0x14>
 800991e:	f894 3021 	ldrb.w	r3, [r4, #33]	@ 0x21
 8009922:	b10b      	cbz	r3, 8009928 <_ZN7I2C_DRV11SendMessageEPK8TxI2CMsg+0x18>
		return ERROR;
 8009924:	2000      	movs	r0, #0
}
 8009926:	bd38      	pop	{r3, r4, r5, pc}
		else if (I2C_CheckEvent(I2C1,I2C_FLAG_BUSY)){
 8009928:	f44f 3100 	mov.w	r1, #131072	@ 0x20000
 800992c:	4811      	ldr	r0, [pc, #68]	@ (8009974 <_ZN7I2C_DRV11SendMessageEPK8TxI2CMsg+0x64>)
 800992e:	f002 f808 	bl	800b942 <I2C_CheckEvent>
 8009932:	b178      	cbz	r0, 8009954 <_ZN7I2C_DRV11SendMessageEPK8TxI2CMsg+0x44>
			timeout++;
 8009934:	4a10      	ldr	r2, [pc, #64]	@ (8009978 <_ZN7I2C_DRV11SendMessageEPK8TxI2CMsg+0x68>)
 8009936:	8813      	ldrh	r3, [r2, #0]
 8009938:	3301      	adds	r3, #1
 800993a:	b29b      	uxth	r3, r3
 800993c:	8013      	strh	r3, [r2, #0]
			if (timeout == 0xFFF){
 800993e:	f640 72ff 	movw	r2, #4095	@ 0xfff
 8009942:	4293      	cmp	r3, r2
 8009944:	d1ee      	bne.n	8009924 <_ZN7I2C_DRV11SendMessageEPK8TxI2CMsg+0x14>
				Reset();
 8009946:	4620      	mov	r0, r4
 8009948:	f7ff ff96 	bl	8009878 <_ZN7I2C_DRV5ResetEv>
				timeout =0;
 800994c:	4b0a      	ldr	r3, [pc, #40]	@ (8009978 <_ZN7I2C_DRV11SendMessageEPK8TxI2CMsg+0x68>)
 800994e:	2200      	movs	r2, #0
 8009950:	801a      	strh	r2, [r3, #0]
 8009952:	e7e7      	b.n	8009924 <_ZN7I2C_DRV11SendMessageEPK8TxI2CMsg+0x14>
			timeout =0;
 8009954:	4b08      	ldr	r3, [pc, #32]	@ (8009978 <_ZN7I2C_DRV11SendMessageEPK8TxI2CMsg+0x68>)
 8009956:	2200      	movs	r2, #0
 8009958:	801a      	strh	r2, [r3, #0]
	TxMessage.Address = Message->Address;
 800995a:	782b      	ldrb	r3, [r5, #0]
 800995c:	7523      	strb	r3, [r4, #20]
	TxMessage.Length = Message->Length;
 800995e:	7a2b      	ldrb	r3, [r5, #8]
 8009960:	7723      	strb	r3, [r4, #28]
	TxMessage.pData = Message->pData;
 8009962:	686b      	ldr	r3, [r5, #4]
 8009964:	61a3      	str	r3, [r4, #24]
	MsgStatus = Transmiting;
 8009966:	2302      	movs	r3, #2
 8009968:	7023      	strb	r3, [r4, #0]
	return StartCom();
 800996a:	4620      	mov	r0, r4
 800996c:	f7ff ff3a 	bl	80097e4 <_ZN7I2C_DRV8StartComEv>
 8009970:	e7d9      	b.n	8009926 <_ZN7I2C_DRV11SendMessageEPK8TxI2CMsg+0x16>
 8009972:	bf00      	nop
 8009974:	40005400 	.word	0x40005400
 8009978:	200003ac 	.word	0x200003ac

0800997c <_ZN7I2C_DRV18SendRequestMessageEPK8TxI2CMsgP8RxI2CMsg>:
ErrorStatus I2C_DRV::SendRequestMessage(const TxI2CMsg* pTxMessage, RxI2CMsg* pRxMessage){
 800997c:	b570      	push	{r4, r5, r6, lr}
 800997e:	4604      	mov	r4, r0
 8009980:	460e      	mov	r6, r1
 8009982:	4615      	mov	r5, r2
		if ((MsgStatus != Idle && MsgStatus != MsgReady) || I2C_State != I2C_Idle)
 8009984:	7803      	ldrb	r3, [r0, #0]
 8009986:	b10b      	cbz	r3, 800998c <_ZN7I2C_DRV18SendRequestMessageEPK8TxI2CMsgP8RxI2CMsg+0x10>
 8009988:	2b03      	cmp	r3, #3
 800998a:	d102      	bne.n	8009992 <_ZN7I2C_DRV18SendRequestMessageEPK8TxI2CMsgP8RxI2CMsg+0x16>
 800998c:	f894 3021 	ldrb.w	r3, [r4, #33]	@ 0x21
 8009990:	b10b      	cbz	r3, 8009996 <_ZN7I2C_DRV18SendRequestMessageEPK8TxI2CMsgP8RxI2CMsg+0x1a>
		return ERROR;
 8009992:	2000      	movs	r0, #0
}
 8009994:	bd70      	pop	{r4, r5, r6, pc}
		else if (I2C_CheckEvent(I2C1,I2C_FLAG_BUSY)){
 8009996:	f44f 3100 	mov.w	r1, #131072	@ 0x20000
 800999a:	4815      	ldr	r0, [pc, #84]	@ (80099f0 <_ZN7I2C_DRV18SendRequestMessageEPK8TxI2CMsgP8RxI2CMsg+0x74>)
 800999c:	f001 ffd1 	bl	800b942 <I2C_CheckEvent>
 80099a0:	b178      	cbz	r0, 80099c2 <_ZN7I2C_DRV18SendRequestMessageEPK8TxI2CMsgP8RxI2CMsg+0x46>
			timeout++;
 80099a2:	4a14      	ldr	r2, [pc, #80]	@ (80099f4 <_ZN7I2C_DRV18SendRequestMessageEPK8TxI2CMsgP8RxI2CMsg+0x78>)
 80099a4:	8813      	ldrh	r3, [r2, #0]
 80099a6:	3301      	adds	r3, #1
 80099a8:	b29b      	uxth	r3, r3
 80099aa:	8013      	strh	r3, [r2, #0]
			if (timeout == 0xFFF){
 80099ac:	f640 72ff 	movw	r2, #4095	@ 0xfff
 80099b0:	4293      	cmp	r3, r2
 80099b2:	d1ee      	bne.n	8009992 <_ZN7I2C_DRV18SendRequestMessageEPK8TxI2CMsgP8RxI2CMsg+0x16>
				Reset();
 80099b4:	4620      	mov	r0, r4
 80099b6:	f7ff ff5f 	bl	8009878 <_ZN7I2C_DRV5ResetEv>
				timeout =0;
 80099ba:	4b0e      	ldr	r3, [pc, #56]	@ (80099f4 <_ZN7I2C_DRV18SendRequestMessageEPK8TxI2CMsgP8RxI2CMsg+0x78>)
 80099bc:	2200      	movs	r2, #0
 80099be:	801a      	strh	r2, [r3, #0]
 80099c0:	e7e7      	b.n	8009992 <_ZN7I2C_DRV18SendRequestMessageEPK8TxI2CMsgP8RxI2CMsg+0x16>
			timeout =0;
 80099c2:	4b0c      	ldr	r3, [pc, #48]	@ (80099f4 <_ZN7I2C_DRV18SendRequestMessageEPK8TxI2CMsgP8RxI2CMsg+0x78>)
 80099c4:	2200      	movs	r2, #0
 80099c6:	801a      	strh	r2, [r3, #0]
	RxMessage.Address = pRxMessage->Address;
 80099c8:	782b      	ldrb	r3, [r5, #0]
 80099ca:	7123      	strb	r3, [r4, #4]
	RxMessage.Length = pRxMessage->Length;
 80099cc:	7a2b      	ldrb	r3, [r5, #8]
 80099ce:	7323      	strb	r3, [r4, #12]
	RxMessage.pData = pRxMessage->pData;
 80099d0:	686b      	ldr	r3, [r5, #4]
 80099d2:	60a3      	str	r3, [r4, #8]
        RxMessage.timeStamp = pRxMessage->timeStamp;
 80099d4:	68eb      	ldr	r3, [r5, #12]
 80099d6:	6123      	str	r3, [r4, #16]
	TxMessage.Address = pTxMessage->Address;
 80099d8:	7833      	ldrb	r3, [r6, #0]
 80099da:	7523      	strb	r3, [r4, #20]
	TxMessage.Length = pTxMessage->Length;
 80099dc:	7a33      	ldrb	r3, [r6, #8]
 80099de:	7723      	strb	r3, [r4, #28]
	TxMessage.pData = pTxMessage->pData;
 80099e0:	6873      	ldr	r3, [r6, #4]
 80099e2:	61a3      	str	r3, [r4, #24]
	MsgStatus = Transcieving;
 80099e4:	2304      	movs	r3, #4
 80099e6:	7023      	strb	r3, [r4, #0]
	return StartCom();
 80099e8:	4620      	mov	r0, r4
 80099ea:	f7ff fefb 	bl	80097e4 <_ZN7I2C_DRV8StartComEv>
 80099ee:	e7d1      	b.n	8009994 <_ZN7I2C_DRV18SendRequestMessageEPK8TxI2CMsgP8RxI2CMsg+0x18>
 80099f0:	40005400 	.word	0x40005400
 80099f4:	200003ac 	.word	0x200003ac

080099f8 <_ZN7I2C_DRV11I2C_HandlerEv>:
void I2C_DRV::I2C_Handler(void){
 80099f8:	b538      	push	{r3, r4, r5, lr}
 80099fa:	4604      	mov	r4, r0
	InterruptWatchdogCounter++;
 80099fc:	6a43      	ldr	r3, [r0, #36]	@ 0x24
 80099fe:	3301      	adds	r3, #1
 8009a00:	6243      	str	r3, [r0, #36]	@ 0x24
	if (InterruptWatchdogCounter >= I2C_INTERRUPT_WD_MAX)
 8009a02:	f5b3 7f00 	cmp.w	r3, #512	@ 0x200
 8009a06:	da10      	bge.n	8009a2a <_ZN7I2C_DRV11I2C_HandlerEv+0x32>
	switch (I2C_State)
 8009a08:	f890 3021 	ldrb.w	r3, [r0, #33]	@ 0x21
 8009a0c:	2b09      	cmp	r3, #9
 8009a0e:	f200 811f 	bhi.w	8009c50 <_ZN7I2C_DRV11I2C_HandlerEv+0x258>
 8009a12:	e8df f013 	tbh	[pc, r3, lsl #1]
 8009a16:	001c      	.short	0x001c
 8009a18:	011d0026 	.word	0x011d0026
 8009a1c:	00790055 	.word	0x00790055
 8009a20:	00b20095 	.word	0x00b20095
 8009a24:	00f400d0 	.word	0x00f400d0
 8009a28:	010d      	.short	0x010d
		I2C_GetLastEvent(I2C1);
 8009a2a:	4d8b      	ldr	r5, [pc, #556]	@ (8009c58 <_ZN7I2C_DRV11I2C_HandlerEv+0x260>)
 8009a2c:	4628      	mov	r0, r5
 8009a2e:	f001 ffb7 	bl	800b9a0 <I2C_GetLastEvent>
		I2C_Last_Error = I2C_InterruptWatchdog;
 8009a32:	2305      	movs	r3, #5
 8009a34:	f884 3020 	strb.w	r3, [r4, #32]
		I2C_ITConfig(I2C1, I2C_IT_EVT | I2C_IT_BUF | I2C_IT_ERR, DISABLE);
 8009a38:	2200      	movs	r2, #0
 8009a3a:	f44f 61e0 	mov.w	r1, #1792	@ 0x700
 8009a3e:	4628      	mov	r0, r5
 8009a40:	f001 ff02 	bl	800b848 <I2C_ITConfig>
		I2C_State = I2C_Idle;
 8009a44:	2300      	movs	r3, #0
 8009a46:	f884 3021 	strb.w	r3, [r4, #33]	@ 0x21
		MsgStatus = Idle;
 8009a4a:	7023      	strb	r3, [r4, #0]
}
 8009a4c:	bd38      	pop	{r3, r4, r5, pc}
	        if (!I2C_CheckEvent(I2C1,I2C_EVENT_SLAVE_STOP_DETECTED))
 8009a4e:	2110      	movs	r1, #16
 8009a50:	4881      	ldr	r0, [pc, #516]	@ (8009c58 <_ZN7I2C_DRV11I2C_HandlerEv+0x260>)
 8009a52:	f001 ff76 	bl	800b942 <I2C_CheckEvent>
 8009a56:	2800      	cmp	r0, #0
 8009a58:	d0f8      	beq.n	8009a4c <_ZN7I2C_DRV11I2C_HandlerEv+0x54>
                Init();
 8009a5a:	4620      	mov	r0, r4
 8009a5c:	f7ff fe78 	bl	8009750 <_ZN7I2C_DRV4InitEv>
                break; // dealet with at the default case
 8009a60:	e7f4      	b.n	8009a4c <_ZN7I2C_DRV11I2C_HandlerEv+0x54>
          if (!I2C_CheckEvent(I2C1,I2C_EVENT_MASTER_MODE_SELECT)){ //EV5 - BUSY, MSL, SB
 8009a62:	497e      	ldr	r1, [pc, #504]	@ (8009c5c <_ZN7I2C_DRV11I2C_HandlerEv+0x264>)
 8009a64:	487c      	ldr	r0, [pc, #496]	@ (8009c58 <_ZN7I2C_DRV11I2C_HandlerEv+0x260>)
 8009a66:	f001 ff6c 	bl	800b942 <I2C_CheckEvent>
 8009a6a:	b918      	cbnz	r0, 8009a74 <_ZN7I2C_DRV11I2C_HandlerEv+0x7c>
		aaa = 1;	
 8009a6c:	2301      	movs	r3, #1
 8009a6e:	f884 3022 	strb.w	r3, [r4, #34]	@ 0x22
            break; //error
 8009a72:	e7eb      	b.n	8009a4c <_ZN7I2C_DRV11I2C_HandlerEv+0x54>
		if (MsgStatus == Recieving)
 8009a74:	7823      	ldrb	r3, [r4, #0]
 8009a76:	2b01      	cmp	r3, #1
 8009a78:	d00a      	beq.n	8009a90 <_ZN7I2C_DRV11I2C_HandlerEv+0x98>
		else if (MsgStatus == Transmiting || MsgStatus == Transcieving)
 8009a7a:	2b02      	cmp	r3, #2
 8009a7c:	d014      	beq.n	8009aa8 <_ZN7I2C_DRV11I2C_HandlerEv+0xb0>
 8009a7e:	2b04      	cmp	r3, #4
 8009a80:	d012      	beq.n	8009aa8 <_ZN7I2C_DRV11I2C_HandlerEv+0xb0>
		ByteCounter = 0;
 8009a82:	4b77      	ldr	r3, [pc, #476]	@ (8009c60 <_ZN7I2C_DRV11I2C_HandlerEv+0x268>)
 8009a84:	2200      	movs	r2, #0
 8009a86:	701a      	strb	r2, [r3, #0]
                aaa = 3;
 8009a88:	2303      	movs	r3, #3
 8009a8a:	f884 3022 	strb.w	r3, [r4, #34]	@ 0x22
		break;
 8009a8e:	e7dd      	b.n	8009a4c <_ZN7I2C_DRV11I2C_HandlerEv+0x54>
			I2C_Send7bitAddress(I2C1,RxMessage.Address << 1, I2C_Direction_Receiver);
 8009a90:	7921      	ldrb	r1, [r4, #4]
 8009a92:	0049      	lsls	r1, r1, #1
 8009a94:	2201      	movs	r2, #1
 8009a96:	f001 01fe 	and.w	r1, r1, #254	@ 0xfe
 8009a9a:	486f      	ldr	r0, [pc, #444]	@ (8009c58 <_ZN7I2C_DRV11I2C_HandlerEv+0x260>)
 8009a9c:	f001 ff13 	bl	800b8c6 <I2C_Send7bitAddress>
			I2C_State = I2C_PrepareDataRead;
 8009aa0:	2306      	movs	r3, #6
 8009aa2:	f884 3021 	strb.w	r3, [r4, #33]	@ 0x21
 8009aa6:	e7ec      	b.n	8009a82 <_ZN7I2C_DRV11I2C_HandlerEv+0x8a>
			I2C_Send7bitAddress(I2C1, TxMessage.Address << 1, I2C_Direction_Transmitter);
 8009aa8:	7d21      	ldrb	r1, [r4, #20]
 8009aaa:	0049      	lsls	r1, r1, #1
 8009aac:	2200      	movs	r2, #0
 8009aae:	f001 01fe 	and.w	r1, r1, #254	@ 0xfe
 8009ab2:	4869      	ldr	r0, [pc, #420]	@ (8009c58 <_ZN7I2C_DRV11I2C_HandlerEv+0x260>)
 8009ab4:	f001 ff07 	bl	800b8c6 <I2C_Send7bitAddress>
			I2C_State = I2C_DataWrite;
 8009ab8:	2303      	movs	r3, #3
 8009aba:	f884 3021 	strb.w	r3, [r4, #33]	@ 0x21
 8009abe:	e7e0      	b.n	8009a82 <_ZN7I2C_DRV11I2C_HandlerEv+0x8a>
		if (!I2C_CheckEvent(I2C1, I2C_EVENT_MASTER_BYTE_TRANSMITTING) )   //EV6 - BUSY, MSL, TRA, TXE
 8009ac0:	4968      	ldr	r1, [pc, #416]	@ (8009c64 <_ZN7I2C_DRV11I2C_HandlerEv+0x26c>)
 8009ac2:	4865      	ldr	r0, [pc, #404]	@ (8009c58 <_ZN7I2C_DRV11I2C_HandlerEv+0x260>)
 8009ac4:	f001 ff3d 	bl	800b942 <I2C_CheckEvent>
 8009ac8:	2800      	cmp	r0, #0
 8009aca:	d0bf      	beq.n	8009a4c <_ZN7I2C_DRV11I2C_HandlerEv+0x54>
		I2C_SendData(I2C1,TxMessage.pData[ByteCounter]);
 8009acc:	4d64      	ldr	r5, [pc, #400]	@ (8009c60 <_ZN7I2C_DRV11I2C_HandlerEv+0x268>)
 8009ace:	782b      	ldrb	r3, [r5, #0]
 8009ad0:	69a2      	ldr	r2, [r4, #24]
 8009ad2:	5cd1      	ldrb	r1, [r2, r3]
 8009ad4:	4860      	ldr	r0, [pc, #384]	@ (8009c58 <_ZN7I2C_DRV11I2C_HandlerEv+0x260>)
 8009ad6:	f001 feda 	bl	800b88e <I2C_SendData>
		ByteCounter++;
 8009ada:	782b      	ldrb	r3, [r5, #0]
 8009adc:	3301      	adds	r3, #1
 8009ade:	b2db      	uxtb	r3, r3
 8009ae0:	702b      	strb	r3, [r5, #0]
		if (ByteCounter >= TxMessage.Length) //all data transmitted
 8009ae2:	7f22      	ldrb	r2, [r4, #28]
 8009ae4:	429a      	cmp	r2, r3
 8009ae6:	d8b1      	bhi.n	8009a4c <_ZN7I2C_DRV11I2C_HandlerEv+0x54>
			if (MsgStatus == Transcieving)
 8009ae8:	7823      	ldrb	r3, [r4, #0]
 8009aea:	2b04      	cmp	r3, #4
 8009aec:	d102      	bne.n	8009af4 <_ZN7I2C_DRV11I2C_HandlerEv+0xfc>
				I2C_State = I2C_ReStart;
 8009aee:	f884 3021 	strb.w	r3, [r4, #33]	@ 0x21
 8009af2:	e7ab      	b.n	8009a4c <_ZN7I2C_DRV11I2C_HandlerEv+0x54>
				I2C_ITConfig(I2C1, I2C_IT_BUF, DISABLE);
 8009af4:	2200      	movs	r2, #0
 8009af6:	f44f 6180 	mov.w	r1, #1024	@ 0x400
 8009afa:	4857      	ldr	r0, [pc, #348]	@ (8009c58 <_ZN7I2C_DRV11I2C_HandlerEv+0x260>)
 8009afc:	f001 fea4 	bl	800b848 <I2C_ITConfig>
				I2C_State = I2C_Stop;
 8009b00:	2309      	movs	r3, #9
 8009b02:	f884 3021 	strb.w	r3, [r4, #33]	@ 0x21
 8009b06:	e7a1      	b.n	8009a4c <_ZN7I2C_DRV11I2C_HandlerEv+0x54>
		if (!I2C_CheckEvent(I2C1, I2C_EVENT_MASTER_BYTE_TRANSMITTED)) //EV8_2 - TRA, BUSY, MSL, TXE and BTF flags
 8009b08:	4957      	ldr	r1, [pc, #348]	@ (8009c68 <_ZN7I2C_DRV11I2C_HandlerEv+0x270>)
 8009b0a:	4853      	ldr	r0, [pc, #332]	@ (8009c58 <_ZN7I2C_DRV11I2C_HandlerEv+0x260>)
 8009b0c:	f001 ff19 	bl	800b942 <I2C_CheckEvent>
 8009b10:	2800      	cmp	r0, #0
 8009b12:	d09b      	beq.n	8009a4c <_ZN7I2C_DRV11I2C_HandlerEv+0x54>
		I2C_ITConfig(I2C1, I2C_IT_BUF, DISABLE);
 8009b14:	4d50      	ldr	r5, [pc, #320]	@ (8009c58 <_ZN7I2C_DRV11I2C_HandlerEv+0x260>)
 8009b16:	2200      	movs	r2, #0
 8009b18:	f44f 6180 	mov.w	r1, #1024	@ 0x400
 8009b1c:	4628      	mov	r0, r5
 8009b1e:	f001 fe93 	bl	800b848 <I2C_ITConfig>
                I2C_AcknowledgeConfig(I2C1, ENABLE); //Enable acknowledgement
 8009b22:	2101      	movs	r1, #1
 8009b24:	4628      	mov	r0, r5
 8009b26:	f001 fe70 	bl	800b80a <I2C_AcknowledgeConfig>
		I2C_GenerateSTART(I2C1, ENABLE);
 8009b2a:	2101      	movs	r1, #1
 8009b2c:	4628      	mov	r0, r5
 8009b2e:	f001 fe2e 	bl	800b78e <I2C_GenerateSTART>
		ByteCounter = 0;
 8009b32:	4b4b      	ldr	r3, [pc, #300]	@ (8009c60 <_ZN7I2C_DRV11I2C_HandlerEv+0x268>)
 8009b34:	2200      	movs	r2, #0
 8009b36:	701a      	strb	r2, [r3, #0]
		I2C_State = I2C_DeviceAddress2;
 8009b38:	2305      	movs	r3, #5
 8009b3a:	f884 3021 	strb.w	r3, [r4, #33]	@ 0x21
		break;
 8009b3e:	e785      	b.n	8009a4c <_ZN7I2C_DRV11I2C_HandlerEv+0x54>
		if (!I2C_CheckEvent(I2C1, I2C_EVENT_MASTER_MODE_SELECT) ) //EV5 - BUSY, MSL, SB
 8009b40:	4946      	ldr	r1, [pc, #280]	@ (8009c5c <_ZN7I2C_DRV11I2C_HandlerEv+0x264>)
 8009b42:	4845      	ldr	r0, [pc, #276]	@ (8009c58 <_ZN7I2C_DRV11I2C_HandlerEv+0x260>)
 8009b44:	f001 fefd 	bl	800b942 <I2C_CheckEvent>
 8009b48:	b920      	cbnz	r0, 8009b54 <_ZN7I2C_DRV11I2C_HandlerEv+0x15c>
			ByteCounter++;
 8009b4a:	4a45      	ldr	r2, [pc, #276]	@ (8009c60 <_ZN7I2C_DRV11I2C_HandlerEv+0x268>)
 8009b4c:	7813      	ldrb	r3, [r2, #0]
 8009b4e:	3301      	adds	r3, #1
 8009b50:	7013      	strb	r3, [r2, #0]
			if (ByteCounter > 10) //let 100usec (2 I2C clockes) before declering error
 8009b52:	e77b      	b.n	8009a4c <_ZN7I2C_DRV11I2C_HandlerEv+0x54>
		I2C_Send7bitAddress(I2C1, RxMessage.Address << 1, I2C_Direction_Receiver);
 8009b54:	7921      	ldrb	r1, [r4, #4]
 8009b56:	0049      	lsls	r1, r1, #1
 8009b58:	4d3f      	ldr	r5, [pc, #252]	@ (8009c58 <_ZN7I2C_DRV11I2C_HandlerEv+0x260>)
 8009b5a:	2201      	movs	r2, #1
 8009b5c:	f001 01fe 	and.w	r1, r1, #254	@ 0xfe
 8009b60:	4628      	mov	r0, r5
 8009b62:	f001 feb0 	bl	800b8c6 <I2C_Send7bitAddress>
		I2C_ITConfig(I2C1, I2C_IT_BUF, ENABLE);
 8009b66:	2201      	movs	r2, #1
 8009b68:	f44f 6180 	mov.w	r1, #1024	@ 0x400
 8009b6c:	4628      	mov	r0, r5
 8009b6e:	f001 fe6b 	bl	800b848 <I2C_ITConfig>
		I2C_State = I2C_PrepareDataRead;
 8009b72:	2306      	movs	r3, #6
 8009b74:	f884 3021 	strb.w	r3, [r4, #33]	@ 0x21
		break;
 8009b78:	e768      	b.n	8009a4c <_ZN7I2C_DRV11I2C_HandlerEv+0x54>
		if (!I2C_CheckEvent(I2C1, I2C_EVENT_MASTER_RECEIVER_MODE_SELECTED))  //EV6(for rx) - BUSY, MSL, ADDR
 8009b7a:	493c      	ldr	r1, [pc, #240]	@ (8009c6c <_ZN7I2C_DRV11I2C_HandlerEv+0x274>)
 8009b7c:	4836      	ldr	r0, [pc, #216]	@ (8009c58 <_ZN7I2C_DRV11I2C_HandlerEv+0x260>)
 8009b7e:	f001 fee0 	bl	800b942 <I2C_CheckEvent>
 8009b82:	2800      	cmp	r0, #0
 8009b84:	f43f af62 	beq.w	8009a4c <_ZN7I2C_DRV11I2C_HandlerEv+0x54>
		ByteCounter = 0;
 8009b88:	4b35      	ldr	r3, [pc, #212]	@ (8009c60 <_ZN7I2C_DRV11I2C_HandlerEv+0x268>)
 8009b8a:	2200      	movs	r2, #0
 8009b8c:	701a      	strb	r2, [r3, #0]
		if (RxMessage.Length <= 1)
 8009b8e:	7b23      	ldrb	r3, [r4, #12]
 8009b90:	2b01      	cmp	r3, #1
 8009b92:	d903      	bls.n	8009b9c <_ZN7I2C_DRV11I2C_HandlerEv+0x1a4>
			I2C_State = I2C_DataRead;
 8009b94:	2307      	movs	r3, #7
 8009b96:	f884 3021 	strb.w	r3, [r4, #33]	@ 0x21
 8009b9a:	e757      	b.n	8009a4c <_ZN7I2C_DRV11I2C_HandlerEv+0x54>
			I2C_AcknowledgeConfig(I2C1, DISABLE); //Disable acknowledgement
 8009b9c:	4d2e      	ldr	r5, [pc, #184]	@ (8009c58 <_ZN7I2C_DRV11I2C_HandlerEv+0x260>)
 8009b9e:	4611      	mov	r1, r2
 8009ba0:	4628      	mov	r0, r5
 8009ba2:	f001 fe32 	bl	800b80a <I2C_AcknowledgeConfig>
			I2C_GenerateSTOP(I2C1, ENABLE); //Send STOP Condition
 8009ba6:	2101      	movs	r1, #1
 8009ba8:	4628      	mov	r0, r5
 8009baa:	f001 fe0f 	bl	800b7cc <I2C_GenerateSTOP>
			I2C_State = I2C_LastDataRead;
 8009bae:	2308      	movs	r3, #8
 8009bb0:	f884 3021 	strb.w	r3, [r4, #33]	@ 0x21
 8009bb4:	e74a      	b.n	8009a4c <_ZN7I2C_DRV11I2C_HandlerEv+0x54>
		if (!I2C_CheckEvent(I2C1, I2C_EVENT_MASTER_BYTE_RECEIVED))  //EV7 - BUSY, MSL, RXNE
 8009bb6:	492e      	ldr	r1, [pc, #184]	@ (8009c70 <_ZN7I2C_DRV11I2C_HandlerEv+0x278>)
 8009bb8:	4827      	ldr	r0, [pc, #156]	@ (8009c58 <_ZN7I2C_DRV11I2C_HandlerEv+0x260>)
 8009bba:	f001 fec2 	bl	800b942 <I2C_CheckEvent>
 8009bbe:	2800      	cmp	r0, #0
 8009bc0:	f43f af44 	beq.w	8009a4c <_ZN7I2C_DRV11I2C_HandlerEv+0x54>
		data = I2C_ReceiveData(I2C1);
 8009bc4:	4824      	ldr	r0, [pc, #144]	@ (8009c58 <_ZN7I2C_DRV11I2C_HandlerEv+0x260>)
 8009bc6:	f001 fe71 	bl	800b8ac <I2C_ReceiveData>
		RxMessage.pData[ByteCounter] = data ;
 8009bca:	4a25      	ldr	r2, [pc, #148]	@ (8009c60 <_ZN7I2C_DRV11I2C_HandlerEv+0x268>)
 8009bcc:	7813      	ldrb	r3, [r2, #0]
 8009bce:	68a1      	ldr	r1, [r4, #8]
 8009bd0:	54c8      	strb	r0, [r1, r3]
		ByteCounter++;
 8009bd2:	7813      	ldrb	r3, [r2, #0]
 8009bd4:	3301      	adds	r3, #1
 8009bd6:	b2db      	uxtb	r3, r3
 8009bd8:	7013      	strb	r3, [r2, #0]
		if (ByteCounter >= RxMessage.Length - 1) //received one before last byte
 8009bda:	7b22      	ldrb	r2, [r4, #12]
 8009bdc:	3a01      	subs	r2, #1
 8009bde:	4293      	cmp	r3, r2
 8009be0:	f6ff af34 	blt.w	8009a4c <_ZN7I2C_DRV11I2C_HandlerEv+0x54>
			I2C_AcknowledgeConfig(I2C1, DISABLE); //Disable acknowledgement
 8009be4:	4d1c      	ldr	r5, [pc, #112]	@ (8009c58 <_ZN7I2C_DRV11I2C_HandlerEv+0x260>)
 8009be6:	2100      	movs	r1, #0
 8009be8:	4628      	mov	r0, r5
 8009bea:	f001 fe0e 	bl	800b80a <I2C_AcknowledgeConfig>
			I2C_GenerateSTOP(I2C1, ENABLE); //Send STOP Condition
 8009bee:	2101      	movs	r1, #1
 8009bf0:	4628      	mov	r0, r5
 8009bf2:	f001 fdeb 	bl	800b7cc <I2C_GenerateSTOP>
			I2C_State = I2C_LastDataRead;
 8009bf6:	2308      	movs	r3, #8
 8009bf8:	f884 3021 	strb.w	r3, [r4, #33]	@ 0x21
 8009bfc:	e726      	b.n	8009a4c <_ZN7I2C_DRV11I2C_HandlerEv+0x54>
		if (!I2C_CheckEvent(I2C1,  I2C_FLAG_RXNE&0x00FFFFFF))
 8009bfe:	2140      	movs	r1, #64	@ 0x40
 8009c00:	4815      	ldr	r0, [pc, #84]	@ (8009c58 <_ZN7I2C_DRV11I2C_HandlerEv+0x260>)
 8009c02:	f001 fe9e 	bl	800b942 <I2C_CheckEvent>
 8009c06:	2800      	cmp	r0, #0
 8009c08:	f43f af20 	beq.w	8009a4c <_ZN7I2C_DRV11I2C_HandlerEv+0x54>
		data = I2C_ReceiveData(I2C1);
 8009c0c:	4812      	ldr	r0, [pc, #72]	@ (8009c58 <_ZN7I2C_DRV11I2C_HandlerEv+0x260>)
 8009c0e:	f001 fe4d 	bl	800b8ac <I2C_ReceiveData>
		RxMessage.pData[ByteCounter] = data ;
 8009c12:	4b13      	ldr	r3, [pc, #76]	@ (8009c60 <_ZN7I2C_DRV11I2C_HandlerEv+0x268>)
 8009c14:	781b      	ldrb	r3, [r3, #0]
 8009c16:	68a2      	ldr	r2, [r4, #8]
 8009c18:	54d0      	strb	r0, [r2, r3]
                if(RxMessage.timeStamp != NULL)
 8009c1a:	6925      	ldr	r5, [r4, #16]
 8009c1c:	b115      	cbz	r5, 8009c24 <_ZN7I2C_DRV11I2C_HandlerEv+0x22c>
                  *(RxMessage.timeStamp) = getTimerTicks();
 8009c1e:	f000 fb57 	bl	800a2d0 <getTimerTicks>
 8009c22:	6028      	str	r0, [r5, #0]
		I2C_State = I2C_Idle;
 8009c24:	2300      	movs	r3, #0
 8009c26:	f884 3021 	strb.w	r3, [r4, #33]	@ 0x21
		MsgStatus = MsgReady;
 8009c2a:	2303      	movs	r3, #3
 8009c2c:	7023      	strb	r3, [r4, #0]
		break;
 8009c2e:	e70d      	b.n	8009a4c <_ZN7I2C_DRV11I2C_HandlerEv+0x54>
		if (!I2C_CheckEvent(I2C1, I2C_EVENT_MASTER_BYTE_TRANSMITTED)) //EV8_2 - TRA, BUSY, MSL, TXE and BTF flags
 8009c30:	490d      	ldr	r1, [pc, #52]	@ (8009c68 <_ZN7I2C_DRV11I2C_HandlerEv+0x270>)
 8009c32:	4809      	ldr	r0, [pc, #36]	@ (8009c58 <_ZN7I2C_DRV11I2C_HandlerEv+0x260>)
 8009c34:	f001 fe85 	bl	800b942 <I2C_CheckEvent>
 8009c38:	2800      	cmp	r0, #0
 8009c3a:	f43f af07 	beq.w	8009a4c <_ZN7I2C_DRV11I2C_HandlerEv+0x54>
		I2C_GenerateSTOP(I2C1, ENABLE);
 8009c3e:	2101      	movs	r1, #1
 8009c40:	4805      	ldr	r0, [pc, #20]	@ (8009c58 <_ZN7I2C_DRV11I2C_HandlerEv+0x260>)
 8009c42:	f001 fdc3 	bl	800b7cc <I2C_GenerateSTOP>
		I2C_State = I2C_Idle;
 8009c46:	2300      	movs	r3, #0
 8009c48:	f884 3021 	strb.w	r3, [r4, #33]	@ 0x21
		MsgStatus = Idle;
 8009c4c:	7023      	strb	r3, [r4, #0]
		break;
 8009c4e:	e6fd      	b.n	8009a4c <_ZN7I2C_DRV11I2C_HandlerEv+0x54>
		Reset(); //reset I2C module
 8009c50:	f7ff fe12 	bl	8009878 <_ZN7I2C_DRV5ResetEv>
		break;
 8009c54:	e6fa      	b.n	8009a4c <_ZN7I2C_DRV11I2C_HandlerEv+0x54>
 8009c56:	bf00      	nop
 8009c58:	40005400 	.word	0x40005400
 8009c5c:	00030001 	.word	0x00030001
 8009c60:	2000b490 	.word	0x2000b490
 8009c64:	00070080 	.word	0x00070080
 8009c68:	00070084 	.word	0x00070084
 8009c6c:	00030002 	.word	0x00030002
 8009c70:	00030040 	.word	0x00030040

08009c74 <I2C1_EV_IRQHandler>:

void I2C1_EV_IRQHandler(void)
{
 8009c74:	b510      	push	{r4, lr}
		if (!m_pInstance)   // Only allow one instance of class to be generated
 8009c76:	4b0c      	ldr	r3, [pc, #48]	@ (8009ca8 <I2C1_EV_IRQHandler+0x34>)
 8009c78:	681b      	ldr	r3, [r3, #0]
 8009c7a:	b123      	cbz	r3, 8009c86 <I2C1_EV_IRQHandler+0x12>
	I2C_DRV::Get_Instance()->I2C_Handler();
 8009c7c:	4b0a      	ldr	r3, [pc, #40]	@ (8009ca8 <I2C1_EV_IRQHandler+0x34>)
 8009c7e:	6818      	ldr	r0, [r3, #0]
 8009c80:	f7ff feba 	bl	80099f8 <_ZN7I2C_DRV11I2C_HandlerEv>
}
 8009c84:	bd10      	pop	{r4, pc}
			m_pInstance = new I2C_DRV;
 8009c86:	2028      	movs	r0, #40	@ 0x28
 8009c88:	f002 f936 	bl	800bef8 <_Znwj>
 8009c8c:	4604      	mov	r4, r0
	I2C_DRV(){
 8009c8e:	2300      	movs	r3, #0
 8009c90:	7003      	strb	r3, [r0, #0]
} RxI2CMsg;
 8009c92:	6103      	str	r3, [r0, #16]
	I2C_DRV(){
 8009c94:	f880 3021 	strb.w	r3, [r0, #33]	@ 0x21
 8009c98:	f880 3022 	strb.w	r3, [r0, #34]	@ 0x22
 8009c9c:	6243      	str	r3, [r0, #36]	@ 0x24
		Reset();
 8009c9e:	f7ff fdeb 	bl	8009878 <_ZN7I2C_DRV5ResetEv>
			m_pInstance = new I2C_DRV;
 8009ca2:	4b01      	ldr	r3, [pc, #4]	@ (8009ca8 <I2C1_EV_IRQHandler+0x34>)
 8009ca4:	601c      	str	r4, [r3, #0]
 8009ca6:	e7e9      	b.n	8009c7c <I2C1_EV_IRQHandler+0x8>
 8009ca8:	2000b494 	.word	0x2000b494

08009cac <I2C1_ER_IRQHandler>:

void I2C1_ER_IRQHandler(void)
{
 8009cac:	b570      	push	{r4, r5, r6, lr}
		if (!m_pInstance)   // Only allow one instance of class to be generated
 8009cae:	4b32      	ldr	r3, [pc, #200]	@ (8009d78 <I2C1_ER_IRQHandler+0xcc>)
 8009cb0:	681b      	ldr	r3, [r3, #0]
 8009cb2:	b323      	cbz	r3, 8009cfe <I2C1_ER_IRQHandler+0x52>
		return m_pInstance;
 8009cb4:	4b30      	ldr	r3, [pc, #192]	@ (8009d78 <I2C1_ER_IRQHandler+0xcc>)
 8009cb6:	681d      	ldr	r5, [r3, #0]
	lastevent = I2C_GetLastEvent(I2C1);
 8009cb8:	4e30      	ldr	r6, [pc, #192]	@ (8009d7c <I2C1_ER_IRQHandler+0xd0>)
 8009cba:	4630      	mov	r0, r6
 8009cbc:	f001 fe70 	bl	800b9a0 <I2C_GetLastEvent>
 8009cc0:	4604      	mov	r4, r0
	I2C_ITConfig(I2C1, I2C_IT_EVT | I2C_IT_BUF | I2C_IT_ERR, DISABLE);
 8009cc2:	2200      	movs	r2, #0
 8009cc4:	f44f 61e0 	mov.w	r1, #1792	@ 0x700
 8009cc8:	4630      	mov	r0, r6
 8009cca:	f001 fdbd 	bl	800b848 <I2C_ITConfig>
	I2C_State = I2C_Idle;
 8009cce:	2300      	movs	r3, #0
 8009cd0:	f885 3021 	strb.w	r3, [r5, #33]	@ 0x21
	MsgStatus = Idle;
 8009cd4:	702b      	strb	r3, [r5, #0]
	if (bIsFlagsSet(lastevent, I2C_FLAG_TIMEOUT)){ //Timeout Error
 8009cd6:	f414 4f80 	tst.w	r4, #16384	@ 0x4000
 8009cda:	d121      	bne.n	8009d20 <I2C1_ER_IRQHandler+0x74>
	int bNoStop = true;
 8009cdc:	2301      	movs	r3, #1
	if (bIsFlagsSet(lastevent , I2C_FLAG_AF)){
 8009cde:	f414 6f80 	tst.w	r4, #1024	@ 0x400
 8009ce2:	d126      	bne.n	8009d32 <I2C1_ER_IRQHandler+0x86>
	if (bIsFlagsSet(lastevent , I2C_FLAG_ARLO)){
 8009ce4:	f414 7f00 	tst.w	r4, #512	@ 0x200
 8009ce8:	d12c      	bne.n	8009d44 <I2C1_ER_IRQHandler+0x98>
	if (bIsFlagsSet(lastevent , I2C_FLAG_BERR)){
 8009cea:	f414 7f80 	tst.w	r4, #256	@ 0x100
 8009cee:	d136      	bne.n	8009d5e <I2C1_ER_IRQHandler+0xb2>
	if (!bNoStop)
 8009cf0:	2b00      	cmp	r3, #0
 8009cf2:	d13b      	bne.n	8009d6c <I2C1_ER_IRQHandler+0xc0>
		I2C_GenerateSTOP(I2C1, ENABLE); //TODO: check that stop actualy generated
 8009cf4:	2101      	movs	r1, #1
 8009cf6:	4821      	ldr	r0, [pc, #132]	@ (8009d7c <I2C1_ER_IRQHandler+0xd0>)
 8009cf8:	f001 fd68 	bl	800b7cc <I2C_GenerateSTOP>
 8009cfc:	e036      	b.n	8009d6c <I2C1_ER_IRQHandler+0xc0>
			m_pInstance = new I2C_DRV;
 8009cfe:	2028      	movs	r0, #40	@ 0x28
 8009d00:	f002 f8fa 	bl	800bef8 <_Znwj>
 8009d04:	4604      	mov	r4, r0
	I2C_DRV(){
 8009d06:	2300      	movs	r3, #0
 8009d08:	7003      	strb	r3, [r0, #0]
} RxI2CMsg;
 8009d0a:	6103      	str	r3, [r0, #16]
	I2C_DRV(){
 8009d0c:	f880 3021 	strb.w	r3, [r0, #33]	@ 0x21
 8009d10:	f880 3022 	strb.w	r3, [r0, #34]	@ 0x22
 8009d14:	6243      	str	r3, [r0, #36]	@ 0x24
		Reset();
 8009d16:	f7ff fdaf 	bl	8009878 <_ZN7I2C_DRV5ResetEv>
			m_pInstance = new I2C_DRV;
 8009d1a:	4b17      	ldr	r3, [pc, #92]	@ (8009d78 <I2C1_ER_IRQHandler+0xcc>)
 8009d1c:	601c      	str	r4, [r3, #0]
 8009d1e:	e7c9      	b.n	8009cb4 <I2C1_ER_IRQHandler+0x8>
		I2C_Last_Error = I2C_Timeout;
 8009d20:	2301      	movs	r3, #1
 8009d22:	f885 3020 	strb.w	r3, [r5, #32]
		I2C_ClearFlag(I2C1, I2C_FLAG_TIMEOUT);
 8009d26:	4916      	ldr	r1, [pc, #88]	@ (8009d80 <I2C1_ER_IRQHandler+0xd4>)
 8009d28:	4630      	mov	r0, r6
 8009d2a:	f001 fe5a 	bl	800b9e2 <I2C_ClearFlag>
                bNoStop = false;
 8009d2e:	2300      	movs	r3, #0
 8009d30:	e7d5      	b.n	8009cde <I2C1_ER_IRQHandler+0x32>
		I2C_Last_Error = I2C_Nack;
 8009d32:	2302      	movs	r3, #2
 8009d34:	f885 3020 	strb.w	r3, [r5, #32]
		I2C_ClearFlag(I2C1, I2C_FLAG_AF);
 8009d38:	4912      	ldr	r1, [pc, #72]	@ (8009d84 <I2C1_ER_IRQHandler+0xd8>)
 8009d3a:	4810      	ldr	r0, [pc, #64]	@ (8009d7c <I2C1_ER_IRQHandler+0xd0>)
 8009d3c:	f001 fe51 	bl	800b9e2 <I2C_ClearFlag>
                bNoStop = false;
 8009d40:	2300      	movs	r3, #0
 8009d42:	e7cf      	b.n	8009ce4 <I2C1_ER_IRQHandler+0x38>
		I2C_Last_Error = I2C_ArbitrationLost;
 8009d44:	2303      	movs	r3, #3
 8009d46:	f885 3020 	strb.w	r3, [r5, #32]
		I2C_ClearFlag(I2C1, I2C_FLAG_ARLO);
 8009d4a:	490f      	ldr	r1, [pc, #60]	@ (8009d88 <I2C1_ER_IRQHandler+0xdc>)
 8009d4c:	480b      	ldr	r0, [pc, #44]	@ (8009d7c <I2C1_ER_IRQHandler+0xd0>)
 8009d4e:	f001 fe48 	bl	800b9e2 <I2C_ClearFlag>
		Init();
 8009d52:	4628      	mov	r0, r5
 8009d54:	f7ff fcfc 	bl	8009750 <_ZN7I2C_DRV4InitEv>
	if (bIsFlagsSet(lastevent , I2C_FLAG_BERR)){
 8009d58:	f414 7f80 	tst.w	r4, #256	@ 0x100
 8009d5c:	d006      	beq.n	8009d6c <I2C1_ER_IRQHandler+0xc0>
		I2C_Last_Error = I2C_BusError;
 8009d5e:	2304      	movs	r3, #4
 8009d60:	f885 3020 	strb.w	r3, [r5, #32]
		I2C_ClearFlag(I2C1, I2C_FLAG_BERR);
 8009d64:	4909      	ldr	r1, [pc, #36]	@ (8009d8c <I2C1_ER_IRQHandler+0xe0>)
 8009d66:	4805      	ldr	r0, [pc, #20]	@ (8009d7c <I2C1_ER_IRQHandler+0xd0>)
 8009d68:	f001 fe3b 	bl	800b9e2 <I2C_ClearFlag>
 8009d6c:	4b08      	ldr	r3, [pc, #32]	@ (8009d90 <I2C1_ER_IRQHandler+0xe4>)
 8009d6e:	f04f 4200 	mov.w	r2, #2147483648	@ 0x80000000
 8009d72:	f8c3 2180 	str.w	r2, [r3, #384]	@ 0x180
	I2C_DRV::Get_Instance()->I2C_ERROR_Handler();
}
 8009d76:	bd70      	pop	{r4, r5, r6, pc}
 8009d78:	2000b494 	.word	0x2000b494
 8009d7c:	40005400 	.word	0x40005400
 8009d80:	10004000 	.word	0x10004000
 8009d84:	10000400 	.word	0x10000400
 8009d88:	10000200 	.word	0x10000200
 8009d8c:	10000100 	.word	0x10000100
 8009d90:	e000e100 	.word	0xe000e100

08009d94 <_ZN7SPI_DRV9GPIO_INITEv>:
#define Delay(x) { uint32_t Timeout = x*75; while (Timeout--);}

SPI_DRV* SPI_DRV::spi_m_pInstance = NULL;

ErrorStatus SPI_DRV::GPIO_INIT(void)
{
 8009d94:	b530      	push	{r4, r5, lr}
 8009d96:	b083      	sub	sp, #12
        GPIO_InitTypeDef GPIO_InitStructure;
        GPIO_InitStructure.GPIO_Speed = GPIO_Speed_10MHz;
 8009d98:	2401      	movs	r4, #1
 8009d9a:	f88d 4006 	strb.w	r4, [sp, #6]
        GPIO_InitStructure.GPIO_Mode = GPIO_Mode_AF_PP;
 8009d9e:	2318      	movs	r3, #24
 8009da0:	f88d 3007 	strb.w	r3, [sp, #7]
        
        //Configurate PSI_SCK_Pinpin
        GPIO_InitStructure.GPIO_Pin = SCK_Pin;
 8009da4:	2320      	movs	r3, #32
 8009da6:	f8ad 3004 	strh.w	r3, [sp, #4]
        GPIO_Init(SPI_Port, &GPIO_InitStructure);
 8009daa:	4d14      	ldr	r5, [pc, #80]	@ (8009dfc <_ZN7SPI_DRV9GPIO_INITEv+0x68>)
 8009dac:	a901      	add	r1, sp, #4
 8009dae:	4628      	mov	r0, r5
 8009db0:	f001 fa1a 	bl	800b1e8 <GPIO_Init>
      
        //Configurate SPI_MOSI_Pin
        GPIO_InitStructure.GPIO_Pin = MOSI_Pin;
 8009db4:	2380      	movs	r3, #128	@ 0x80
 8009db6:	f8ad 3004 	strh.w	r3, [sp, #4]
        GPIO_Init(SPI_Port, &GPIO_InitStructure); 
 8009dba:	a901      	add	r1, sp, #4
 8009dbc:	4628      	mov	r0, r5
 8009dbe:	f001 fa13 	bl	800b1e8 <GPIO_Init>
        
        //Configurate SPI_MISO_Pin
        GPIO_InitStructure.GPIO_Mode = GPIO_Mode_IPU;
 8009dc2:	2348      	movs	r3, #72	@ 0x48
 8009dc4:	f88d 3007 	strb.w	r3, [sp, #7]
        GPIO_InitStructure.GPIO_Pin = MISO_Pin;
 8009dc8:	2340      	movs	r3, #64	@ 0x40
 8009dca:	f8ad 3004 	strh.w	r3, [sp, #4]
        GPIO_Init(SPI_Port, &GPIO_InitStructure);
 8009dce:	a901      	add	r1, sp, #4
 8009dd0:	4628      	mov	r0, r5
 8009dd2:	f001 fa09 	bl	800b1e8 <GPIO_Init>
        
        GPIO_InitStructure.GPIO_Mode = GPIO_Mode_Out_PP;
 8009dd6:	2310      	movs	r3, #16
 8009dd8:	f88d 3007 	strb.w	r3, [sp, #7]
        GPIO_InitStructure.GPIO_Pin = MSTRB_Pin;
 8009ddc:	f8ad 4004 	strh.w	r4, [sp, #4]
        GPIO_SetBits(SPI_CS_Port,MSTRB_Pin);
 8009de0:	f505 6580 	add.w	r5, r5, #1024	@ 0x400
 8009de4:	4621      	mov	r1, r4
 8009de6:	4628      	mov	r0, r5
 8009de8:	f001 fb0b 	bl	800b402 <GPIO_SetBits>
        GPIO_Init(SPI_CS_Port, &GPIO_InitStructure);
 8009dec:	a901      	add	r1, sp, #4
 8009dee:	4628      	mov	r0, r5
 8009df0:	f001 f9fa 	bl	800b1e8 <GPIO_Init>

        return ErrorStatus::SUCCESS;
        
}
 8009df4:	4620      	mov	r0, r4
 8009df6:	b003      	add	sp, #12
 8009df8:	bd30      	pop	{r4, r5, pc}
 8009dfa:	bf00      	nop
 8009dfc:	40010800 	.word	0x40010800

08009e00 <_ZN7SPI_DRV7IT_INITEv>:
    return((ErrorStatus)status);
}


ErrorStatus SPI_DRV::IT_INIT(void)
{
 8009e00:	b510      	push	{r4, lr}
 8009e02:	b082      	sub	sp, #8
  
  DMA_ITConfig(DMA1_Channel2, DMA_IT_TC, FunctionalState::ENABLE);
 8009e04:	2201      	movs	r2, #1
 8009e06:	2102      	movs	r1, #2
 8009e08:	480f      	ldr	r0, [pc, #60]	@ (8009e48 <_ZN7SPI_DRV7IT_INITEv+0x48>)
 8009e0a:	f001 f83d 	bl	800ae88 <DMA_ITConfig>
  DMA_ITConfig(DMA1_Channel3, DMA_IT_TC, FunctionalState::ENABLE);
 8009e0e:	2201      	movs	r2, #1
 8009e10:	2102      	movs	r1, #2
 8009e12:	480e      	ldr	r0, [pc, #56]	@ (8009e4c <_ZN7SPI_DRV7IT_INITEv+0x4c>)
 8009e14:	f001 f838 	bl	800ae88 <DMA_ITConfig>
  NVIC_InitTypeDef  NVIC_InitStructure;
  // Configure and enable I2C event interrupt
  NVIC_InitStructure.NVIC_IRQChannel = DMA1_Channel2_IRQn;
 8009e18:	230c      	movs	r3, #12
 8009e1a:	f88d 3004 	strb.w	r3, [sp, #4]
  NVIC_InitStructure.NVIC_IRQChannelPreemptionPriority = 0; //DONE: what this for?
 8009e1e:	2300      	movs	r3, #0
 8009e20:	f88d 3005 	strb.w	r3, [sp, #5]
  NVIC_InitStructure.NVIC_IRQChannelSubPriority = 1; //DONE: what this for?
 8009e24:	2401      	movs	r4, #1
 8009e26:	f88d 4006 	strb.w	r4, [sp, #6]
  NVIC_InitStructure.NVIC_IRQChannelCmd = ENABLE;
 8009e2a:	f88d 4007 	strb.w	r4, [sp, #7]
  NVIC_Init(&NVIC_InitStructure);
 8009e2e:	a801      	add	r0, sp, #4
 8009e30:	f000 f988 	bl	800a144 <NVIC_Init>
  
  NVIC_InitStructure.NVIC_IRQChannel = DMA1_Channel3_IRQn;
 8009e34:	230d      	movs	r3, #13
 8009e36:	f88d 3004 	strb.w	r3, [sp, #4]
  NVIC_Init(&NVIC_InitStructure);
 8009e3a:	a801      	add	r0, sp, #4
 8009e3c:	f000 f982 	bl	800a144 <NVIC_Init>

  return(SUCCESS);
}
 8009e40:	4620      	mov	r0, r4
 8009e42:	b002      	add	sp, #8
 8009e44:	bd10      	pop	{r4, pc}
 8009e46:	bf00      	nop
 8009e48:	4002001c 	.word	0x4002001c
 8009e4c:	40020030 	.word	0x40020030

08009e50 <_ZN7SPI_DRV4InitEv>:
{
 8009e50:	b5f0      	push	{r4, r5, r6, r7, lr}
 8009e52:	b09d      	sub	sp, #116	@ 0x74
 8009e54:	4606      	mov	r6, r0
    GPIO_INIT();
 8009e56:	f7ff ff9d 	bl	8009d94 <_ZN7SPI_DRV9GPIO_INITEv>
    SPI_InitStruct.SPI_Direction = SPI_Direction_2Lines_FullDuplex;
 8009e5a:	2300      	movs	r3, #0
 8009e5c:	f8ad 305c 	strh.w	r3, [sp, #92]	@ 0x5c
    SPI_InitStruct.SPI_Mode = SPI_Mode_Master;  
 8009e60:	f44f 7282 	mov.w	r2, #260	@ 0x104
 8009e64:	f8ad 205e 	strh.w	r2, [sp, #94]	@ 0x5e
    SPI_InitStruct.SPI_DataSize = SPI_DataSize_8b;
 8009e68:	f8ad 3060 	strh.w	r3, [sp, #96]	@ 0x60
    SPI_InitStruct.SPI_CPOL = SPI_CPOL_Low;
 8009e6c:	f8ad 3062 	strh.w	r3, [sp, #98]	@ 0x62
    SPI_InitStruct.SPI_CPHA = SPI_CPHA_1Edge;
 8009e70:	f8ad 3064 	strh.w	r3, [sp, #100]	@ 0x64
    SPI_InitStruct.SPI_NSS = SPI_NSS_Soft;
 8009e74:	f44f 7200 	mov.w	r2, #512	@ 0x200
 8009e78:	f8ad 2066 	strh.w	r2, [sp, #102]	@ 0x66
    SPI_InitStruct.SPI_BaudRatePrescaler = SPI_BaudRatePrescaler_8;
 8009e7c:	2210      	movs	r2, #16
 8009e7e:	f8ad 2068 	strh.w	r2, [sp, #104]	@ 0x68
    SPI_InitStruct.SPI_FirstBit =SPI_FirstBit_LSB;
 8009e82:	2280      	movs	r2, #128	@ 0x80
 8009e84:	f8ad 206a 	strh.w	r2, [sp, #106]	@ 0x6a
    SPI_InitStruct.SPI_CRCPolynomial =0;
 8009e88:	f8ad 306c 	strh.w	r3, [sp, #108]	@ 0x6c
    RCC_APB2PeriphClockCmd(RCC_APB2Periph_SPI1, ENABLE);
 8009e8c:	2101      	movs	r1, #1
 8009e8e:	f44f 5080 	mov.w	r0, #4096	@ 0x1000
 8009e92:	f001 fec5 	bl	800bc20 <RCC_APB2PeriphClockCmd>
    SPI_Init(SPI1,&SPI_InitStruct);
 8009e96:	a917      	add	r1, sp, #92	@ 0x5c
 8009e98:	4822      	ldr	r0, [pc, #136]	@ (8009f24 <_ZN7SPI_DRV4InitEv+0xd4>)
 8009e9a:	f001 ff39 	bl	800bd10 <SPI_Init>
    while (SPI_I2S_GetFlagStatus(SPI1, SPI_I2S_FLAG_RXNE))
 8009e9e:	4c21      	ldr	r4, [pc, #132]	@ (8009f24 <_ZN7SPI_DRV4InitEv+0xd4>)
 8009ea0:	2501      	movs	r5, #1
 8009ea2:	e002      	b.n	8009eaa <_ZN7SPI_DRV4InitEv+0x5a>
    	uint16_t tmp = SPI_I2S_ReceiveData(SPI1);
 8009ea4:	4620      	mov	r0, r4
 8009ea6:	f001 ff99 	bl	800bddc <SPI_I2S_ReceiveData>
    while (SPI_I2S_GetFlagStatus(SPI1, SPI_I2S_FLAG_RXNE))
 8009eaa:	4629      	mov	r1, r5
 8009eac:	4620      	mov	r0, r4
 8009eae:	f001 ffa1 	bl	800bdf4 <SPI_I2S_GetFlagStatus>
 8009eb2:	2800      	cmp	r0, #0
 8009eb4:	d1f6      	bne.n	8009ea4 <_ZN7SPI_DRV4InitEv+0x54>
    SPI_I2S_DMACmd(SPI1, SPI_I2S_DMAReq_Rx | SPI_I2S_DMAReq_Tx, ENABLE);
 8009eb6:	2201      	movs	r2, #1
 8009eb8:	2103      	movs	r1, #3
 8009eba:	481a      	ldr	r0, [pc, #104]	@ (8009f24 <_ZN7SPI_DRV4InitEv+0xd4>)
 8009ebc:	f001 ff6b 	bl	800bd96 <SPI_I2S_DMACmd>
    GPIO_WriteBit(SPI_CS_Port,MSTRB_Pin, Bit_SET);
 8009ec0:	2201      	movs	r2, #1
 8009ec2:	4611      	mov	r1, r2
 8009ec4:	4818      	ldr	r0, [pc, #96]	@ (8009f28 <_ZN7SPI_DRV4InitEv+0xd8>)
 8009ec6:	f001 fab8 	bl	800b43a <GPIO_WriteBit>
    RCC_AHBPeriphClockCmd(RCC_AHBPeriph_DMA1, ENABLE);
 8009eca:	2101      	movs	r1, #1
 8009ecc:	4608      	mov	r0, r1
 8009ece:	f001 fe89 	bl	800bbe4 <RCC_AHBPeriphClockCmd>
    DMA_Rx_InitStruct.DMA_PeripheralBaseAddr = (uint32_t)&(SPI1->DR);
 8009ed2:	4f16      	ldr	r7, [pc, #88]	@ (8009f2c <_ZN7SPI_DRV4InitEv+0xdc>)
 8009ed4:	970c      	str	r7, [sp, #48]	@ 0x30
    DMA_Rx_InitStruct.DMA_MemoryBaseAddr = 0;
 8009ed6:	2400      	movs	r4, #0
 8009ed8:	940d      	str	r4, [sp, #52]	@ 0x34
    DMA_Rx_InitStruct.DMA_DIR = DMA_DIR_PeripheralSRC;
 8009eda:	940e      	str	r4, [sp, #56]	@ 0x38
    DMA_Rx_InitStruct.DMA_BufferSize = 0;
 8009edc:	940f      	str	r4, [sp, #60]	@ 0x3c
    DMA_Rx_InitStruct.DMA_PeripheralInc = DMA_PeripheralInc_Disable;
 8009ede:	9410      	str	r4, [sp, #64]	@ 0x40
    DMA_Rx_InitStruct.DMA_MemoryInc = DMA_MemoryInc_Enable;
 8009ee0:	2580      	movs	r5, #128	@ 0x80
 8009ee2:	9511      	str	r5, [sp, #68]	@ 0x44
    DMA_Rx_InitStruct.DMA_PeripheralDataSize = DMA_PeripheralDataSize_Byte;
 8009ee4:	9412      	str	r4, [sp, #72]	@ 0x48
    DMA_Rx_InitStruct.DMA_MemoryDataSize = DMA_MemoryDataSize_Byte;
 8009ee6:	9413      	str	r4, [sp, #76]	@ 0x4c
    DMA_Rx_InitStruct.DMA_Mode = DMA_Mode_Normal;
 8009ee8:	9414      	str	r4, [sp, #80]	@ 0x50
    DMA_Rx_InitStruct.DMA_Priority = DMA_Priority_Low;
 8009eea:	9415      	str	r4, [sp, #84]	@ 0x54
    DMA_Rx_InitStruct.DMA_M2M = DMA_M2M_Disable;
 8009eec:	9416      	str	r4, [sp, #88]	@ 0x58
    DMA_Init(DMA1_Channel2,&DMA_Rx_InitStruct);    
 8009eee:	a90c      	add	r1, sp, #48	@ 0x30
 8009ef0:	480f      	ldr	r0, [pc, #60]	@ (8009f30 <_ZN7SPI_DRV4InitEv+0xe0>)
 8009ef2:	f000 ff45 	bl	800ad80 <DMA_Init>
    DMA_Tx_InitStruct.DMA_PeripheralBaseAddr = (uint32_t)&(SPI1->DR);
 8009ef6:	9701      	str	r7, [sp, #4]
    DMA_Tx_InitStruct.DMA_MemoryBaseAddr = 0;
 8009ef8:	9402      	str	r4, [sp, #8]
    DMA_Tx_InitStruct.DMA_DIR = DMA_DIR_PeripheralDST;
 8009efa:	2310      	movs	r3, #16
 8009efc:	9303      	str	r3, [sp, #12]
    DMA_Tx_InitStruct.DMA_BufferSize = 0;
 8009efe:	9404      	str	r4, [sp, #16]
    DMA_Tx_InitStruct.DMA_PeripheralInc = DMA_PeripheralInc_Disable;
 8009f00:	9405      	str	r4, [sp, #20]
    DMA_Tx_InitStruct.DMA_MemoryInc = DMA_MemoryInc_Enable;
 8009f02:	9506      	str	r5, [sp, #24]
    DMA_Tx_InitStruct.DMA_PeripheralDataSize = DMA_PeripheralDataSize_Byte;
 8009f04:	9407      	str	r4, [sp, #28]
    DMA_Tx_InitStruct.DMA_MemoryDataSize = DMA_MemoryDataSize_Byte;
 8009f06:	9408      	str	r4, [sp, #32]
    DMA_Tx_InitStruct.DMA_Mode = DMA_Mode_Normal;
 8009f08:	9409      	str	r4, [sp, #36]	@ 0x24
    DMA_Tx_InitStruct.DMA_Priority = DMA_Priority_Low;
 8009f0a:	940a      	str	r4, [sp, #40]	@ 0x28
    DMA_Tx_InitStruct.DMA_M2M = DMA_M2M_Disable;
 8009f0c:	940b      	str	r4, [sp, #44]	@ 0x2c
    DMA_Init(DMA1_Channel3,&DMA_Tx_InitStruct);
 8009f0e:	a901      	add	r1, sp, #4
 8009f10:	4808      	ldr	r0, [pc, #32]	@ (8009f34 <_ZN7SPI_DRV4InitEv+0xe4>)
 8009f12:	f000 ff35 	bl	800ad80 <DMA_Init>
    IT_INIT();
 8009f16:	4630      	mov	r0, r6
 8009f18:	f7ff ff72 	bl	8009e00 <_ZN7SPI_DRV7IT_INITEv>
}
 8009f1c:	2001      	movs	r0, #1
 8009f1e:	b01d      	add	sp, #116	@ 0x74
 8009f20:	bdf0      	pop	{r4, r5, r6, r7, pc}
 8009f22:	bf00      	nop
 8009f24:	40013000 	.word	0x40013000
 8009f28:	40010c00 	.word	0x40010c00
 8009f2c:	4001300c 	.word	0x4001300c
 8009f30:	4002001c 	.word	0x4002001c
 8009f34:	40020030 	.word	0x40020030

08009f38 <_ZN7SPI_DRV26SPI_TransmitReceiveMessageEPvhS0_h>:

ErrorStatus SPI_DRV:: SPI_TransmitReceiveMessage(void* dataRcv, uint8_t RcvLen, void* dataTx, uint8_t TxLen)
{
 8009f38:	b5f8      	push	{r3, r4, r5, r6, r7, lr}
 8009f3a:	460f      	mov	r7, r1
 8009f3c:	4616      	mov	r6, r2
 8009f3e:	461d      	mov	r5, r3
    return (GPIO_ReadInputDataBit(SPI_CS_Port, MSTRB_Pin) == 0) ? SET : RESET;
 8009f40:	2101      	movs	r1, #1
 8009f42:	4813      	ldr	r0, [pc, #76]	@ (8009f90 <_ZN7SPI_DRV26SPI_TransmitReceiveMessageEPvhS0_h+0x58>)
 8009f44:	f001 fa1f 	bl	800b386 <GPIO_ReadInputDataBit>
 8009f48:	b308      	cbz	r0, 8009f8e <_ZN7SPI_DRV26SPI_TransmitReceiveMessageEPvhS0_h+0x56>
  ErrorStatus status = SUCCESS;
  
  if (SPI_Busy() == SET)
    return ERROR;
  
  DMA_Cmd(DMA1_Channel2, FunctionalState::DISABLE);
 8009f4a:	2100      	movs	r1, #0
 8009f4c:	4811      	ldr	r0, [pc, #68]	@ (8009f94 <_ZN7SPI_DRV26SPI_TransmitReceiveMessageEPvhS0_h+0x5c>)
 8009f4e:	f000 ff7f 	bl	800ae50 <DMA_Cmd>
  DMA_Cmd(DMA1_Channel3, FunctionalState::DISABLE);
 8009f52:	2100      	movs	r1, #0
 8009f54:	4810      	ldr	r0, [pc, #64]	@ (8009f98 <_ZN7SPI_DRV26SPI_TransmitReceiveMessageEPvhS0_h+0x60>)
 8009f56:	f000 ff7b 	bl	800ae50 <DMA_Cmd>
  
  DMA1_Channel2->CMAR = (uint32_t)dataRcv;
 8009f5a:	4c10      	ldr	r4, [pc, #64]	@ (8009f9c <_ZN7SPI_DRV26SPI_TransmitReceiveMessageEPvhS0_h+0x64>)
 8009f5c:	62a7      	str	r7, [r4, #40]	@ 0x28
  DMA1_Channel2->CNDTR = RcvLen;
 8009f5e:	6226      	str	r6, [r4, #32]
  DMA1_Channel3->CMAR = (uint32_t)dataTx;
 8009f60:	63e5      	str	r5, [r4, #60]	@ 0x3c
  DMA1_Channel3->CNDTR = TxLen;
 8009f62:	f89d 3018 	ldrb.w	r3, [sp, #24]
 8009f66:	6363      	str	r3, [r4, #52]	@ 0x34
  GPIO_ResetBits(SPI_CS_Port,MSTRB_Pin);
 8009f68:	2101      	movs	r1, #1
 8009f6a:	4809      	ldr	r0, [pc, #36]	@ (8009f90 <_ZN7SPI_DRV26SPI_TransmitReceiveMessageEPvhS0_h+0x58>)
 8009f6c:	f001 fa57 	bl	800b41e <GPIO_ResetBits>
  SPI1->CR1 |= ((uint16_t)0x0040);
 8009f70:	4a0b      	ldr	r2, [pc, #44]	@ (8009fa0 <_ZN7SPI_DRV26SPI_TransmitReceiveMessageEPvhS0_h+0x68>)
 8009f72:	8813      	ldrh	r3, [r2, #0]
 8009f74:	b29b      	uxth	r3, r3
 8009f76:	f043 0340 	orr.w	r3, r3, #64	@ 0x40
 8009f7a:	8013      	strh	r3, [r2, #0]
  DMA1_Channel2->CCR |= DMA_CCR1_EN;
 8009f7c:	69e3      	ldr	r3, [r4, #28]
 8009f7e:	f043 0301 	orr.w	r3, r3, #1
 8009f82:	61e3      	str	r3, [r4, #28]
  DMA1_Channel3->CCR |= DMA_CCR1_EN;
 8009f84:	6b23      	ldr	r3, [r4, #48]	@ 0x30
 8009f86:	f043 0301 	orr.w	r3, r3, #1
 8009f8a:	6323      	str	r3, [r4, #48]	@ 0x30
  
  return((ErrorStatus)status);
 8009f8c:	2001      	movs	r0, #1
}
 8009f8e:	bdf8      	pop	{r3, r4, r5, r6, r7, pc}
 8009f90:	40010c00 	.word	0x40010c00
 8009f94:	4002001c 	.word	0x4002001c
 8009f98:	40020030 	.word	0x40020030
 8009f9c:	40020000 	.word	0x40020000
 8009fa0:	40013000 	.word	0x40013000

08009fa4 <DMA1_Channel2_IRQHandler>:


void DMA1_Channel2_IRQHandler(void)
{
 8009fa4:	b508      	push	{r3, lr}
  DMA_ClearITPendingBit(DMA1_IT_TC2);
 8009fa6:	2020      	movs	r0, #32
 8009fa8:	f000 ff8c 	bl	800aec4 <DMA_ClearITPendingBit>
  if (DMA1_Channel3->CNDTR)
 8009fac:	4b09      	ldr	r3, [pc, #36]	@ (8009fd4 <DMA1_Channel2_IRQHandler+0x30>)
 8009fae:	6b5b      	ldr	r3, [r3, #52]	@ 0x34
 8009fb0:	b103      	cbz	r3, 8009fb4 <DMA1_Channel2_IRQHandler+0x10>
    return;
  GPIO_SetBits(SPI_CS_Port,MSTRB_Pin);
  SPI1->CR1 &= ((uint16_t)0xFFBF);
  DMA_ClearITPendingBit(DMA1_IT_TC2);
}
 8009fb2:	bd08      	pop	{r3, pc}
  GPIO_SetBits(SPI_CS_Port,MSTRB_Pin);
 8009fb4:	2101      	movs	r1, #1
 8009fb6:	4808      	ldr	r0, [pc, #32]	@ (8009fd8 <DMA1_Channel2_IRQHandler+0x34>)
 8009fb8:	f001 fa23 	bl	800b402 <GPIO_SetBits>
  SPI1->CR1 &= ((uint16_t)0xFFBF);
 8009fbc:	4a07      	ldr	r2, [pc, #28]	@ (8009fdc <DMA1_Channel2_IRQHandler+0x38>)
 8009fbe:	8813      	ldrh	r3, [r2, #0]
 8009fc0:	f023 0340 	bic.w	r3, r3, #64	@ 0x40
 8009fc4:	041b      	lsls	r3, r3, #16
 8009fc6:	0c1b      	lsrs	r3, r3, #16
 8009fc8:	8013      	strh	r3, [r2, #0]
  DMA_ClearITPendingBit(DMA1_IT_TC2);
 8009fca:	2020      	movs	r0, #32
 8009fcc:	f000 ff7a 	bl	800aec4 <DMA_ClearITPendingBit>
 8009fd0:	e7ef      	b.n	8009fb2 <DMA1_Channel2_IRQHandler+0xe>
 8009fd2:	bf00      	nop
 8009fd4:	40020000 	.word	0x40020000
 8009fd8:	40010c00 	.word	0x40010c00
 8009fdc:	40013000 	.word	0x40013000

08009fe0 <DMA1_Channel3_IRQHandler>:

void DMA1_Channel3_IRQHandler(void)
{
 8009fe0:	b508      	push	{r3, lr}
  DMA_ClearITPendingBit(DMA1_IT_TC3);
 8009fe2:	f44f 7000 	mov.w	r0, #512	@ 0x200
 8009fe6:	f000 ff6d 	bl	800aec4 <DMA_ClearITPendingBit>
  if (DMA1_Channel2->CNDTR)
 8009fea:	4b0a      	ldr	r3, [pc, #40]	@ (800a014 <DMA1_Channel3_IRQHandler+0x34>)
 8009fec:	6a1b      	ldr	r3, [r3, #32]
 8009fee:	b103      	cbz	r3, 8009ff2 <DMA1_Channel3_IRQHandler+0x12>
    return;
  GPIO_SetBits(SPI_CS_Port,MSTRB_Pin);
  SPI1->CR1 &= ((uint16_t)0xFFBF);
  DMA_ClearITPendingBit(DMA1_IT_TC3);
}
 8009ff0:	bd08      	pop	{r3, pc}
  GPIO_SetBits(SPI_CS_Port,MSTRB_Pin);
 8009ff2:	2101      	movs	r1, #1
 8009ff4:	4808      	ldr	r0, [pc, #32]	@ (800a018 <DMA1_Channel3_IRQHandler+0x38>)
 8009ff6:	f001 fa04 	bl	800b402 <GPIO_SetBits>
  SPI1->CR1 &= ((uint16_t)0xFFBF);
 8009ffa:	4a08      	ldr	r2, [pc, #32]	@ (800a01c <DMA1_Channel3_IRQHandler+0x3c>)
 8009ffc:	8813      	ldrh	r3, [r2, #0]
 8009ffe:	f023 0340 	bic.w	r3, r3, #64	@ 0x40
 800a002:	041b      	lsls	r3, r3, #16
 800a004:	0c1b      	lsrs	r3, r3, #16
 800a006:	8013      	strh	r3, [r2, #0]
  DMA_ClearITPendingBit(DMA1_IT_TC3);
 800a008:	f44f 7000 	mov.w	r0, #512	@ 0x200
 800a00c:	f000 ff5a 	bl	800aec4 <DMA_ClearITPendingBit>
 800a010:	e7ee      	b.n	8009ff0 <DMA1_Channel3_IRQHandler+0x10>
 800a012:	bf00      	nop
 800a014:	40020000 	.word	0x40020000
 800a018:	40010c00 	.word	0x40010c00
 800a01c:	40013000 	.word	0x40013000

0800a020 <getMacAddress>:

#define MAC_ADDRESS_OFFSET 0x9A
#define EEPROM_SLAVE_ADDRESS 0x58

int getMacAddress(char* buffer)
{
 800a020:	b510      	push	{r4, lr}
 800a022:	b088      	sub	sp, #32
  const uint8_t internal_add = MAC_ADDRESS_OFFSET;
 800a024:	239a      	movs	r3, #154	@ 0x9a
 800a026:	f88d 301f 	strb.w	r3, [sp, #31]
  TxI2CMsg txmsg = { EEPROM_SLAVE_ADDRESS, &internal_add,1};
 800a02a:	2300      	movs	r3, #0
 800a02c:	9304      	str	r3, [sp, #16]
 800a02e:	9306      	str	r3, [sp, #24]
 800a030:	2258      	movs	r2, #88	@ 0x58
 800a032:	f88d 2010 	strb.w	r2, [sp, #16]
 800a036:	2101      	movs	r1, #1
 800a038:	f88d 1018 	strb.w	r1, [sp, #24]
 800a03c:	f10d 011f 	add.w	r1, sp, #31
 800a040:	9105      	str	r1, [sp, #20]
  RxI2CMsg rxmsg = {EEPROM_SLAVE_ADDRESS, (uint8_t *)buffer, 6};
 800a042:	9300      	str	r3, [sp, #0]
 800a044:	9302      	str	r3, [sp, #8]
 800a046:	9303      	str	r3, [sp, #12]
 800a048:	f88d 2000 	strb.w	r2, [sp]
 800a04c:	2306      	movs	r3, #6
 800a04e:	f88d 3008 	strb.w	r3, [sp, #8]
 800a052:	9001      	str	r0, [sp, #4]
		if (!m_pInstance)   // Only allow one instance of class to be generated
 800a054:	4b3a      	ldr	r3, [pc, #232]	@ (800a140 <getMacAddress+0x120>)
 800a056:	681b      	ldr	r3, [r3, #0]
 800a058:	2b00      	cmp	r3, #0
 800a05a:	d026      	beq.n	800a0aa <getMacAddress+0x8a>
  
   if (I2C_DRV::Get_Instance()->WaitBusy() == ERROR)
 800a05c:	4b38      	ldr	r3, [pc, #224]	@ (800a140 <getMacAddress+0x120>)
 800a05e:	6818      	ldr	r0, [r3, #0]
 800a060:	f7ff fc1e 	bl	80098a0 <_ZN7I2C_DRV8WaitBusyEv>
 800a064:	2800      	cmp	r0, #0
 800a066:	d064      	beq.n	800a132 <getMacAddress+0x112>
 800a068:	4b35      	ldr	r3, [pc, #212]	@ (800a140 <getMacAddress+0x120>)
 800a06a:	681b      	ldr	r3, [r3, #0]
 800a06c:	2b00      	cmp	r3, #0
 800a06e:	d02d      	beq.n	800a0cc <getMacAddress+0xac>
		return m_pInstance;
 800a070:	4c33      	ldr	r4, [pc, #204]	@ (800a140 <getMacAddress+0x120>)
    return -1;
  I2C_DRV::Get_Instance()->SendRequestMessage(&txmsg,&rxmsg);
 800a072:	466a      	mov	r2, sp
 800a074:	a904      	add	r1, sp, #16
 800a076:	6820      	ldr	r0, [r4, #0]
 800a078:	f7ff fc80 	bl	800997c <_ZN7I2C_DRV18SendRequestMessageEPK8TxI2CMsgP8RxI2CMsg>
		if (!m_pInstance)   // Only allow one instance of class to be generated
 800a07c:	6823      	ldr	r3, [r4, #0]
 800a07e:	2b00      	cmp	r3, #0
 800a080:	d035      	beq.n	800a0ee <getMacAddress+0xce>
  //Timed(I2C_DRV::Get_Instance()->IsBusy() == BusyStatus::SET);
  if (I2C_DRV::Get_Instance()->WaitBusy() == ERROR)
 800a082:	4b2f      	ldr	r3, [pc, #188]	@ (800a140 <getMacAddress+0x120>)
 800a084:	6818      	ldr	r0, [r3, #0]
 800a086:	f7ff fc0b 	bl	80098a0 <_ZN7I2C_DRV8WaitBusyEv>
 800a08a:	2800      	cmp	r0, #0
 800a08c:	d054      	beq.n	800a138 <getMacAddress+0x118>
 800a08e:	4b2c      	ldr	r3, [pc, #176]	@ (800a140 <getMacAddress+0x120>)
 800a090:	681b      	ldr	r3, [r3, #0]
 800a092:	2b00      	cmp	r3, #0
 800a094:	d03c      	beq.n	800a110 <getMacAddress+0xf0>
    return -1;
  if (I2C_DRV::Get_Instance()->I2C_Last_Error == I2C_DRV::I2C_NoError)
 800a096:	4b2a      	ldr	r3, [pc, #168]	@ (800a140 <getMacAddress+0x120>)
 800a098:	681b      	ldr	r3, [r3, #0]
 800a09a:	f893 0020 	ldrb.w	r0, [r3, #32]
 800a09e:	3800      	subs	r0, #0
 800a0a0:	bf18      	it	ne
 800a0a2:	2001      	movne	r0, #1
 800a0a4:	4240      	negs	r0, r0
    return 0;
  else
    return -1;
 800a0a6:	b008      	add	sp, #32
 800a0a8:	bd10      	pop	{r4, pc}
			m_pInstance = new I2C_DRV;
 800a0aa:	2028      	movs	r0, #40	@ 0x28
 800a0ac:	f001 ff24 	bl	800bef8 <_Znwj>
 800a0b0:	4604      	mov	r4, r0
	I2C_DRV(){
 800a0b2:	2300      	movs	r3, #0
 800a0b4:	7003      	strb	r3, [r0, #0]
} RxI2CMsg;
 800a0b6:	6103      	str	r3, [r0, #16]
	I2C_DRV(){
 800a0b8:	f880 3021 	strb.w	r3, [r0, #33]	@ 0x21
 800a0bc:	f880 3022 	strb.w	r3, [r0, #34]	@ 0x22
 800a0c0:	6243      	str	r3, [r0, #36]	@ 0x24
		Reset();
 800a0c2:	f7ff fbd9 	bl	8009878 <_ZN7I2C_DRV5ResetEv>
			m_pInstance = new I2C_DRV;
 800a0c6:	4b1e      	ldr	r3, [pc, #120]	@ (800a140 <getMacAddress+0x120>)
 800a0c8:	601c      	str	r4, [r3, #0]
 800a0ca:	e7c7      	b.n	800a05c <getMacAddress+0x3c>
 800a0cc:	2028      	movs	r0, #40	@ 0x28
 800a0ce:	f001 ff13 	bl	800bef8 <_Znwj>
 800a0d2:	4604      	mov	r4, r0
	I2C_DRV(){
 800a0d4:	2300      	movs	r3, #0
 800a0d6:	7003      	strb	r3, [r0, #0]
} RxI2CMsg;
 800a0d8:	6103      	str	r3, [r0, #16]
	I2C_DRV(){
 800a0da:	f880 3021 	strb.w	r3, [r0, #33]	@ 0x21
 800a0de:	f880 3022 	strb.w	r3, [r0, #34]	@ 0x22
 800a0e2:	6243      	str	r3, [r0, #36]	@ 0x24
		Reset();
 800a0e4:	f7ff fbc8 	bl	8009878 <_ZN7I2C_DRV5ResetEv>
			m_pInstance = new I2C_DRV;
 800a0e8:	4b15      	ldr	r3, [pc, #84]	@ (800a140 <getMacAddress+0x120>)
 800a0ea:	601c      	str	r4, [r3, #0]
 800a0ec:	e7c0      	b.n	800a070 <getMacAddress+0x50>
 800a0ee:	2028      	movs	r0, #40	@ 0x28
 800a0f0:	f001 ff02 	bl	800bef8 <_Znwj>
 800a0f4:	4604      	mov	r4, r0
	I2C_DRV(){
 800a0f6:	2300      	movs	r3, #0
 800a0f8:	7003      	strb	r3, [r0, #0]
} RxI2CMsg;
 800a0fa:	6103      	str	r3, [r0, #16]
	I2C_DRV(){
 800a0fc:	f880 3021 	strb.w	r3, [r0, #33]	@ 0x21
 800a100:	f880 3022 	strb.w	r3, [r0, #34]	@ 0x22
 800a104:	6243      	str	r3, [r0, #36]	@ 0x24
		Reset();
 800a106:	f7ff fbb7 	bl	8009878 <_ZN7I2C_DRV5ResetEv>
			m_pInstance = new I2C_DRV;
 800a10a:	4b0d      	ldr	r3, [pc, #52]	@ (800a140 <getMacAddress+0x120>)
 800a10c:	601c      	str	r4, [r3, #0]
 800a10e:	e7b8      	b.n	800a082 <getMacAddress+0x62>
 800a110:	2028      	movs	r0, #40	@ 0x28
 800a112:	f001 fef1 	bl	800bef8 <_Znwj>
 800a116:	4604      	mov	r4, r0
	I2C_DRV(){
 800a118:	2300      	movs	r3, #0
 800a11a:	7003      	strb	r3, [r0, #0]
} RxI2CMsg;
 800a11c:	6103      	str	r3, [r0, #16]
	I2C_DRV(){
 800a11e:	f880 3021 	strb.w	r3, [r0, #33]	@ 0x21
 800a122:	f880 3022 	strb.w	r3, [r0, #34]	@ 0x22
 800a126:	6243      	str	r3, [r0, #36]	@ 0x24
		Reset();
 800a128:	f7ff fba6 	bl	8009878 <_ZN7I2C_DRV5ResetEv>
			m_pInstance = new I2C_DRV;
 800a12c:	4b04      	ldr	r3, [pc, #16]	@ (800a140 <getMacAddress+0x120>)
 800a12e:	601c      	str	r4, [r3, #0]
 800a130:	e7b1      	b.n	800a096 <getMacAddress+0x76>
    return -1;
 800a132:	f04f 30ff 	mov.w	r0, #4294967295
 800a136:	e7b6      	b.n	800a0a6 <getMacAddress+0x86>
    return -1;
 800a138:	f04f 30ff 	mov.w	r0, #4294967295
 800a13c:	e7b3      	b.n	800a0a6 <getMacAddress+0x86>
 800a13e:	bf00      	nop
 800a140:	2000b494 	.word	0x2000b494

0800a144 <NVIC_Init>:
  * @param  NVIC_InitStruct: pointer to a NVIC_InitTypeDef structure that contains
  *   the configuration information for the specified NVIC peripheral.
  * @retval None
  */
void NVIC_Init(NVIC_InitTypeDef* NVIC_InitStruct)
{
 800a144:	b480      	push	{r7}
 800a146:	b087      	sub	sp, #28
 800a148:	af00      	add	r7, sp, #0
 800a14a:	6078      	str	r0, [r7, #4]
  uint32_t tmppriority = 0x00, tmppre = 0x00, tmpsub = 0x0F;
 800a14c:	2300      	movs	r3, #0
 800a14e:	617b      	str	r3, [r7, #20]
 800a150:	2300      	movs	r3, #0
 800a152:	613b      	str	r3, [r7, #16]
 800a154:	230f      	movs	r3, #15
 800a156:	60fb      	str	r3, [r7, #12]
  
  if (NVIC_InitStruct->NVIC_IRQChannelCmd != DISABLE)
 800a158:	687b      	ldr	r3, [r7, #4]
 800a15a:	78db      	ldrb	r3, [r3, #3]
 800a15c:	2b00      	cmp	r3, #0
 800a15e:	d03a      	beq.n	800a1d6 <NVIC_Init+0x92>
  {
    /* Compute the Corresponding IRQ Priority --------------------------------*/    
    tmppriority = (0x700 - ((SCB->AIRCR) & (uint32_t)0x700))>> 0x08;
 800a160:	4b27      	ldr	r3, [pc, #156]	@ (800a200 <NVIC_Init+0xbc>)
 800a162:	68db      	ldr	r3, [r3, #12]
 800a164:	43db      	mvns	r3, r3
 800a166:	0a1b      	lsrs	r3, r3, #8
 800a168:	f003 0307 	and.w	r3, r3, #7
 800a16c:	617b      	str	r3, [r7, #20]
    tmppre = (0x4 - tmppriority);
 800a16e:	697b      	ldr	r3, [r7, #20]
 800a170:	f1c3 0304 	rsb	r3, r3, #4
 800a174:	613b      	str	r3, [r7, #16]
    tmpsub = tmpsub >> tmppriority;
 800a176:	68fa      	ldr	r2, [r7, #12]
 800a178:	697b      	ldr	r3, [r7, #20]
 800a17a:	fa22 f303 	lsr.w	r3, r2, r3
 800a17e:	60fb      	str	r3, [r7, #12]

    tmppriority = (uint32_t)NVIC_InitStruct->NVIC_IRQChannelPreemptionPriority << tmppre;
 800a180:	687b      	ldr	r3, [r7, #4]
 800a182:	785b      	ldrb	r3, [r3, #1]
 800a184:	461a      	mov	r2, r3
 800a186:	693b      	ldr	r3, [r7, #16]
 800a188:	fa02 f303 	lsl.w	r3, r2, r3
 800a18c:	617b      	str	r3, [r7, #20]
    tmppriority |=  NVIC_InitStruct->NVIC_IRQChannelSubPriority & tmpsub;
 800a18e:	687b      	ldr	r3, [r7, #4]
 800a190:	789b      	ldrb	r3, [r3, #2]
 800a192:	461a      	mov	r2, r3
 800a194:	68fb      	ldr	r3, [r7, #12]
 800a196:	4013      	ands	r3, r2
 800a198:	697a      	ldr	r2, [r7, #20]
 800a19a:	4313      	orrs	r3, r2
 800a19c:	617b      	str	r3, [r7, #20]
    tmppriority = tmppriority << 0x04;
 800a19e:	697b      	ldr	r3, [r7, #20]
 800a1a0:	011b      	lsls	r3, r3, #4
 800a1a2:	617b      	str	r3, [r7, #20]
        
    NVIC->IP[NVIC_InitStruct->NVIC_IRQChannel] = tmppriority;
 800a1a4:	4a17      	ldr	r2, [pc, #92]	@ (800a204 <NVIC_Init+0xc0>)
 800a1a6:	687b      	ldr	r3, [r7, #4]
 800a1a8:	781b      	ldrb	r3, [r3, #0]
 800a1aa:	6979      	ldr	r1, [r7, #20]
 800a1ac:	b2c9      	uxtb	r1, r1
 800a1ae:	4413      	add	r3, r2
 800a1b0:	460a      	mov	r2, r1
 800a1b2:	f883 2300 	strb.w	r2, [r3, #768]	@ 0x300
    
    /* Enable the Selected IRQ Channels --------------------------------------*/
    NVIC->ISER[NVIC_InitStruct->NVIC_IRQChannel >> 0x05] =
      (uint32_t)0x01 << (NVIC_InitStruct->NVIC_IRQChannel & (uint8_t)0x1F);
 800a1b6:	687b      	ldr	r3, [r7, #4]
 800a1b8:	781b      	ldrb	r3, [r3, #0]
 800a1ba:	f003 031f 	and.w	r3, r3, #31
    NVIC->ISER[NVIC_InitStruct->NVIC_IRQChannel >> 0x05] =
 800a1be:	4911      	ldr	r1, [pc, #68]	@ (800a204 <NVIC_Init+0xc0>)
 800a1c0:	687a      	ldr	r2, [r7, #4]
 800a1c2:	7812      	ldrb	r2, [r2, #0]
 800a1c4:	0952      	lsrs	r2, r2, #5
 800a1c6:	b2d2      	uxtb	r2, r2
 800a1c8:	4610      	mov	r0, r2
      (uint32_t)0x01 << (NVIC_InitStruct->NVIC_IRQChannel & (uint8_t)0x1F);
 800a1ca:	2201      	movs	r2, #1
 800a1cc:	fa02 f303 	lsl.w	r3, r2, r3
    NVIC->ISER[NVIC_InitStruct->NVIC_IRQChannel >> 0x05] =
 800a1d0:	f841 3020 	str.w	r3, [r1, r0, lsl #2]
  {
    /* Disable the Selected IRQ Channels -------------------------------------*/
    NVIC->ICER[NVIC_InitStruct->NVIC_IRQChannel >> 0x05] =
      (uint32_t)0x01 << (NVIC_InitStruct->NVIC_IRQChannel & (uint8_t)0x1F);
  }
}
 800a1d4:	e00f      	b.n	800a1f6 <NVIC_Init+0xb2>
      (uint32_t)0x01 << (NVIC_InitStruct->NVIC_IRQChannel & (uint8_t)0x1F);
 800a1d6:	687b      	ldr	r3, [r7, #4]
 800a1d8:	781b      	ldrb	r3, [r3, #0]
 800a1da:	f003 031f 	and.w	r3, r3, #31
    NVIC->ICER[NVIC_InitStruct->NVIC_IRQChannel >> 0x05] =
 800a1de:	4909      	ldr	r1, [pc, #36]	@ (800a204 <NVIC_Init+0xc0>)
 800a1e0:	687a      	ldr	r2, [r7, #4]
 800a1e2:	7812      	ldrb	r2, [r2, #0]
 800a1e4:	0952      	lsrs	r2, r2, #5
 800a1e6:	b2d2      	uxtb	r2, r2
 800a1e8:	4610      	mov	r0, r2
      (uint32_t)0x01 << (NVIC_InitStruct->NVIC_IRQChannel & (uint8_t)0x1F);
 800a1ea:	2201      	movs	r2, #1
 800a1ec:	409a      	lsls	r2, r3
    NVIC->ICER[NVIC_InitStruct->NVIC_IRQChannel >> 0x05] =
 800a1ee:	f100 0320 	add.w	r3, r0, #32
 800a1f2:	f841 2023 	str.w	r2, [r1, r3, lsl #2]
}
 800a1f6:	bf00      	nop
 800a1f8:	371c      	adds	r7, #28
 800a1fa:	46bd      	mov	sp, r7
 800a1fc:	bc80      	pop	{r7}
 800a1fe:	4770      	bx	lr
 800a200:	e000ed00 	.word	0xe000ed00
 800a204:	e000e100 	.word	0xe000e100

0800a208 <__NVIC_SetPriority>:
  \param [in]      IRQn  Interrupt number.
  \param [in]  priority  Priority to set.
  \note    The priority cannot be set for every processor exception.
 */
__STATIC_INLINE void __NVIC_SetPriority(IRQn_Type IRQn, uint32_t priority)
{
 800a208:	b480      	push	{r7}
 800a20a:	b083      	sub	sp, #12
 800a20c:	af00      	add	r7, sp, #0
 800a20e:	4603      	mov	r3, r0
 800a210:	6039      	str	r1, [r7, #0]
 800a212:	71fb      	strb	r3, [r7, #7]
  if ((int32_t)(IRQn) >= 0)
 800a214:	f997 3007 	ldrsb.w	r3, [r7, #7]
 800a218:	2b00      	cmp	r3, #0
 800a21a:	db0a      	blt.n	800a232 <__NVIC_SetPriority+0x2a>
  {
    NVIC->IP[((uint32_t)IRQn)]               = (uint8_t)((priority << (8U - __NVIC_PRIO_BITS)) & (uint32_t)0xFFUL);
 800a21c:	683b      	ldr	r3, [r7, #0]
 800a21e:	b2da      	uxtb	r2, r3
 800a220:	490c      	ldr	r1, [pc, #48]	@ (800a254 <__NVIC_SetPriority+0x4c>)
 800a222:	f997 3007 	ldrsb.w	r3, [r7, #7]
 800a226:	0112      	lsls	r2, r2, #4
 800a228:	b2d2      	uxtb	r2, r2
 800a22a:	440b      	add	r3, r1
 800a22c:	f883 2300 	strb.w	r2, [r3, #768]	@ 0x300
  }
  else
  {
    SCB->SHP[(((uint32_t)IRQn) & 0xFUL)-4UL] = (uint8_t)((priority << (8U - __NVIC_PRIO_BITS)) & (uint32_t)0xFFUL);
  }
}
 800a230:	e00a      	b.n	800a248 <__NVIC_SetPriority+0x40>
    SCB->SHP[(((uint32_t)IRQn) & 0xFUL)-4UL] = (uint8_t)((priority << (8U - __NVIC_PRIO_BITS)) & (uint32_t)0xFFUL);
 800a232:	683b      	ldr	r3, [r7, #0]
 800a234:	b2da      	uxtb	r2, r3
 800a236:	4908      	ldr	r1, [pc, #32]	@ (800a258 <__NVIC_SetPriority+0x50>)
 800a238:	79fb      	ldrb	r3, [r7, #7]
 800a23a:	f003 030f 	and.w	r3, r3, #15
 800a23e:	3b04      	subs	r3, #4
 800a240:	0112      	lsls	r2, r2, #4
 800a242:	b2d2      	uxtb	r2, r2
 800a244:	440b      	add	r3, r1
 800a246:	761a      	strb	r2, [r3, #24]
}
 800a248:	bf00      	nop
 800a24a:	370c      	adds	r7, #12
 800a24c:	46bd      	mov	sp, r7
 800a24e:	bc80      	pop	{r7}
 800a250:	4770      	bx	lr
 800a252:	bf00      	nop
 800a254:	e000e100 	.word	0xe000e100
 800a258:	e000ed00 	.word	0xe000ed00

0800a25c <systemClockInit>:
// **************************************************************
// Initializes the systick timer.
// Activates systick interrupt.
// **************************************************************
void systemClockInit()
{
 800a25c:	b580      	push	{r7, lr}
 800a25e:	b082      	sub	sp, #8
 800a260:	af00      	add	r7, sp, #0
  timerTicksCount = 1;
 800a262:	4b0c      	ldr	r3, [pc, #48]	@ (800a294 <systemClockInit+0x38>)
 800a264:	2201      	movs	r2, #1
 800a266:	601a      	str	r2, [r3, #0]

  u32 tickCount = SYSTEM_HCLK_FREQ / SYSTEM_TIMER_TICKS_FREQ;
 800a268:	4b0b      	ldr	r3, [pc, #44]	@ (800a298 <systemClockInit+0x3c>)
 800a26a:	607b      	str	r3, [r7, #4]

  // set the systick counter, and load it for the first time.
  SysTick->LOAD  =  tickCount-1;
 800a26c:	4a0b      	ldr	r2, [pc, #44]	@ (800a29c <systemClockInit+0x40>)
 800a26e:	687b      	ldr	r3, [r7, #4]
 800a270:	3b01      	subs	r3, #1
 800a272:	6053      	str	r3, [r2, #4]
  NVIC_SetPriority(SysTick_IRQn, 0);
 800a274:	2100      	movs	r1, #0
 800a276:	f04f 30ff 	mov.w	r0, #4294967295
 800a27a:	f7ff ffc5 	bl	800a208 <__NVIC_SetPriority>
  SysTick->VAL = 0;
 800a27e:	4b07      	ldr	r3, [pc, #28]	@ (800a29c <systemClockInit+0x40>)
 800a280:	2200      	movs	r2, #0
 800a282:	609a      	str	r2, [r3, #8]

  // enable the systick, and activate interrupt.
  SysTick->CTRL = (SYSTICK_ENABLE_MASK | SYSTICK_INT_ENABLE_MASK | SYSTICK_SOURCE_CLK_MASK);
 800a284:	4b05      	ldr	r3, [pc, #20]	@ (800a29c <systemClockInit+0x40>)
 800a286:	2207      	movs	r2, #7
 800a288:	601a      	str	r2, [r3, #0]
}
 800a28a:	bf00      	nop
 800a28c:	3708      	adds	r7, #8
 800a28e:	46bd      	mov	sp, r7
 800a290:	bd80      	pop	{r7, pc}
 800a292:	bf00      	nop
 800a294:	2000b49c 	.word	0x2000b49c
 800a298:	00011940 	.word	0x00011940
 800a29c:	e000e010 	.word	0xe000e010

0800a2a0 <SysTick_Handler>:
// **************************************************************
// Updates the system ticks counter.
// First updates the seconds counter, followed by the micro seconds.
// **************************************************************
void SysTick_Handler()
{
 800a2a0:	b480      	push	{r7}
 800a2a2:	b083      	sub	sp, #12
 800a2a4:	af00      	add	r7, sp, #0
  uint32_t nextVal = timerTicksCount;
 800a2a6:	4b09      	ldr	r3, [pc, #36]	@ (800a2cc <SysTick_Handler+0x2c>)
 800a2a8:	681b      	ldr	r3, [r3, #0]
 800a2aa:	607b      	str	r3, [r7, #4]
  if (nextVal == 0xFFFFFFFF) {
 800a2ac:	687b      	ldr	r3, [r7, #4]
 800a2ae:	f1b3 3fff 	cmp.w	r3, #4294967295
 800a2b2:	d101      	bne.n	800a2b8 <SysTick_Handler+0x18>
    nextVal = 0;
 800a2b4:	2300      	movs	r3, #0
 800a2b6:	607b      	str	r3, [r7, #4]
  }
  timerTicksCount = nextVal+1;
 800a2b8:	687b      	ldr	r3, [r7, #4]
 800a2ba:	3301      	adds	r3, #1
 800a2bc:	4a03      	ldr	r2, [pc, #12]	@ (800a2cc <SysTick_Handler+0x2c>)
 800a2be:	6013      	str	r3, [r2, #0]
}
 800a2c0:	bf00      	nop
 800a2c2:	370c      	adds	r7, #12
 800a2c4:	46bd      	mov	sp, r7
 800a2c6:	bc80      	pop	{r7}
 800a2c8:	4770      	bx	lr
 800a2ca:	bf00      	nop
 800a2cc:	2000b49c 	.word	0x2000b49c

0800a2d0 <getTimerTicks>:

// **************************************************************
// Returns the timer systicks time for reference 
// **************************************************************
uint32_t getTimerTicks() {
 800a2d0:	b480      	push	{r7}
 800a2d2:	af00      	add	r7, sp, #0
  return timerTicksCount;
 800a2d4:	4b02      	ldr	r3, [pc, #8]	@ (800a2e0 <getTimerTicks+0x10>)
 800a2d6:	681b      	ldr	r3, [r3, #0]
}
 800a2d8:	4618      	mov	r0, r3
 800a2da:	46bd      	mov	sp, r7
 800a2dc:	bc80      	pop	{r7}
 800a2de:	4770      	bx	lr
 800a2e0:	2000b49c 	.word	0x2000b49c

0800a2e4 <getTimerMilliSecs>:

// **************************************************************
// Returns the time since 'timerRef' in milli seconds.
// **************************************************************
uint32_t getTimerMilliSecs(uint32_t timerRef)
{
 800a2e4:	b480      	push	{r7}
 800a2e6:	b085      	sub	sp, #20
 800a2e8:	af00      	add	r7, sp, #0
 800a2ea:	6078      	str	r0, [r7, #4]
  // note that this variable is unsigned.
  uint32_t timeOffset = (timerTicksCount - timerRef);
 800a2ec:	4b05      	ldr	r3, [pc, #20]	@ (800a304 <getTimerMilliSecs+0x20>)
 800a2ee:	681a      	ldr	r2, [r3, #0]
 800a2f0:	687b      	ldr	r3, [r7, #4]
 800a2f2:	1ad3      	subs	r3, r2, r3
 800a2f4:	60fb      	str	r3, [r7, #12]
  else {
    // 1000 is a factor of SYSTEM_TIMER_TICKS_FREQ
    timeOffset *= (SYSTEM_TIMER_TICKS_FREQ / 1000);
  }

  return timeOffset;
 800a2f6:	68fb      	ldr	r3, [r7, #12]
}
 800a2f8:	4618      	mov	r0, r3
 800a2fa:	3714      	adds	r7, #20
 800a2fc:	46bd      	mov	sp, r7
 800a2fe:	bc80      	pop	{r7}
 800a300:	4770      	bx	lr
 800a302:	bf00      	nop
 800a304:	2000b49c 	.word	0x2000b49c

0800a308 <getTimerLease>:
// **************************************************************
// Get a lease time.
// Can never be '0'.
// **************************************************************
uint32_t getTimerLease(uint32_t milliSec)
{
 800a308:	b580      	push	{r7, lr}
 800a30a:	b084      	sub	sp, #16
 800a30c:	af00      	add	r7, sp, #0
 800a30e:	6078      	str	r0, [r7, #4]
  // lease overflow will happen only for timeouts greater than days...
  uint32_t leaseTime = (milliSec * SYSTEM_TIMER_TICKS_FREQ) / 1000;
 800a310:	687b      	ldr	r3, [r7, #4]
 800a312:	f44f 727a 	mov.w	r2, #1000	@ 0x3e8
 800a316:	fb02 f303 	mul.w	r3, r2, r3
 800a31a:	4a0a      	ldr	r2, [pc, #40]	@ (800a344 <getTimerLease+0x3c>)
 800a31c:	fba2 2303 	umull	r2, r3, r2, r3
 800a320:	099b      	lsrs	r3, r3, #6
 800a322:	60fb      	str	r3, [r7, #12]
  leaseTime += getTimerTicks();
 800a324:	f7ff ffd4 	bl	800a2d0 <getTimerTicks>
 800a328:	4602      	mov	r2, r0
 800a32a:	68fb      	ldr	r3, [r7, #12]
 800a32c:	4413      	add	r3, r2
 800a32e:	60fb      	str	r3, [r7, #12]
  if (leaseTime == 0) {
 800a330:	68fb      	ldr	r3, [r7, #12]
 800a332:	2b00      	cmp	r3, #0
 800a334:	d101      	bne.n	800a33a <getTimerLease+0x32>
    leaseTime = 1;
 800a336:	2301      	movs	r3, #1
 800a338:	60fb      	str	r3, [r7, #12]
  }

  return leaseTime;
 800a33a:	68fb      	ldr	r3, [r7, #12]
}
 800a33c:	4618      	mov	r0, r3
 800a33e:	3710      	adds	r7, #16
 800a340:	46bd      	mov	sp, r7
 800a342:	bd80      	pop	{r7, pc}
 800a344:	10624dd3 	.word	0x10624dd3

0800a348 <getLeaseTime>:
// **************************************************************
// Returns lease time in milli seconds
// We never return '0' (turns to '1').
// **************************************************************
int32_t getLeaseTime(uint32_t timerRef)
{
 800a348:	b480      	push	{r7}
 800a34a:	b085      	sub	sp, #20
 800a34c:	af00      	add	r7, sp, #0
 800a34e:	6078      	str	r0, [r7, #4]
  if (timerRef == 0) {
 800a350:	687b      	ldr	r3, [r7, #4]
 800a352:	2b00      	cmp	r3, #0
 800a354:	d101      	bne.n	800a35a <getLeaseTime+0x12>
    return 0;
 800a356:	2300      	movs	r3, #0
 800a358:	e018      	b.n	800a38c <getLeaseTime+0x44>
  }

  // note that we compare two unsigned, where the result is signed.
  int32_t leaseTime = (timerRef - timerTicksCount);
 800a35a:	4b0f      	ldr	r3, [pc, #60]	@ (800a398 <getLeaseTime+0x50>)
 800a35c:	681b      	ldr	r3, [r3, #0]
 800a35e:	687a      	ldr	r2, [r7, #4]
 800a360:	1ad3      	subs	r3, r2, r3
 800a362:	60fb      	str	r3, [r7, #12]
  // lease overflow will happen only for timeouts greater than days...
  leaseTime *= 1000;
 800a364:	68fb      	ldr	r3, [r7, #12]
 800a366:	f44f 727a 	mov.w	r2, #1000	@ 0x3e8
 800a36a:	fb02 f303 	mul.w	r3, r2, r3
 800a36e:	60fb      	str	r3, [r7, #12]
  leaseTime /= SYSTEM_TIMER_TICKS_FREQ;
 800a370:	68fb      	ldr	r3, [r7, #12]
 800a372:	4a0a      	ldr	r2, [pc, #40]	@ (800a39c <getLeaseTime+0x54>)
 800a374:	fb82 1203 	smull	r1, r2, r2, r3
 800a378:	1192      	asrs	r2, r2, #6
 800a37a:	17db      	asrs	r3, r3, #31
 800a37c:	1ad3      	subs	r3, r2, r3
 800a37e:	60fb      	str	r3, [r7, #12]
  if (leaseTime == 0) {
 800a380:	68fb      	ldr	r3, [r7, #12]
 800a382:	2b00      	cmp	r3, #0
 800a384:	d101      	bne.n	800a38a <getLeaseTime+0x42>
    leaseTime = 1;
 800a386:	2301      	movs	r3, #1
 800a388:	60fb      	str	r3, [r7, #12]
  }

  return leaseTime;
 800a38a:	68fb      	ldr	r3, [r7, #12]
}
 800a38c:	4618      	mov	r0, r3
 800a38e:	3714      	adds	r7, #20
 800a390:	46bd      	mov	sp, r7
 800a392:	bc80      	pop	{r7}
 800a394:	4770      	bx	lr
 800a396:	bf00      	nop
 800a398:	2000b49c 	.word	0x2000b49c
 800a39c:	10624dd3 	.word	0x10624dd3

0800a3a0 <wait>:

// **************************************************************
// Blocks thread for 'milliseconds'.
// **************************************************************
void wait(uint32_t milliseconds)
{
 800a3a0:	b580      	push	{r7, lr}
 800a3a2:	b084      	sub	sp, #16
 800a3a4:	af00      	add	r7, sp, #0
 800a3a6:	6078      	str	r0, [r7, #4]
  uint32_t baseTime = getTimerTicks();
 800a3a8:	f7ff ff92 	bl	800a2d0 <getTimerTicks>
 800a3ac:	60f8      	str	r0, [r7, #12]
  while (getTimerMilliSecs(baseTime) < milliseconds);
 800a3ae:	bf00      	nop
 800a3b0:	68f8      	ldr	r0, [r7, #12]
 800a3b2:	f7ff ff97 	bl	800a2e4 <getTimerMilliSecs>
 800a3b6:	4602      	mov	r2, r0
 800a3b8:	687b      	ldr	r3, [r7, #4]
 800a3ba:	4293      	cmp	r3, r2
 800a3bc:	d8f8      	bhi.n	800a3b0 <wait+0x10>
}
 800a3be:	bf00      	nop
 800a3c0:	bf00      	nop
 800a3c2:	3710      	adds	r7, #16
 800a3c4:	46bd      	mov	sp, r7
 800a3c6:	bd80      	pop	{r7, pc}

0800a3c8 <__NVIC_SystemReset>:
/**
  \brief   System Reset
  \details Initiates a system reset request to reset the MCU.
 */
__NO_RETURN __STATIC_INLINE void __NVIC_SystemReset(void)
{
 800a3c8:	b480      	push	{r7}
 800a3ca:	af00      	add	r7, sp, #0
  \details Acts as a special kind of Data Memory Barrier.
           It completes when all explicit memory accesses before this instruction complete.
 */
__STATIC_FORCEINLINE void __DSB(void)
{
  __ASM volatile ("dsb 0xF":::"memory");
 800a3cc:	f3bf 8f4f 	dsb	sy
}
 800a3d0:	bf00      	nop
  __DSB();                                                          /* Ensure all outstanding memory accesses included
                                                                       buffered write are completed before reset */
  SCB->AIRCR  = (uint32_t)((0x5FAUL << SCB_AIRCR_VECTKEY_Pos)    |
                           (SCB->AIRCR & SCB_AIRCR_PRIGROUP_Msk) |
 800a3d2:	4b06      	ldr	r3, [pc, #24]	@ (800a3ec <__NVIC_SystemReset+0x24>)
 800a3d4:	68db      	ldr	r3, [r3, #12]
 800a3d6:	f403 62e0 	and.w	r2, r3, #1792	@ 0x700
  SCB->AIRCR  = (uint32_t)((0x5FAUL << SCB_AIRCR_VECTKEY_Pos)    |
 800a3da:	4904      	ldr	r1, [pc, #16]	@ (800a3ec <__NVIC_SystemReset+0x24>)
 800a3dc:	4b04      	ldr	r3, [pc, #16]	@ (800a3f0 <__NVIC_SystemReset+0x28>)
 800a3de:	4313      	orrs	r3, r2
 800a3e0:	60cb      	str	r3, [r1, #12]
  __ASM volatile ("dsb 0xF":::"memory");
 800a3e2:	f3bf 8f4f 	dsb	sy
}
 800a3e6:	bf00      	nop
                            SCB_AIRCR_SYSRESETREQ_Msk    );         /* Keep priority group unchanged */
  __DSB();                                                          /* Ensure completion of memory access */

  for(;;)                                                           /* wait until reset */
  {
    __NOP();
 800a3e8:	bf00      	nop
 800a3ea:	e7fd      	b.n	800a3e8 <__NVIC_SystemReset+0x20>
 800a3ec:	e000ed00 	.word	0xe000ed00
 800a3f0:	05fa0004 	.word	0x05fa0004

0800a3f4 <RCC_reset>:

// **************************************************************
// Resets all system clocks to default.
// **************************************************************
static void RCC_reset()
{
 800a3f4:	b480      	push	{r7}
 800a3f6:	af00      	add	r7, sp, #0
  RCC->CR |= (uint32_t)0x00000001;
 800a3f8:	4b18      	ldr	r3, [pc, #96]	@ (800a45c <RCC_reset+0x68>)
 800a3fa:	681b      	ldr	r3, [r3, #0]
 800a3fc:	4a17      	ldr	r2, [pc, #92]	@ (800a45c <RCC_reset+0x68>)
 800a3fe:	f043 0301 	orr.w	r3, r3, #1
 800a402:	6013      	str	r3, [r2, #0]
  RCC->CFGR &= (uint32_t)0xF0FF0000;
 800a404:	4b15      	ldr	r3, [pc, #84]	@ (800a45c <RCC_reset+0x68>)
 800a406:	685a      	ldr	r2, [r3, #4]
 800a408:	4914      	ldr	r1, [pc, #80]	@ (800a45c <RCC_reset+0x68>)
 800a40a:	4b15      	ldr	r3, [pc, #84]	@ (800a460 <RCC_reset+0x6c>)
 800a40c:	4013      	ands	r3, r2
 800a40e:	604b      	str	r3, [r1, #4]
  RCC->CR &= (uint32_t)0xFEF6FFFF;
 800a410:	4b12      	ldr	r3, [pc, #72]	@ (800a45c <RCC_reset+0x68>)
 800a412:	681b      	ldr	r3, [r3, #0]
 800a414:	4a11      	ldr	r2, [pc, #68]	@ (800a45c <RCC_reset+0x68>)
 800a416:	f023 7384 	bic.w	r3, r3, #17301504	@ 0x1080000
 800a41a:	f423 3380 	bic.w	r3, r3, #65536	@ 0x10000
 800a41e:	6013      	str	r3, [r2, #0]
  RCC->CR &= (uint32_t)0xFFFBFFFF;
 800a420:	4b0e      	ldr	r3, [pc, #56]	@ (800a45c <RCC_reset+0x68>)
 800a422:	681b      	ldr	r3, [r3, #0]
 800a424:	4a0d      	ldr	r2, [pc, #52]	@ (800a45c <RCC_reset+0x68>)
 800a426:	f423 2380 	bic.w	r3, r3, #262144	@ 0x40000
 800a42a:	6013      	str	r3, [r2, #0]
  RCC->CFGR &= (uint32_t)0xFF80FFFF;
 800a42c:	4b0b      	ldr	r3, [pc, #44]	@ (800a45c <RCC_reset+0x68>)
 800a42e:	685b      	ldr	r3, [r3, #4]
 800a430:	4a0a      	ldr	r2, [pc, #40]	@ (800a45c <RCC_reset+0x68>)
 800a432:	f423 03fe 	bic.w	r3, r3, #8323072	@ 0x7f0000
 800a436:	6053      	str	r3, [r2, #4]
  RCC->CR &= (uint32_t)0xEBFFFFFF;
 800a438:	4b08      	ldr	r3, [pc, #32]	@ (800a45c <RCC_reset+0x68>)
 800a43a:	681b      	ldr	r3, [r3, #0]
 800a43c:	4a07      	ldr	r2, [pc, #28]	@ (800a45c <RCC_reset+0x68>)
 800a43e:	f023 53a0 	bic.w	r3, r3, #335544320	@ 0x14000000
 800a442:	6013      	str	r3, [r2, #0]
  RCC->CIR = 0x00FF0000;
 800a444:	4b05      	ldr	r3, [pc, #20]	@ (800a45c <RCC_reset+0x68>)
 800a446:	f44f 027f 	mov.w	r2, #16711680	@ 0xff0000
 800a44a:	609a      	str	r2, [r3, #8]
  RCC->CFGR2 = 0x00000000;
 800a44c:	4b03      	ldr	r3, [pc, #12]	@ (800a45c <RCC_reset+0x68>)
 800a44e:	2200      	movs	r2, #0
 800a450:	62da      	str	r2, [r3, #44]	@ 0x2c
}
 800a452:	bf00      	nop
 800a454:	46bd      	mov	sp, r7
 800a456:	bc80      	pop	{r7}
 800a458:	4770      	bx	lr
 800a45a:	bf00      	nop
 800a45c:	40021000 	.word	0x40021000
 800a460:	f0ff0000 	.word	0xf0ff0000

0800a464 <RCC_waitForCrFlagSet>:

// **************************************************************
// Waits until flag's status in CR register is no longer 'RESET'
// **************************************************************
static void RCC_waitForCrFlagSet(uint32_t flagMask)
{
 800a464:	b480      	push	{r7}
 800a466:	b085      	sub	sp, #20
 800a468:	af00      	add	r7, sp, #0
 800a46a:	6078      	str	r0, [r7, #4]
  while (1) {
    uint32_t statusReg = RCC->CR;
 800a46c:	4b08      	ldr	r3, [pc, #32]	@ (800a490 <RCC_waitForCrFlagSet+0x2c>)
 800a46e:	681b      	ldr	r3, [r3, #0]
 800a470:	60fb      	str	r3, [r7, #12]

    statusReg &= flagMask;
 800a472:	68fa      	ldr	r2, [r7, #12]
 800a474:	687b      	ldr	r3, [r7, #4]
 800a476:	4013      	ands	r3, r2
 800a478:	60fb      	str	r3, [r7, #12]
    if (statusReg) {
 800a47a:	68fb      	ldr	r3, [r7, #12]
 800a47c:	2b00      	cmp	r3, #0
 800a47e:	d100      	bne.n	800a482 <RCC_waitForCrFlagSet+0x1e>
  while (1) {
 800a480:	e7f4      	b.n	800a46c <RCC_waitForCrFlagSet+0x8>
      break;
 800a482:	bf00      	nop
    }
  }
}
 800a484:	bf00      	nop
 800a486:	3714      	adds	r7, #20
 800a488:	46bd      	mov	sp, r7
 800a48a:	bc80      	pop	{r7}
 800a48c:	4770      	bx	lr
 800a48e:	bf00      	nop
 800a490:	40021000 	.word	0x40021000

0800a494 <RCC_HSEConfig>:
// **************************************************************
// Configure the HSE clock
// Set source to external oscilator.
// **************************************************************
static void RCC_HSEConfig()
{
 800a494:	b480      	push	{r7}
 800a496:	af00      	add	r7, sp, #0
  RCC->CR &= (~RCC_CR_HSE_ON_MASK);
 800a498:	4b0a      	ldr	r3, [pc, #40]	@ (800a4c4 <RCC_HSEConfig+0x30>)
 800a49a:	681b      	ldr	r3, [r3, #0]
 800a49c:	4a09      	ldr	r2, [pc, #36]	@ (800a4c4 <RCC_HSEConfig+0x30>)
 800a49e:	f423 3380 	bic.w	r3, r3, #65536	@ 0x10000
 800a4a2:	6013      	str	r3, [r2, #0]
  RCC->CR &= (~RCC_CR_HSE_BYPASS_MASK);
 800a4a4:	4b07      	ldr	r3, [pc, #28]	@ (800a4c4 <RCC_HSEConfig+0x30>)
 800a4a6:	681b      	ldr	r3, [r3, #0]
 800a4a8:	4a06      	ldr	r2, [pc, #24]	@ (800a4c4 <RCC_HSEConfig+0x30>)
 800a4aa:	f423 2380 	bic.w	r3, r3, #262144	@ 0x40000
 800a4ae:	6013      	str	r3, [r2, #0]
  RCC->CR |= RCC_CR_HSE_ON_MASK;
 800a4b0:	4b04      	ldr	r3, [pc, #16]	@ (800a4c4 <RCC_HSEConfig+0x30>)
 800a4b2:	681b      	ldr	r3, [r3, #0]
 800a4b4:	4a03      	ldr	r2, [pc, #12]	@ (800a4c4 <RCC_HSEConfig+0x30>)
 800a4b6:	f443 3380 	orr.w	r3, r3, #65536	@ 0x10000
 800a4ba:	6013      	str	r3, [r2, #0]
}
 800a4bc:	bf00      	nop
 800a4be:	46bd      	mov	sp, r7
 800a4c0:	bc80      	pop	{r7}
 800a4c2:	4770      	bx	lr
 800a4c4:	40021000 	.word	0x40021000

0800a4c8 <RCC_configCFGRReg>:
// **************************************************************
// Configure a register according to clear mask 'clearMask'
// And a new value 'setMask'.
// **************************************************************
static void RCC_configCFGRReg(uint32_t clearMask, uint32_t setMask)
{
 800a4c8:	b480      	push	{r7}
 800a4ca:	b085      	sub	sp, #20
 800a4cc:	af00      	add	r7, sp, #0
 800a4ce:	6078      	str	r0, [r7, #4]
 800a4d0:	6039      	str	r1, [r7, #0]
  if ((setMask & clearMask) != setMask) {
    //enterLiveLoop();
  }

  uint32_t curVal = RCC->CFGR;
 800a4d2:	4b0a      	ldr	r3, [pc, #40]	@ (800a4fc <RCC_configCFGRReg+0x34>)
 800a4d4:	685b      	ldr	r3, [r3, #4]
 800a4d6:	60fb      	str	r3, [r7, #12]
  curVal &= (~clearMask);
 800a4d8:	687b      	ldr	r3, [r7, #4]
 800a4da:	43db      	mvns	r3, r3
 800a4dc:	68fa      	ldr	r2, [r7, #12]
 800a4de:	4013      	ands	r3, r2
 800a4e0:	60fb      	str	r3, [r7, #12]
  curVal |= setMask;
 800a4e2:	68fa      	ldr	r2, [r7, #12]
 800a4e4:	683b      	ldr	r3, [r7, #0]
 800a4e6:	4313      	orrs	r3, r2
 800a4e8:	60fb      	str	r3, [r7, #12]
  RCC->CFGR = curVal;
 800a4ea:	4a04      	ldr	r2, [pc, #16]	@ (800a4fc <RCC_configCFGRReg+0x34>)
 800a4ec:	68fb      	ldr	r3, [r7, #12]
 800a4ee:	6053      	str	r3, [r2, #4]
}
 800a4f0:	bf00      	nop
 800a4f2:	3714      	adds	r7, #20
 800a4f4:	46bd      	mov	sp, r7
 800a4f6:	bc80      	pop	{r7}
 800a4f8:	4770      	bx	lr
 800a4fa:	bf00      	nop
 800a4fc:	40021000 	.word	0x40021000

0800a500 <RCC_configCFGR2Reg>:
// **************************************************************
// Configure a register according to clear mask 'clearMask'
// And a new value 'setMask'.
// **************************************************************
static void RCC_configCFGR2Reg(uint32_t clearMask, uint32_t setMask)
{
 800a500:	b480      	push	{r7}
 800a502:	b085      	sub	sp, #20
 800a504:	af00      	add	r7, sp, #0
 800a506:	6078      	str	r0, [r7, #4]
 800a508:	6039      	str	r1, [r7, #0]
  if ((setMask & clearMask) != setMask) {
    //enterLiveLoop();
  }

  uint32_t curVal = RCC->CFGR2;
 800a50a:	4b0a      	ldr	r3, [pc, #40]	@ (800a534 <RCC_configCFGR2Reg+0x34>)
 800a50c:	6adb      	ldr	r3, [r3, #44]	@ 0x2c
 800a50e:	60fb      	str	r3, [r7, #12]
  curVal &= (~clearMask);
 800a510:	687b      	ldr	r3, [r7, #4]
 800a512:	43db      	mvns	r3, r3
 800a514:	68fa      	ldr	r2, [r7, #12]
 800a516:	4013      	ands	r3, r2
 800a518:	60fb      	str	r3, [r7, #12]
  curVal |= setMask;
 800a51a:	68fa      	ldr	r2, [r7, #12]
 800a51c:	683b      	ldr	r3, [r7, #0]
 800a51e:	4313      	orrs	r3, r2
 800a520:	60fb      	str	r3, [r7, #12]
  RCC->CFGR2 = curVal;
 800a522:	4a04      	ldr	r2, [pc, #16]	@ (800a534 <RCC_configCFGR2Reg+0x34>)
 800a524:	68fb      	ldr	r3, [r7, #12]
 800a526:	62d3      	str	r3, [r2, #44]	@ 0x2c
}
 800a528:	bf00      	nop
 800a52a:	3714      	adds	r7, #20
 800a52c:	46bd      	mov	sp, r7
 800a52e:	bc80      	pop	{r7}
 800a530:	4770      	bx	lr
 800a532:	bf00      	nop
 800a534:	40021000 	.word	0x40021000

0800a538 <RCC_setPLL_CR_BB>:

// **************************************************************
// Set PLL status according to newVal
// **************************************************************
static void RCC_setPLL_CR_BB(uint32_t offset, uint32_t newVal)
{
 800a538:	b480      	push	{r7}
 800a53a:	b083      	sub	sp, #12
 800a53c:	af00      	add	r7, sp, #0
 800a53e:	6078      	str	r0, [r7, #4]
 800a540:	6039      	str	r1, [r7, #0]
  SET_PLL_CR_BB(offset, newVal);
 800a542:	687b      	ldr	r3, [r7, #4]
 800a544:	f103 5384 	add.w	r3, r3, #276824064	@ 0x10800000
 800a548:	f503 1384 	add.w	r3, r3, #1081344	@ 0x108000
 800a54c:	009b      	lsls	r3, r3, #2
 800a54e:	461a      	mov	r2, r3
 800a550:	683b      	ldr	r3, [r7, #0]
 800a552:	6013      	str	r3, [r2, #0]
}
 800a554:	bf00      	nop
 800a556:	370c      	adds	r7, #12
 800a558:	46bd      	mov	sp, r7
 800a55a:	bc80      	pop	{r7}
 800a55c:	4770      	bx	lr
	...

0800a560 <RCC_waitForSysclock>:

// **************************************************************
// Wait until sysclock is good.
// **************************************************************
static void RCC_waitForSysclock()
{
 800a560:	b480      	push	{r7}
 800a562:	b083      	sub	sp, #12
 800a564:	af00      	add	r7, sp, #0
  while (1) {
    uint32_t statusReg = RCC->CFGR;
 800a566:	4b08      	ldr	r3, [pc, #32]	@ (800a588 <RCC_waitForSysclock+0x28>)
 800a568:	685b      	ldr	r3, [r3, #4]
 800a56a:	607b      	str	r3, [r7, #4]

    statusReg &= CFGR_SW_SOURCE_MASK;
 800a56c:	687b      	ldr	r3, [r7, #4]
 800a56e:	f003 030c 	and.w	r3, r3, #12
 800a572:	607b      	str	r3, [r7, #4]
    if (statusReg == 0x08) {
 800a574:	687b      	ldr	r3, [r7, #4]
 800a576:	2b08      	cmp	r3, #8
 800a578:	d000      	beq.n	800a57c <RCC_waitForSysclock+0x1c>
  while (1) {
 800a57a:	e7f4      	b.n	800a566 <RCC_waitForSysclock+0x6>
      break;
 800a57c:	bf00      	nop
    }
  }
}
 800a57e:	bf00      	nop
 800a580:	370c      	adds	r7, #12
 800a582:	46bd      	mov	sp, r7
 800a584:	bc80      	pop	{r7}
 800a586:	4770      	bx	lr
 800a588:	40021000 	.word	0x40021000

0800a58c <RCC_AHBPeriphClockActivate>:

// **************************************************************
// Activate perfipherial clocks for AHB
// **************************************************************
static void RCC_AHBPeriphClockActivate(uint32_t clocksMask)
{
 800a58c:	b480      	push	{r7}
 800a58e:	b083      	sub	sp, #12
 800a590:	af00      	add	r7, sp, #0
 800a592:	6078      	str	r0, [r7, #4]
  RCC->AHBENR |= clocksMask;
 800a594:	4b05      	ldr	r3, [pc, #20]	@ (800a5ac <RCC_AHBPeriphClockActivate+0x20>)
 800a596:	695a      	ldr	r2, [r3, #20]
 800a598:	4904      	ldr	r1, [pc, #16]	@ (800a5ac <RCC_AHBPeriphClockActivate+0x20>)
 800a59a:	687b      	ldr	r3, [r7, #4]
 800a59c:	4313      	orrs	r3, r2
 800a59e:	614b      	str	r3, [r1, #20]
}
 800a5a0:	bf00      	nop
 800a5a2:	370c      	adds	r7, #12
 800a5a4:	46bd      	mov	sp, r7
 800a5a6:	bc80      	pop	{r7}
 800a5a8:	4770      	bx	lr
 800a5aa:	bf00      	nop
 800a5ac:	40021000 	.word	0x40021000

0800a5b0 <RCC_APB2PeriphClockActivate>:

// **************************************************************
// Activate perfipherial clocks for APB2
// **************************************************************
static void RCC_APB2PeriphClockActivate(uint32_t clocksMask)
{
 800a5b0:	b480      	push	{r7}
 800a5b2:	b083      	sub	sp, #12
 800a5b4:	af00      	add	r7, sp, #0
 800a5b6:	6078      	str	r0, [r7, #4]
  RCC->APB2ENR |= clocksMask;
 800a5b8:	4b05      	ldr	r3, [pc, #20]	@ (800a5d0 <RCC_APB2PeriphClockActivate+0x20>)
 800a5ba:	699a      	ldr	r2, [r3, #24]
 800a5bc:	4904      	ldr	r1, [pc, #16]	@ (800a5d0 <RCC_APB2PeriphClockActivate+0x20>)
 800a5be:	687b      	ldr	r3, [r7, #4]
 800a5c0:	4313      	orrs	r3, r2
 800a5c2:	618b      	str	r3, [r1, #24]
}
 800a5c4:	bf00      	nop
 800a5c6:	370c      	adds	r7, #12
 800a5c8:	46bd      	mov	sp, r7
 800a5ca:	bc80      	pop	{r7}
 800a5cc:	4770      	bx	lr
 800a5ce:	bf00      	nop
 800a5d0:	40021000 	.word	0x40021000

0800a5d4 <RCC_Configuration>:

// **************************************************************
// System clocks configuration
// **************************************************************
static void RCC_Configuration()
{
 800a5d4:	b580      	push	{r7, lr}
 800a5d6:	af00      	add	r7, sp, #0
  RCC_reset();                  // just to be on the safe side
 800a5d8:	f7ff ff0c 	bl	800a3f4 <RCC_reset>

  /* Enable HSE */
  RCC_HSEConfig();
 800a5dc:	f7ff ff5a 	bl	800a494 <RCC_HSEConfig>
  RCC_waitForCrFlagSet(RCC_CR_HSE_RDY_MASK);
 800a5e0:	f44f 3000 	mov.w	r0, #131072	@ 0x20000
 800a5e4:	f7ff ff3e 	bl	800a464 <RCC_waitForCrFlagSet>

  // Initialize FLASH
  FLASH_PrefetchBufferCmd(FLASH_PrefetchBuffer_Enable);
 800a5e8:	2010      	movs	r0, #16
 800a5ea:	f000 fca1 	bl	800af30 <FLASH_PrefetchBufferCmd>
  FLASH_SetLatency(FLASH_Latency_2);
 800a5ee:	2002      	movs	r0, #2
 800a5f0:	f000 fc82 	bl	800aef8 <FLASH_SetLatency>
  // ADC     - 6  MHz
  // PLL3    - 50 MHz
  // PLL2    - 40 MHz
  // PLL     - 72 MHz

  RCC_configCFGRReg(CFGR_HPRE_SET_MASK, RCC_SYSCLK_Div1);
 800a5f4:	2100      	movs	r1, #0
 800a5f6:	20f0      	movs	r0, #240	@ 0xf0
 800a5f8:	f7ff ff66 	bl	800a4c8 <RCC_configCFGRReg>
  RCC_configCFGRReg(CFGR_PPRE1_SET_MASK, RCC_HCLK_Div2);
 800a5fc:	f44f 6180 	mov.w	r1, #1024	@ 0x400
 800a600:	f44f 60e0 	mov.w	r0, #1792	@ 0x700
 800a604:	f7ff ff60 	bl	800a4c8 <RCC_configCFGRReg>
  RCC_configCFGRReg(CFGR_PPRE2_SET_MASK, 0);
 800a608:	2100      	movs	r1, #0
 800a60a:	f44f 5060 	mov.w	r0, #14336	@ 0x3800
 800a60e:	f7ff ff5b 	bl	800a4c8 <RCC_configCFGRReg>
  RCC_configCFGRReg(CFGR_ADCPRE_SET_MASK, RCC_PCLK2_Div6);
 800a612:	f44f 4100 	mov.w	r1, #32768	@ 0x8000
 800a616:	f44f 4040 	mov.w	r0, #49152	@ 0xc000
 800a61a:	f7ff ff55 	bl	800a4c8 <RCC_configCFGRReg>
  RCC_configCFGR2Reg(CFGR2_PREDIV2_SET_MASK, RCC_PREDIV2_Div5);
 800a61e:	2140      	movs	r1, #64	@ 0x40
 800a620:	20f0      	movs	r0, #240	@ 0xf0
 800a622:	f7ff ff6d 	bl	800a500 <RCC_configCFGR2Reg>

  // PLL2
  RCC_configCFGR2Reg(CFGR2_PLL2MUL_SET_MASK, RCC_PLL2Mul_8);
 800a626:	f44f 61c0 	mov.w	r1, #1536	@ 0x600
 800a62a:	f44f 6070 	mov.w	r0, #3840	@ 0xf00
 800a62e:	f7ff ff67 	bl	800a500 <RCC_configCFGR2Reg>
  RCC_setPLL_CR_BB(PLL2ON_BitNumber, ENABLE);
 800a632:	2101      	movs	r1, #1
 800a634:	201a      	movs	r0, #26
 800a636:	f7ff ff7f 	bl	800a538 <RCC_setPLL_CR_BB>
  RCC_waitForCrFlagSet(RCC_CR_PLL2_RDY_MASK);
 800a63a:	f04f 6000 	mov.w	r0, #134217728	@ 0x8000000
 800a63e:	f7ff ff11 	bl	800a464 <RCC_waitForCrFlagSet>

  // PLL
  RCC_configCFGR2Reg(CFGR2_PREDIV1_SET_MASK, RCC_PREDIV1_PLL2_Div5);
 800a642:	4913      	ldr	r1, [pc, #76]	@ (800a690 <RCC_Configuration+0xbc>)
 800a644:	4813      	ldr	r0, [pc, #76]	@ (800a694 <RCC_Configuration+0xc0>)
 800a646:	f7ff ff5b 	bl	800a500 <RCC_configCFGR2Reg>
  RCC_configCFGRReg(CFGR_PLL_SET_MASK, RCC_PLLSource_Div1_Mul9);
 800a64a:	f44f 11e8 	mov.w	r1, #1900544	@ 0x1d0000
 800a64e:	f44f 1074 	mov.w	r0, #3997696	@ 0x3d0000
 800a652:	f7ff ff39 	bl	800a4c8 <RCC_configCFGRReg>
  RCC_setPLL_CR_BB(PLLON_BitNumber, ENABLE);
 800a656:	2101      	movs	r1, #1
 800a658:	2018      	movs	r0, #24
 800a65a:	f7ff ff6d 	bl	800a538 <RCC_setPLL_CR_BB>
  RCC_waitForCrFlagSet(RCC_CR_PLL_RDY_MASK);
 800a65e:	f04f 7000 	mov.w	r0, #33554432	@ 0x2000000
 800a662:	f7ff feff 	bl	800a464 <RCC_waitForCrFlagSet>

  // set system clock to PLL
  RCC_configCFGRReg(CFGR_SW_SET_MASK, RCC_SYSCLKSource_PLLCLK);
 800a666:	2102      	movs	r1, #2
 800a668:	2003      	movs	r0, #3
 800a66a:	f7ff ff2d 	bl	800a4c8 <RCC_configCFGRReg>
  RCC_waitForSysclock();
 800a66e:	f7ff ff77 	bl	800a560 <RCC_waitForSysclock>

  // Enable GPIOs clocks
  RCC_APB2PeriphClockActivate(RCC_APB2Periph_GPIOA | RCC_APB2Periph_GPIOB | RCC_APB2Periph_GPIOC |
 800a672:	207d      	movs	r0, #125	@ 0x7d
 800a674:	f7ff ff9c 	bl	800a5b0 <RCC_APB2PeriphClockActivate>
                              RCC_APB2Periph_GPIOD | RCC_APB2Periph_GPIOE| RCC_APB2Periph_AFIO);
  // Enable ethernet clocks
  RCC_AHBPeriphClockActivate(RCC_AHBPeriph_ETH_MAC | RCC_AHBPeriph_ETH_MAC_Tx |
 800a678:	f44f 30e0 	mov.w	r0, #114688	@ 0x1c000
 800a67c:	f7ff ff86 	bl	800a58c <RCC_AHBPeriphClockActivate>
                             RCC_AHBPeriph_ETH_MAC_Rx);
  RCC_configCFGRReg(0,RCC_MCO_HSE);
 800a680:	f04f 61c0 	mov.w	r1, #100663296	@ 0x6000000
 800a684:	2000      	movs	r0, #0
 800a686:	f7ff ff1f 	bl	800a4c8 <RCC_configCFGRReg>
                    
  
}
 800a68a:	bf00      	nop
 800a68c:	bd80      	pop	{r7, pc}
 800a68e:	bf00      	nop
 800a690:	00010004 	.word	0x00010004
 800a694:	0001000f 	.word	0x0001000f

0800a698 <NVIC_Configuration>:

// **************************************************************
// Initializes the interrupt vector to point to the flash memory.
// **************************************************************
static void NVIC_Configuration()
{
 800a698:	b480      	push	{r7}
 800a69a:	af00      	add	r7, sp, #0
  //SCB->VTOR = STM32_FLASH_BASE;
}
 800a69c:	bf00      	nop
 800a69e:	46bd      	mov	sp, r7
 800a6a0:	bc80      	pop	{r7}
 800a6a2:	4770      	bx	lr

0800a6a4 <GPIO_setData>:

static void GPIO_setData(GPIO_TypeDef* gPIOx,
                         uint16_t pinID,
                         GPIOSpeed_TypeDef speed,
                         GPIOMode_TypeDef mode)
{
 800a6a4:	b580      	push	{r7, lr}
 800a6a6:	b084      	sub	sp, #16
 800a6a8:	af00      	add	r7, sp, #0
 800a6aa:	6078      	str	r0, [r7, #4]
 800a6ac:	4608      	mov	r0, r1
 800a6ae:	4611      	mov	r1, r2
 800a6b0:	461a      	mov	r2, r3
 800a6b2:	4603      	mov	r3, r0
 800a6b4:	807b      	strh	r3, [r7, #2]
 800a6b6:	460b      	mov	r3, r1
 800a6b8:	707b      	strb	r3, [r7, #1]
 800a6ba:	4613      	mov	r3, r2
 800a6bc:	703b      	strb	r3, [r7, #0]
  GPIO_InitTypeDef GPIO_InitStructure = {pinID, speed, mode};
 800a6be:	887b      	ldrh	r3, [r7, #2]
 800a6c0:	81bb      	strh	r3, [r7, #12]
 800a6c2:	787b      	ldrb	r3, [r7, #1]
 800a6c4:	73bb      	strb	r3, [r7, #14]
 800a6c6:	783b      	ldrb	r3, [r7, #0]
 800a6c8:	73fb      	strb	r3, [r7, #15]
  GPIO_Init(gPIOx, &GPIO_InitStructure);
 800a6ca:	f107 030c 	add.w	r3, r7, #12
 800a6ce:	4619      	mov	r1, r3
 800a6d0:	6878      	ldr	r0, [r7, #4]
 800a6d2:	f000 fd89 	bl	800b1e8 <GPIO_Init>
}
 800a6d6:	bf00      	nop
 800a6d8:	3710      	adds	r7, #16
 800a6da:	46bd      	mov	sp, r7
 800a6dc:	bd80      	pop	{r7, pc}
	...

0800a6e0 <ethernetPhysicalInit>:
// Initializes the physical MII ethernet layer.
// Initialize SPI interface to the switch.
// Physical pin configuration:
// **************************************************************
static void ethernetPhysicalInit()
{
 800a6e0:	b580      	push	{r7, lr}
 800a6e2:	b082      	sub	sp, #8
 800a6e4:	af00      	add	r7, sp, #0
  uint16_t pinID;
  
  //         MDIO
  GPIO_PinRemapConfig(GPIO_Remap_ETH, ENABLE);
 800a6e6:	2101      	movs	r1, #1
 800a6e8:	f04f 1020 	mov.w	r0, #2097184	@ 0x200020
 800a6ec:	f000 febc 	bl	800b468 <GPIO_PinRemapConfig>
  GPIO_setData(GPIOA, GPIO_Pin_2, GPIO_Speed_50MHz, GPIO_Mode_AF_PP);
 800a6f0:	2318      	movs	r3, #24
 800a6f2:	2203      	movs	r2, #3
 800a6f4:	2104      	movs	r1, #4
 800a6f6:	481b      	ldr	r0, [pc, #108]	@ (800a764 <ethernetPhysicalInit+0x84>)
 800a6f8:	f7ff ffd4 	bl	800a6a4 <GPIO_setData>
  // CRS, RX_CLK, COL
  pinID = GPIO_Pin_0 | GPIO_Pin_1 | GPIO_Pin_3;
 800a6fc:	230b      	movs	r3, #11
 800a6fe:	80fb      	strh	r3, [r7, #6]
  GPIO_setData(GPIOA, pinID, GPIO_Speed_50MHz, GPIO_Mode_IN_FLOATING);
 800a700:	88f9      	ldrh	r1, [r7, #6]
 800a702:	2304      	movs	r3, #4
 800a704:	2203      	movs	r2, #3
 800a706:	4817      	ldr	r0, [pc, #92]	@ (800a764 <ethernetPhysicalInit+0x84>)
 800a708:	f7ff ffcc 	bl	800a6a4 <GPIO_setData>
  // TXD[0,1,3], TX_EN, PIN5? 
  pinID = GPIO_Pin_5 | GPIO_Pin_8 | GPIO_Pin_11 | GPIO_Pin_12 | GPIO_Pin_13;
 800a70c:	f643 1320 	movw	r3, #14624	@ 0x3920
 800a710:	80fb      	strh	r3, [r7, #6]
  GPIO_setData(GPIOB, pinID, GPIO_Speed_50MHz, GPIO_Mode_AF_PP);
 800a712:	88f9      	ldrh	r1, [r7, #6]
 800a714:	2318      	movs	r3, #24
 800a716:	2203      	movs	r2, #3
 800a718:	4813      	ldr	r0, [pc, #76]	@ (800a768 <ethernetPhysicalInit+0x88>)
 800a71a:	f7ff ffc3 	bl	800a6a4 <GPIO_setData>
  GPIO_setData(GPIOB, GPIO_Pin_10, GPIO_Speed_50MHz, GPIO_Mode_IPD); //ERROR PIN MUST NOT BE FLOATING
 800a71e:	2328      	movs	r3, #40	@ 0x28
 800a720:	2203      	movs	r2, #3
 800a722:	f44f 6180 	mov.w	r1, #1024	@ 0x400
 800a726:	4810      	ldr	r0, [pc, #64]	@ (800a768 <ethernetPhysicalInit+0x88>)
 800a728:	f7ff ffbc 	bl	800a6a4 <GPIO_setData>
  // TXD[2], TX_CLK
  pinID = GPIO_Pin_1 | GPIO_Pin_2;
 800a72c:	2306      	movs	r3, #6
 800a72e:	80fb      	strh	r3, [r7, #6]
  GPIO_setData(GPIOC, pinID, GPIO_Speed_50MHz, GPIO_Mode_AF_PP);
 800a730:	88f9      	ldrh	r1, [r7, #6]
 800a732:	2318      	movs	r3, #24
 800a734:	2203      	movs	r2, #3
 800a736:	480d      	ldr	r0, [pc, #52]	@ (800a76c <ethernetPhysicalInit+0x8c>)
 800a738:	f7ff ffb4 	bl	800a6a4 <GPIO_setData>
  GPIO_setData(GPIOC, GPIO_Pin_3, GPIO_Speed_50MHz, GPIO_Mode_IN_FLOATING);
 800a73c:	2304      	movs	r3, #4
 800a73e:	2203      	movs	r2, #3
 800a740:	2108      	movs	r1, #8
 800a742:	480a      	ldr	r0, [pc, #40]	@ (800a76c <ethernetPhysicalInit+0x8c>)
 800a744:	f7ff ffae 	bl	800a6a4 <GPIO_setData>
  //RX_DV, RXD[0:3]
  pinID = GPIO_Pin_8 | GPIO_Pin_9 | GPIO_Pin_10 | GPIO_Pin_11 | GPIO_Pin_12;
 800a748:	f44f 53f8 	mov.w	r3, #7936	@ 0x1f00
 800a74c:	80fb      	strh	r3, [r7, #6]
  GPIO_setData(GPIOD, pinID, GPIO_Speed_50MHz, GPIO_Mode_IN_FLOATING);
 800a74e:	88f9      	ldrh	r1, [r7, #6]
 800a750:	2304      	movs	r3, #4
 800a752:	2203      	movs	r2, #3
 800a754:	4806      	ldr	r0, [pc, #24]	@ (800a770 <ethernetPhysicalInit+0x90>)
 800a756:	f7ff ffa5 	bl	800a6a4 <GPIO_setData>
  
}
 800a75a:	bf00      	nop
 800a75c:	3708      	adds	r7, #8
 800a75e:	46bd      	mov	sp, r7
 800a760:	bd80      	pop	{r7, pc}
 800a762:	bf00      	nop
 800a764:	40010800 	.word	0x40010800
 800a768:	40010c00 	.word	0x40010c00
 800a76c:	40011000 	.word	0x40011000
 800a770:	40011400 	.word	0x40011400

0800a774 <ethernetMacInit>:

// **************************************************************
// starts up the ethernet physical layer.
// **************************************************************
void ethernetMacInit()
{
 800a774:	b580      	push	{r7, lr}
 800a776:	af00      	add	r7, sp, #0
  // clears the MII bit so that we can be sure we are running MII (and not RMII).
  GPIO_ETH_MediaInterfaceConfig(GPIO_ETH_MediaInterface_MII);
 800a778:	2000      	movs	r0, #0
 800a77a:	f000 fed7 	bl	800b52c <GPIO_ETH_MediaInterfaceConfig>

  // reset the AHB MAC peripherial
  RCC->AHBRSTR |= RCC_AHBPeriph_ETH_MAC;
 800a77e:	4b14      	ldr	r3, [pc, #80]	@ (800a7d0 <ethernetMacInit+0x5c>)
 800a780:	6a9b      	ldr	r3, [r3, #40]	@ 0x28
 800a782:	4a13      	ldr	r2, [pc, #76]	@ (800a7d0 <ethernetMacInit+0x5c>)
 800a784:	f443 4380 	orr.w	r3, r3, #16384	@ 0x4000
 800a788:	6293      	str	r3, [r2, #40]	@ 0x28
  RCC->AHBRSTR &= ~RCC_AHBPeriph_ETH_MAC;
 800a78a:	4b11      	ldr	r3, [pc, #68]	@ (800a7d0 <ethernetMacInit+0x5c>)
 800a78c:	6a9b      	ldr	r3, [r3, #40]	@ 0x28
 800a78e:	4a10      	ldr	r2, [pc, #64]	@ (800a7d0 <ethernetMacInit+0x5c>)
 800a790:	f423 4380 	bic.w	r3, r3, #16384	@ 0x4000
 800a794:	6293      	str	r3, [r2, #40]	@ 0x28

  // MAC software reset
  ETH->DMABMR |= ETH_DMABMR_SR;
 800a796:	4b0f      	ldr	r3, [pc, #60]	@ (800a7d4 <ethernetMacInit+0x60>)
 800a798:	f503 5380 	add.w	r3, r3, #4096	@ 0x1000
 800a79c:	681b      	ldr	r3, [r3, #0]
 800a79e:	4a0d      	ldr	r2, [pc, #52]	@ (800a7d4 <ethernetMacInit+0x60>)
 800a7a0:	f043 0301 	orr.w	r3, r3, #1
 800a7a4:	f502 5280 	add.w	r2, r2, #4096	@ 0x1000
 800a7a8:	6013      	str	r3, [r2, #0]
  // All we have to do now is to wait for the software reset to finish.
  // Note that we must have an external clock working at this point - 
  // so we actually wait for the switch to wakeup.
  
  
  GPIO_setData(GPIOA, GPIO_Pin_8, GPIO_Speed_50MHz, GPIO_Mode_AF_PP);
 800a7aa:	2318      	movs	r3, #24
 800a7ac:	2203      	movs	r2, #3
 800a7ae:	f44f 7180 	mov.w	r1, #256	@ 0x100
 800a7b2:	4809      	ldr	r0, [pc, #36]	@ (800a7d8 <ethernetMacInit+0x64>)
 800a7b4:	f7ff ff76 	bl	800a6a4 <GPIO_setData>
  
  while ((ETH->DMABMR & ETH_DMABMR_SR) != 0);
 800a7b8:	bf00      	nop
 800a7ba:	4b06      	ldr	r3, [pc, #24]	@ (800a7d4 <ethernetMacInit+0x60>)
 800a7bc:	f503 5380 	add.w	r3, r3, #4096	@ 0x1000
 800a7c0:	681b      	ldr	r3, [r3, #0]
 800a7c2:	f003 0301 	and.w	r3, r3, #1
 800a7c6:	2b00      	cmp	r3, #0
 800a7c8:	d1f7      	bne.n	800a7ba <ethernetMacInit+0x46>

}
 800a7ca:	bf00      	nop
 800a7cc:	bf00      	nop
 800a7ce:	bd80      	pop	{r7, pc}
 800a7d0:	40021000 	.word	0x40021000
 800a7d4:	40028000 	.word	0x40028000
 800a7d8:	40010800 	.word	0x40010800

0800a7dc <stm32SystemInit>:


// **************************************************************
// **************************************************************
int stm32SystemInit()
{
 800a7dc:	b580      	push	{r7, lr}
 800a7de:	af00      	add	r7, sp, #0

  ETH->DMAIER = 0; //Eth IT not valid
 800a7e0:	4b10      	ldr	r3, [pc, #64]	@ (800a824 <stm32SystemInit+0x48>)
 800a7e2:	f503 5380 	add.w	r3, r3, #4096	@ 0x1000
 800a7e6:	461a      	mov	r2, r3
 800a7e8:	2300      	movs	r3, #0
 800a7ea:	61d3      	str	r3, [r2, #28]
  ETH->DMASR = 0x1E7FF; //Reset pending IT
 800a7ec:	4b0d      	ldr	r3, [pc, #52]	@ (800a824 <stm32SystemInit+0x48>)
 800a7ee:	f503 5380 	add.w	r3, r3, #4096	@ 0x1000
 800a7f2:	461a      	mov	r2, r3
 800a7f4:	4b0c      	ldr	r3, [pc, #48]	@ (800a828 <stm32SystemInit+0x4c>)
 800a7f6:	6153      	str	r3, [r2, #20]

  /* System Clocks Configuration */
  RCC_Configuration();
 800a7f8:	f7ff feec 	bl	800a5d4 <RCC_Configuration>
  
  // NVIC configuration
  NVIC_Configuration();
 800a7fc:	f7ff ff4c 	bl	800a698 <NVIC_Configuration>
  
  // Init the clock timer interrupt
  systemClockInit();
 800a800:	f7ff fd2c 	bl	800a25c <systemClockInit>



  // Initialize ethernet physical layer.
  // This initializes SPI as well. 
  while(getTimerTicks() < 100);
 800a804:	bf00      	nop
 800a806:	f7ff fd63 	bl	800a2d0 <getTimerTicks>
 800a80a:	4603      	mov	r3, r0
 800a80c:	2b63      	cmp	r3, #99	@ 0x63
 800a80e:	d9fa      	bls.n	800a806 <stm32SystemInit+0x2a>
  ethernetPhysicalInit();
 800a810:	f7ff ff66 	bl	800a6e0 <ethernetPhysicalInit>
  //ethernetMacInit();
  GPIO_PinRemapConfig(GPIO_Remap_SWJ_JTAGDisable, ENABLE); // switch to SW debug interface
 800a814:	2101      	movs	r1, #1
 800a816:	4805      	ldr	r0, [pc, #20]	@ (800a82c <stm32SystemInit+0x50>)
 800a818:	f000 fe26 	bl	800b468 <GPIO_PinRemapConfig>

  return 0;
 800a81c:	2300      	movs	r3, #0
}
 800a81e:	4618      	mov	r0, r3
 800a820:	bd80      	pop	{r7, pc}
 800a822:	bf00      	nop
 800a824:	40028000 	.word	0x40028000
 800a828:	0001e7ff 	.word	0x0001e7ff
 800a82c:	00300200 	.word	0x00300200

0800a830 <systemResetNoStats>:

// **************************************************************
// **************************************************************
void systemResetNoStats()
{
 800a830:	b580      	push	{r7, lr}
 800a832:	af00      	add	r7, sp, #0
  NVIC_SystemReset();
 800a834:	f7ff fdc8 	bl	800a3c8 <__NVIC_SystemReset>

0800a838 <ADC_DeInit>:
  * @brief  Deinitializes the ADCx peripheral registers to their default reset values.
  * @param  ADCx: where x can be 1, 2 or 3 to select the ADC peripheral.
  * @retval None
  */
void ADC_DeInit(ADC_TypeDef* ADCx)
{
 800a838:	b580      	push	{r7, lr}
 800a83a:	b082      	sub	sp, #8
 800a83c:	af00      	add	r7, sp, #0
 800a83e:	6078      	str	r0, [r7, #4]
  /* Check the parameters */
  assert_param(IS_ADC_ALL_PERIPH(ADCx));
  
  if (ADCx == ADC1)
 800a840:	687b      	ldr	r3, [r7, #4]
 800a842:	4a17      	ldr	r2, [pc, #92]	@ (800a8a0 <ADC_DeInit+0x68>)
 800a844:	4293      	cmp	r3, r2
 800a846:	d10a      	bne.n	800a85e <ADC_DeInit+0x26>
  {
    /* Enable ADC1 reset state */
    RCC_APB2PeriphResetCmd(RCC_APB2Periph_ADC1, ENABLE);
 800a848:	2101      	movs	r1, #1
 800a84a:	f44f 7000 	mov.w	r0, #512	@ 0x200
 800a84e:	f001 fa23 	bl	800bc98 <RCC_APB2PeriphResetCmd>
    /* Release ADC1 from reset state */
    RCC_APB2PeriphResetCmd(RCC_APB2Periph_ADC1, DISABLE);
 800a852:	2100      	movs	r1, #0
 800a854:	f44f 7000 	mov.w	r0, #512	@ 0x200
 800a858:	f001 fa1e 	bl	800bc98 <RCC_APB2PeriphResetCmd>
      RCC_APB2PeriphResetCmd(RCC_APB2Periph_ADC3, ENABLE);
      /* Release ADC3 from reset state */
      RCC_APB2PeriphResetCmd(RCC_APB2Periph_ADC3, DISABLE);
    }
  }
}
 800a85c:	e01c      	b.n	800a898 <ADC_DeInit+0x60>
  else if (ADCx == ADC2)
 800a85e:	687b      	ldr	r3, [r7, #4]
 800a860:	4a10      	ldr	r2, [pc, #64]	@ (800a8a4 <ADC_DeInit+0x6c>)
 800a862:	4293      	cmp	r3, r2
 800a864:	d10a      	bne.n	800a87c <ADC_DeInit+0x44>
    RCC_APB2PeriphResetCmd(RCC_APB2Periph_ADC2, ENABLE);
 800a866:	2101      	movs	r1, #1
 800a868:	f44f 6080 	mov.w	r0, #1024	@ 0x400
 800a86c:	f001 fa14 	bl	800bc98 <RCC_APB2PeriphResetCmd>
    RCC_APB2PeriphResetCmd(RCC_APB2Periph_ADC2, DISABLE);
 800a870:	2100      	movs	r1, #0
 800a872:	f44f 6080 	mov.w	r0, #1024	@ 0x400
 800a876:	f001 fa0f 	bl	800bc98 <RCC_APB2PeriphResetCmd>
}
 800a87a:	e00d      	b.n	800a898 <ADC_DeInit+0x60>
    if (ADCx == ADC3)
 800a87c:	687b      	ldr	r3, [r7, #4]
 800a87e:	4a0a      	ldr	r2, [pc, #40]	@ (800a8a8 <ADC_DeInit+0x70>)
 800a880:	4293      	cmp	r3, r2
 800a882:	d109      	bne.n	800a898 <ADC_DeInit+0x60>
      RCC_APB2PeriphResetCmd(RCC_APB2Periph_ADC3, ENABLE);
 800a884:	2101      	movs	r1, #1
 800a886:	f44f 4000 	mov.w	r0, #32768	@ 0x8000
 800a88a:	f001 fa05 	bl	800bc98 <RCC_APB2PeriphResetCmd>
      RCC_APB2PeriphResetCmd(RCC_APB2Periph_ADC3, DISABLE);
 800a88e:	2100      	movs	r1, #0
 800a890:	f44f 4000 	mov.w	r0, #32768	@ 0x8000
 800a894:	f001 fa00 	bl	800bc98 <RCC_APB2PeriphResetCmd>
}
 800a898:	bf00      	nop
 800a89a:	3708      	adds	r7, #8
 800a89c:	46bd      	mov	sp, r7
 800a89e:	bd80      	pop	{r7, pc}
 800a8a0:	40012400 	.word	0x40012400
 800a8a4:	40012800 	.word	0x40012800
 800a8a8:	40013c00 	.word	0x40013c00

0800a8ac <ADC_Init>:
  * @param  ADC_InitStruct: pointer to an ADC_InitTypeDef structure that contains
  *         the configuration information for the specified ADC peripheral.
  * @retval None
  */
void ADC_Init(ADC_TypeDef* ADCx, ADC_InitTypeDef* ADC_InitStruct)
{
 800a8ac:	b480      	push	{r7}
 800a8ae:	b085      	sub	sp, #20
 800a8b0:	af00      	add	r7, sp, #0
 800a8b2:	6078      	str	r0, [r7, #4]
 800a8b4:	6039      	str	r1, [r7, #0]
  uint32_t tmpreg1 = 0;
 800a8b6:	2300      	movs	r3, #0
 800a8b8:	60fb      	str	r3, [r7, #12]
  uint8_t tmpreg2 = 0;
 800a8ba:	2300      	movs	r3, #0
 800a8bc:	72fb      	strb	r3, [r7, #11]
  assert_param(IS_ADC_DATA_ALIGN(ADC_InitStruct->ADC_DataAlign)); 
  assert_param(IS_ADC_REGULAR_LENGTH(ADC_InitStruct->ADC_NbrOfChannel));

  /*---------------------------- ADCx CR1 Configuration -----------------*/
  /* Get the ADCx CR1 value */
  tmpreg1 = ADCx->CR1;
 800a8be:	687b      	ldr	r3, [r7, #4]
 800a8c0:	685b      	ldr	r3, [r3, #4]
 800a8c2:	60fb      	str	r3, [r7, #12]
  /* Clear DUALMOD and SCAN bits */
  tmpreg1 &= CR1_CLEAR_Mask;
 800a8c4:	68fb      	ldr	r3, [r7, #12]
 800a8c6:	f423 2370 	bic.w	r3, r3, #983040	@ 0xf0000
 800a8ca:	f423 7380 	bic.w	r3, r3, #256	@ 0x100
 800a8ce:	60fb      	str	r3, [r7, #12]
  /* Configure ADCx: Dual mode and scan conversion mode */
  /* Set DUALMOD bits according to ADC_Mode value */
  /* Set SCAN bit according to ADC_ScanConvMode value */
  tmpreg1 |= (uint32_t)(ADC_InitStruct->ADC_Mode | ((uint32_t)ADC_InitStruct->ADC_ScanConvMode << 8));
 800a8d0:	683b      	ldr	r3, [r7, #0]
 800a8d2:	681a      	ldr	r2, [r3, #0]
 800a8d4:	683b      	ldr	r3, [r7, #0]
 800a8d6:	791b      	ldrb	r3, [r3, #4]
 800a8d8:	021b      	lsls	r3, r3, #8
 800a8da:	4313      	orrs	r3, r2
 800a8dc:	68fa      	ldr	r2, [r7, #12]
 800a8de:	4313      	orrs	r3, r2
 800a8e0:	60fb      	str	r3, [r7, #12]
  /* Write to ADCx CR1 */
  ADCx->CR1 = tmpreg1;
 800a8e2:	687b      	ldr	r3, [r7, #4]
 800a8e4:	68fa      	ldr	r2, [r7, #12]
 800a8e6:	605a      	str	r2, [r3, #4]

  /*---------------------------- ADCx CR2 Configuration -----------------*/
  /* Get the ADCx CR2 value */
  tmpreg1 = ADCx->CR2;
 800a8e8:	687b      	ldr	r3, [r7, #4]
 800a8ea:	689b      	ldr	r3, [r3, #8]
 800a8ec:	60fb      	str	r3, [r7, #12]
  /* Clear CONT, ALIGN and EXTSEL bits */
  tmpreg1 &= CR2_CLEAR_Mask;
 800a8ee:	68fa      	ldr	r2, [r7, #12]
 800a8f0:	4b16      	ldr	r3, [pc, #88]	@ (800a94c <ADC_Init+0xa0>)
 800a8f2:	4013      	ands	r3, r2
 800a8f4:	60fb      	str	r3, [r7, #12]
  /* Configure ADCx: external trigger event and continuous conversion mode */
  /* Set ALIGN bit according to ADC_DataAlign value */
  /* Set EXTSEL bits according to ADC_ExternalTrigConv value */
  /* Set CONT bit according to ADC_ContinuousConvMode value */
  tmpreg1 |= (uint32_t)(ADC_InitStruct->ADC_DataAlign | ADC_InitStruct->ADC_ExternalTrigConv |
 800a8f6:	683b      	ldr	r3, [r7, #0]
 800a8f8:	68da      	ldr	r2, [r3, #12]
 800a8fa:	683b      	ldr	r3, [r7, #0]
 800a8fc:	689b      	ldr	r3, [r3, #8]
 800a8fe:	431a      	orrs	r2, r3
            ((uint32_t)ADC_InitStruct->ADC_ContinuousConvMode << 1));
 800a900:	683b      	ldr	r3, [r7, #0]
 800a902:	795b      	ldrb	r3, [r3, #5]
 800a904:	005b      	lsls	r3, r3, #1
  tmpreg1 |= (uint32_t)(ADC_InitStruct->ADC_DataAlign | ADC_InitStruct->ADC_ExternalTrigConv |
 800a906:	4313      	orrs	r3, r2
 800a908:	68fa      	ldr	r2, [r7, #12]
 800a90a:	4313      	orrs	r3, r2
 800a90c:	60fb      	str	r3, [r7, #12]
  /* Write to ADCx CR2 */
  ADCx->CR2 = tmpreg1;
 800a90e:	687b      	ldr	r3, [r7, #4]
 800a910:	68fa      	ldr	r2, [r7, #12]
 800a912:	609a      	str	r2, [r3, #8]

  /*---------------------------- ADCx SQR1 Configuration -----------------*/
  /* Get the ADCx SQR1 value */
  tmpreg1 = ADCx->SQR1;
 800a914:	687b      	ldr	r3, [r7, #4]
 800a916:	6adb      	ldr	r3, [r3, #44]	@ 0x2c
 800a918:	60fb      	str	r3, [r7, #12]
  /* Clear L bits */
  tmpreg1 &= SQR1_CLEAR_Mask;
 800a91a:	68fb      	ldr	r3, [r7, #12]
 800a91c:	f423 0370 	bic.w	r3, r3, #15728640	@ 0xf00000
 800a920:	60fb      	str	r3, [r7, #12]
  /* Configure ADCx: regular channel sequence length */
  /* Set L bits according to ADC_NbrOfChannel value */
  tmpreg2 |= (uint8_t) (ADC_InitStruct->ADC_NbrOfChannel - (uint8_t)1);
 800a922:	683b      	ldr	r3, [r7, #0]
 800a924:	7c1b      	ldrb	r3, [r3, #16]
 800a926:	3b01      	subs	r3, #1
 800a928:	b2da      	uxtb	r2, r3
 800a92a:	7afb      	ldrb	r3, [r7, #11]
 800a92c:	4313      	orrs	r3, r2
 800a92e:	72fb      	strb	r3, [r7, #11]
  tmpreg1 |= (uint32_t)tmpreg2 << 20;
 800a930:	7afb      	ldrb	r3, [r7, #11]
 800a932:	051b      	lsls	r3, r3, #20
 800a934:	68fa      	ldr	r2, [r7, #12]
 800a936:	4313      	orrs	r3, r2
 800a938:	60fb      	str	r3, [r7, #12]
  /* Write to ADCx SQR1 */
  ADCx->SQR1 = tmpreg1;
 800a93a:	687b      	ldr	r3, [r7, #4]
 800a93c:	68fa      	ldr	r2, [r7, #12]
 800a93e:	62da      	str	r2, [r3, #44]	@ 0x2c
}
 800a940:	bf00      	nop
 800a942:	3714      	adds	r7, #20
 800a944:	46bd      	mov	sp, r7
 800a946:	bc80      	pop	{r7}
 800a948:	4770      	bx	lr
 800a94a:	bf00      	nop
 800a94c:	fff1f7fd 	.word	0xfff1f7fd

0800a950 <ADC_StructInit>:
  * @brief  Fills each ADC_InitStruct member with its default value.
  * @param  ADC_InitStruct : pointer to an ADC_InitTypeDef structure which will be initialized.
  * @retval None
  */
void ADC_StructInit(ADC_InitTypeDef* ADC_InitStruct)
{
 800a950:	b480      	push	{r7}
 800a952:	b083      	sub	sp, #12
 800a954:	af00      	add	r7, sp, #0
 800a956:	6078      	str	r0, [r7, #4]
  /* Reset ADC init structure parameters values */
  /* Initialize the ADC_Mode member */
  ADC_InitStruct->ADC_Mode = ADC_Mode_Independent;
 800a958:	687b      	ldr	r3, [r7, #4]
 800a95a:	2200      	movs	r2, #0
 800a95c:	601a      	str	r2, [r3, #0]
  /* initialize the ADC_ScanConvMode member */
  ADC_InitStruct->ADC_ScanConvMode = DISABLE;
 800a95e:	687b      	ldr	r3, [r7, #4]
 800a960:	2200      	movs	r2, #0
 800a962:	711a      	strb	r2, [r3, #4]
  /* Initialize the ADC_ContinuousConvMode member */
  ADC_InitStruct->ADC_ContinuousConvMode = DISABLE;
 800a964:	687b      	ldr	r3, [r7, #4]
 800a966:	2200      	movs	r2, #0
 800a968:	715a      	strb	r2, [r3, #5]
  /* Initialize the ADC_ExternalTrigConv member */
  ADC_InitStruct->ADC_ExternalTrigConv = ADC_ExternalTrigConv_T1_CC1;
 800a96a:	687b      	ldr	r3, [r7, #4]
 800a96c:	2200      	movs	r2, #0
 800a96e:	609a      	str	r2, [r3, #8]
  /* Initialize the ADC_DataAlign member */
  ADC_InitStruct->ADC_DataAlign = ADC_DataAlign_Right;
 800a970:	687b      	ldr	r3, [r7, #4]
 800a972:	2200      	movs	r2, #0
 800a974:	60da      	str	r2, [r3, #12]
  /* Initialize the ADC_NbrOfChannel member */
  ADC_InitStruct->ADC_NbrOfChannel = 1;
 800a976:	687b      	ldr	r3, [r7, #4]
 800a978:	2201      	movs	r2, #1
 800a97a:	741a      	strb	r2, [r3, #16]
}
 800a97c:	bf00      	nop
 800a97e:	370c      	adds	r7, #12
 800a980:	46bd      	mov	sp, r7
 800a982:	bc80      	pop	{r7}
 800a984:	4770      	bx	lr

0800a986 <ADC_Cmd>:
  * @param  NewState: new state of the ADCx peripheral.
  *   This parameter can be: ENABLE or DISABLE.
  * @retval None
  */
void ADC_Cmd(ADC_TypeDef* ADCx, FunctionalState NewState)
{
 800a986:	b480      	push	{r7}
 800a988:	b083      	sub	sp, #12
 800a98a:	af00      	add	r7, sp, #0
 800a98c:	6078      	str	r0, [r7, #4]
 800a98e:	460b      	mov	r3, r1
 800a990:	70fb      	strb	r3, [r7, #3]
  /* Check the parameters */
  assert_param(IS_ADC_ALL_PERIPH(ADCx));
  assert_param(IS_FUNCTIONAL_STATE(NewState));
  if (NewState != DISABLE)
 800a992:	78fb      	ldrb	r3, [r7, #3]
 800a994:	2b00      	cmp	r3, #0
 800a996:	d006      	beq.n	800a9a6 <ADC_Cmd+0x20>
  {
    /* Set the ADON bit to wake up the ADC from power down mode */
    ADCx->CR2 |= CR2_ADON_Set;
 800a998:	687b      	ldr	r3, [r7, #4]
 800a99a:	689b      	ldr	r3, [r3, #8]
 800a99c:	f043 0201 	orr.w	r2, r3, #1
 800a9a0:	687b      	ldr	r3, [r7, #4]
 800a9a2:	609a      	str	r2, [r3, #8]
  else
  {
    /* Disable the selected ADC peripheral */
    ADCx->CR2 &= CR2_ADON_Reset;
  }
}
 800a9a4:	e005      	b.n	800a9b2 <ADC_Cmd+0x2c>
    ADCx->CR2 &= CR2_ADON_Reset;
 800a9a6:	687b      	ldr	r3, [r7, #4]
 800a9a8:	689b      	ldr	r3, [r3, #8]
 800a9aa:	f023 0201 	bic.w	r2, r3, #1
 800a9ae:	687b      	ldr	r3, [r7, #4]
 800a9b0:	609a      	str	r2, [r3, #8]
}
 800a9b2:	bf00      	nop
 800a9b4:	370c      	adds	r7, #12
 800a9b6:	46bd      	mov	sp, r7
 800a9b8:	bc80      	pop	{r7}
 800a9ba:	4770      	bx	lr

0800a9bc <ADC_DMACmd>:
  * @param  NewState: new state of the selected ADC DMA transfer.
  *   This parameter can be: ENABLE or DISABLE.
  * @retval None
  */
void ADC_DMACmd(ADC_TypeDef* ADCx, FunctionalState NewState)
{
 800a9bc:	b480      	push	{r7}
 800a9be:	b083      	sub	sp, #12
 800a9c0:	af00      	add	r7, sp, #0
 800a9c2:	6078      	str	r0, [r7, #4]
 800a9c4:	460b      	mov	r3, r1
 800a9c6:	70fb      	strb	r3, [r7, #3]
  /* Check the parameters */
  assert_param(IS_ADC_DMA_PERIPH(ADCx));
  assert_param(IS_FUNCTIONAL_STATE(NewState));
  if (NewState != DISABLE)
 800a9c8:	78fb      	ldrb	r3, [r7, #3]
 800a9ca:	2b00      	cmp	r3, #0
 800a9cc:	d006      	beq.n	800a9dc <ADC_DMACmd+0x20>
  {
    /* Enable the selected ADC DMA request */
    ADCx->CR2 |= CR2_DMA_Set;
 800a9ce:	687b      	ldr	r3, [r7, #4]
 800a9d0:	689b      	ldr	r3, [r3, #8]
 800a9d2:	f443 7280 	orr.w	r2, r3, #256	@ 0x100
 800a9d6:	687b      	ldr	r3, [r7, #4]
 800a9d8:	609a      	str	r2, [r3, #8]
  else
  {
    /* Disable the selected ADC DMA request */
    ADCx->CR2 &= CR2_DMA_Reset;
  }
}
 800a9da:	e005      	b.n	800a9e8 <ADC_DMACmd+0x2c>
    ADCx->CR2 &= CR2_DMA_Reset;
 800a9dc:	687b      	ldr	r3, [r7, #4]
 800a9de:	689b      	ldr	r3, [r3, #8]
 800a9e0:	f423 7280 	bic.w	r2, r3, #256	@ 0x100
 800a9e4:	687b      	ldr	r3, [r7, #4]
 800a9e6:	609a      	str	r2, [r3, #8]
}
 800a9e8:	bf00      	nop
 800a9ea:	370c      	adds	r7, #12
 800a9ec:	46bd      	mov	sp, r7
 800a9ee:	bc80      	pop	{r7}
 800a9f0:	4770      	bx	lr

0800a9f2 <ADC_StartCalibration>:
  * @brief  Starts the selected ADC calibration process.
  * @param  ADCx: where x can be 1, 2 or 3 to select the ADC peripheral.
  * @retval None
  */
void ADC_StartCalibration(ADC_TypeDef* ADCx)
{
 800a9f2:	b480      	push	{r7}
 800a9f4:	b083      	sub	sp, #12
 800a9f6:	af00      	add	r7, sp, #0
 800a9f8:	6078      	str	r0, [r7, #4]
  /* Check the parameters */
  assert_param(IS_ADC_ALL_PERIPH(ADCx));
  /* Enable the selected ADC calibration process */  
  ADCx->CR2 |= CR2_CAL_Set;
 800a9fa:	687b      	ldr	r3, [r7, #4]
 800a9fc:	689b      	ldr	r3, [r3, #8]
 800a9fe:	f043 0204 	orr.w	r2, r3, #4
 800aa02:	687b      	ldr	r3, [r7, #4]
 800aa04:	609a      	str	r2, [r3, #8]
}
 800aa06:	bf00      	nop
 800aa08:	370c      	adds	r7, #12
 800aa0a:	46bd      	mov	sp, r7
 800aa0c:	bc80      	pop	{r7}
 800aa0e:	4770      	bx	lr

0800aa10 <ADC_GetCalibrationStatus>:
  * @brief  Gets the selected ADC calibration status.
  * @param  ADCx: where x can be 1, 2 or 3 to select the ADC peripheral.
  * @retval The new state of ADC calibration (SET or RESET).
  */
FlagStatus ADC_GetCalibrationStatus(ADC_TypeDef* ADCx)
{
 800aa10:	b480      	push	{r7}
 800aa12:	b085      	sub	sp, #20
 800aa14:	af00      	add	r7, sp, #0
 800aa16:	6078      	str	r0, [r7, #4]
  FlagStatus bitstatus = RESET;
 800aa18:	2300      	movs	r3, #0
 800aa1a:	73fb      	strb	r3, [r7, #15]
  /* Check the parameters */
  assert_param(IS_ADC_ALL_PERIPH(ADCx));
  /* Check the status of CAL bit */
  if ((ADCx->CR2 & CR2_CAL_Set) != (uint32_t)RESET)
 800aa1c:	687b      	ldr	r3, [r7, #4]
 800aa1e:	689b      	ldr	r3, [r3, #8]
 800aa20:	f003 0304 	and.w	r3, r3, #4
 800aa24:	2b00      	cmp	r3, #0
 800aa26:	d002      	beq.n	800aa2e <ADC_GetCalibrationStatus+0x1e>
  {
    /* CAL bit is set: calibration on going */
    bitstatus = SET;
 800aa28:	2301      	movs	r3, #1
 800aa2a:	73fb      	strb	r3, [r7, #15]
 800aa2c:	e001      	b.n	800aa32 <ADC_GetCalibrationStatus+0x22>
  }
  else
  {
    /* CAL bit is reset: end of calibration */
    bitstatus = RESET;
 800aa2e:	2300      	movs	r3, #0
 800aa30:	73fb      	strb	r3, [r7, #15]
  }
  /* Return the CAL bit status */
  return  bitstatus;
 800aa32:	7bfb      	ldrb	r3, [r7, #15]
}
 800aa34:	4618      	mov	r0, r3
 800aa36:	3714      	adds	r7, #20
 800aa38:	46bd      	mov	sp, r7
 800aa3a:	bc80      	pop	{r7}
 800aa3c:	4770      	bx	lr

0800aa3e <ADC_SoftwareStartConvCmd>:
  * @param  NewState: new state of the selected ADC software start conversion.
  *   This parameter can be: ENABLE or DISABLE.
  * @retval None
  */
void ADC_SoftwareStartConvCmd(ADC_TypeDef* ADCx, FunctionalState NewState)
{
 800aa3e:	b480      	push	{r7}
 800aa40:	b083      	sub	sp, #12
 800aa42:	af00      	add	r7, sp, #0
 800aa44:	6078      	str	r0, [r7, #4]
 800aa46:	460b      	mov	r3, r1
 800aa48:	70fb      	strb	r3, [r7, #3]
  /* Check the parameters */
  assert_param(IS_ADC_ALL_PERIPH(ADCx));
  assert_param(IS_FUNCTIONAL_STATE(NewState));
  if (NewState != DISABLE)
 800aa4a:	78fb      	ldrb	r3, [r7, #3]
 800aa4c:	2b00      	cmp	r3, #0
 800aa4e:	d006      	beq.n	800aa5e <ADC_SoftwareStartConvCmd+0x20>
  {
    /* Enable the selected ADC conversion on external event and start the selected
       ADC conversion */
    ADCx->CR2 |= CR2_EXTTRIG_SWSTART_Set;
 800aa50:	687b      	ldr	r3, [r7, #4]
 800aa52:	689b      	ldr	r3, [r3, #8]
 800aa54:	f443 02a0 	orr.w	r2, r3, #5242880	@ 0x500000
 800aa58:	687b      	ldr	r3, [r7, #4]
 800aa5a:	609a      	str	r2, [r3, #8]
  {
    /* Disable the selected ADC conversion on external event and stop the selected
       ADC conversion */
    ADCx->CR2 &= CR2_EXTTRIG_SWSTART_Reset;
  }
}
 800aa5c:	e005      	b.n	800aa6a <ADC_SoftwareStartConvCmd+0x2c>
    ADCx->CR2 &= CR2_EXTTRIG_SWSTART_Reset;
 800aa5e:	687b      	ldr	r3, [r7, #4]
 800aa60:	689b      	ldr	r3, [r3, #8]
 800aa62:	f423 02a0 	bic.w	r2, r3, #5242880	@ 0x500000
 800aa66:	687b      	ldr	r3, [r7, #4]
 800aa68:	609a      	str	r2, [r3, #8]
}
 800aa6a:	bf00      	nop
 800aa6c:	370c      	adds	r7, #12
 800aa6e:	46bd      	mov	sp, r7
 800aa70:	bc80      	pop	{r7}
 800aa72:	4770      	bx	lr

0800aa74 <ADC_RegularChannelConfig>:
  *     @arg ADC_SampleTime_71Cycles5: Sample time equal to 71.5 cycles	
  *     @arg ADC_SampleTime_239Cycles5: Sample time equal to 239.5 cycles	
  * @retval None
  */
void ADC_RegularChannelConfig(ADC_TypeDef* ADCx, uint8_t ADC_Channel, uint8_t Rank, uint8_t ADC_SampleTime)
{
 800aa74:	b480      	push	{r7}
 800aa76:	b085      	sub	sp, #20
 800aa78:	af00      	add	r7, sp, #0
 800aa7a:	6078      	str	r0, [r7, #4]
 800aa7c:	4608      	mov	r0, r1
 800aa7e:	4611      	mov	r1, r2
 800aa80:	461a      	mov	r2, r3
 800aa82:	4603      	mov	r3, r0
 800aa84:	70fb      	strb	r3, [r7, #3]
 800aa86:	460b      	mov	r3, r1
 800aa88:	70bb      	strb	r3, [r7, #2]
 800aa8a:	4613      	mov	r3, r2
 800aa8c:	707b      	strb	r3, [r7, #1]
  uint32_t tmpreg1 = 0, tmpreg2 = 0;
 800aa8e:	2300      	movs	r3, #0
 800aa90:	60fb      	str	r3, [r7, #12]
 800aa92:	2300      	movs	r3, #0
 800aa94:	60bb      	str	r3, [r7, #8]
  assert_param(IS_ADC_ALL_PERIPH(ADCx));
  assert_param(IS_ADC_CHANNEL(ADC_Channel));
  assert_param(IS_ADC_REGULAR_RANK(Rank));
  assert_param(IS_ADC_SAMPLE_TIME(ADC_SampleTime));
  /* if ADC_Channel_10 ... ADC_Channel_17 is selected */
  if (ADC_Channel > ADC_Channel_9)
 800aa96:	78fb      	ldrb	r3, [r7, #3]
 800aa98:	2b09      	cmp	r3, #9
 800aa9a:	d923      	bls.n	800aae4 <ADC_RegularChannelConfig+0x70>
  {
    /* Get the old register value */
    tmpreg1 = ADCx->SMPR1;
 800aa9c:	687b      	ldr	r3, [r7, #4]
 800aa9e:	68db      	ldr	r3, [r3, #12]
 800aaa0:	60fb      	str	r3, [r7, #12]
    /* Calculate the mask to clear */
    tmpreg2 = SMPR1_SMP_Set << (3 * (ADC_Channel - 10));
 800aaa2:	78fb      	ldrb	r3, [r7, #3]
 800aaa4:	f1a3 020a 	sub.w	r2, r3, #10
 800aaa8:	4613      	mov	r3, r2
 800aaaa:	005b      	lsls	r3, r3, #1
 800aaac:	4413      	add	r3, r2
 800aaae:	2207      	movs	r2, #7
 800aab0:	fa02 f303 	lsl.w	r3, r2, r3
 800aab4:	60bb      	str	r3, [r7, #8]
    /* Clear the old channel sample time */
    tmpreg1 &= ~tmpreg2;
 800aab6:	68bb      	ldr	r3, [r7, #8]
 800aab8:	43db      	mvns	r3, r3
 800aaba:	68fa      	ldr	r2, [r7, #12]
 800aabc:	4013      	ands	r3, r2
 800aabe:	60fb      	str	r3, [r7, #12]
    /* Calculate the mask to set */
    tmpreg2 = (uint32_t)ADC_SampleTime << (3 * (ADC_Channel - 10));
 800aac0:	7879      	ldrb	r1, [r7, #1]
 800aac2:	78fb      	ldrb	r3, [r7, #3]
 800aac4:	f1a3 020a 	sub.w	r2, r3, #10
 800aac8:	4613      	mov	r3, r2
 800aaca:	005b      	lsls	r3, r3, #1
 800aacc:	4413      	add	r3, r2
 800aace:	fa01 f303 	lsl.w	r3, r1, r3
 800aad2:	60bb      	str	r3, [r7, #8]
    /* Set the new channel sample time */
    tmpreg1 |= tmpreg2;
 800aad4:	68fa      	ldr	r2, [r7, #12]
 800aad6:	68bb      	ldr	r3, [r7, #8]
 800aad8:	4313      	orrs	r3, r2
 800aada:	60fb      	str	r3, [r7, #12]
    /* Store the new register value */
    ADCx->SMPR1 = tmpreg1;
 800aadc:	687b      	ldr	r3, [r7, #4]
 800aade:	68fa      	ldr	r2, [r7, #12]
 800aae0:	60da      	str	r2, [r3, #12]
 800aae2:	e01e      	b.n	800ab22 <ADC_RegularChannelConfig+0xae>
  }
  else /* ADC_Channel include in ADC_Channel_[0..9] */
  {
    /* Get the old register value */
    tmpreg1 = ADCx->SMPR2;
 800aae4:	687b      	ldr	r3, [r7, #4]
 800aae6:	691b      	ldr	r3, [r3, #16]
 800aae8:	60fb      	str	r3, [r7, #12]
    /* Calculate the mask to clear */
    tmpreg2 = SMPR2_SMP_Set << (3 * ADC_Channel);
 800aaea:	78fa      	ldrb	r2, [r7, #3]
 800aaec:	4613      	mov	r3, r2
 800aaee:	005b      	lsls	r3, r3, #1
 800aaf0:	4413      	add	r3, r2
 800aaf2:	2207      	movs	r2, #7
 800aaf4:	fa02 f303 	lsl.w	r3, r2, r3
 800aaf8:	60bb      	str	r3, [r7, #8]
    /* Clear the old channel sample time */
    tmpreg1 &= ~tmpreg2;
 800aafa:	68bb      	ldr	r3, [r7, #8]
 800aafc:	43db      	mvns	r3, r3
 800aafe:	68fa      	ldr	r2, [r7, #12]
 800ab00:	4013      	ands	r3, r2
 800ab02:	60fb      	str	r3, [r7, #12]
    /* Calculate the mask to set */
    tmpreg2 = (uint32_t)ADC_SampleTime << (3 * ADC_Channel);
 800ab04:	7879      	ldrb	r1, [r7, #1]
 800ab06:	78fa      	ldrb	r2, [r7, #3]
 800ab08:	4613      	mov	r3, r2
 800ab0a:	005b      	lsls	r3, r3, #1
 800ab0c:	4413      	add	r3, r2
 800ab0e:	fa01 f303 	lsl.w	r3, r1, r3
 800ab12:	60bb      	str	r3, [r7, #8]
    /* Set the new channel sample time */
    tmpreg1 |= tmpreg2;
 800ab14:	68fa      	ldr	r2, [r7, #12]
 800ab16:	68bb      	ldr	r3, [r7, #8]
 800ab18:	4313      	orrs	r3, r2
 800ab1a:	60fb      	str	r3, [r7, #12]
    /* Store the new register value */
    ADCx->SMPR2 = tmpreg1;
 800ab1c:	687b      	ldr	r3, [r7, #4]
 800ab1e:	68fa      	ldr	r2, [r7, #12]
 800ab20:	611a      	str	r2, [r3, #16]
  }
  /* For Rank 1 to 6 */
  if (Rank < 7)
 800ab22:	78bb      	ldrb	r3, [r7, #2]
 800ab24:	2b06      	cmp	r3, #6
 800ab26:	d821      	bhi.n	800ab6c <ADC_RegularChannelConfig+0xf8>
  {
    /* Get the old register value */
    tmpreg1 = ADCx->SQR3;
 800ab28:	687b      	ldr	r3, [r7, #4]
 800ab2a:	6b5b      	ldr	r3, [r3, #52]	@ 0x34
 800ab2c:	60fb      	str	r3, [r7, #12]
    /* Calculate the mask to clear */
    tmpreg2 = SQR3_SQ_Set << (5 * (Rank - 1));
 800ab2e:	78bb      	ldrb	r3, [r7, #2]
 800ab30:	1e5a      	subs	r2, r3, #1
 800ab32:	4613      	mov	r3, r2
 800ab34:	009b      	lsls	r3, r3, #2
 800ab36:	4413      	add	r3, r2
 800ab38:	221f      	movs	r2, #31
 800ab3a:	fa02 f303 	lsl.w	r3, r2, r3
 800ab3e:	60bb      	str	r3, [r7, #8]
    /* Clear the old SQx bits for the selected rank */
    tmpreg1 &= ~tmpreg2;
 800ab40:	68bb      	ldr	r3, [r7, #8]
 800ab42:	43db      	mvns	r3, r3
 800ab44:	68fa      	ldr	r2, [r7, #12]
 800ab46:	4013      	ands	r3, r2
 800ab48:	60fb      	str	r3, [r7, #12]
    /* Calculate the mask to set */
    tmpreg2 = (uint32_t)ADC_Channel << (5 * (Rank - 1));
 800ab4a:	78f9      	ldrb	r1, [r7, #3]
 800ab4c:	78bb      	ldrb	r3, [r7, #2]
 800ab4e:	1e5a      	subs	r2, r3, #1
 800ab50:	4613      	mov	r3, r2
 800ab52:	009b      	lsls	r3, r3, #2
 800ab54:	4413      	add	r3, r2
 800ab56:	fa01 f303 	lsl.w	r3, r1, r3
 800ab5a:	60bb      	str	r3, [r7, #8]
    /* Set the SQx bits for the selected rank */
    tmpreg1 |= tmpreg2;
 800ab5c:	68fa      	ldr	r2, [r7, #12]
 800ab5e:	68bb      	ldr	r3, [r7, #8]
 800ab60:	4313      	orrs	r3, r2
 800ab62:	60fb      	str	r3, [r7, #12]
    /* Store the new register value */
    ADCx->SQR3 = tmpreg1;
 800ab64:	687b      	ldr	r3, [r7, #4]
 800ab66:	68fa      	ldr	r2, [r7, #12]
 800ab68:	635a      	str	r2, [r3, #52]	@ 0x34
    /* Set the SQx bits for the selected rank */
    tmpreg1 |= tmpreg2;
    /* Store the new register value */
    ADCx->SQR1 = tmpreg1;
  }
}
 800ab6a:	e047      	b.n	800abfc <ADC_RegularChannelConfig+0x188>
  else if (Rank < 13)
 800ab6c:	78bb      	ldrb	r3, [r7, #2]
 800ab6e:	2b0c      	cmp	r3, #12
 800ab70:	d821      	bhi.n	800abb6 <ADC_RegularChannelConfig+0x142>
    tmpreg1 = ADCx->SQR2;
 800ab72:	687b      	ldr	r3, [r7, #4]
 800ab74:	6b1b      	ldr	r3, [r3, #48]	@ 0x30
 800ab76:	60fb      	str	r3, [r7, #12]
    tmpreg2 = SQR2_SQ_Set << (5 * (Rank - 7));
 800ab78:	78bb      	ldrb	r3, [r7, #2]
 800ab7a:	1fda      	subs	r2, r3, #7
 800ab7c:	4613      	mov	r3, r2
 800ab7e:	009b      	lsls	r3, r3, #2
 800ab80:	4413      	add	r3, r2
 800ab82:	221f      	movs	r2, #31
 800ab84:	fa02 f303 	lsl.w	r3, r2, r3
 800ab88:	60bb      	str	r3, [r7, #8]
    tmpreg1 &= ~tmpreg2;
 800ab8a:	68bb      	ldr	r3, [r7, #8]
 800ab8c:	43db      	mvns	r3, r3
 800ab8e:	68fa      	ldr	r2, [r7, #12]
 800ab90:	4013      	ands	r3, r2
 800ab92:	60fb      	str	r3, [r7, #12]
    tmpreg2 = (uint32_t)ADC_Channel << (5 * (Rank - 7));
 800ab94:	78f9      	ldrb	r1, [r7, #3]
 800ab96:	78bb      	ldrb	r3, [r7, #2]
 800ab98:	1fda      	subs	r2, r3, #7
 800ab9a:	4613      	mov	r3, r2
 800ab9c:	009b      	lsls	r3, r3, #2
 800ab9e:	4413      	add	r3, r2
 800aba0:	fa01 f303 	lsl.w	r3, r1, r3
 800aba4:	60bb      	str	r3, [r7, #8]
    tmpreg1 |= tmpreg2;
 800aba6:	68fa      	ldr	r2, [r7, #12]
 800aba8:	68bb      	ldr	r3, [r7, #8]
 800abaa:	4313      	orrs	r3, r2
 800abac:	60fb      	str	r3, [r7, #12]
    ADCx->SQR2 = tmpreg1;
 800abae:	687b      	ldr	r3, [r7, #4]
 800abb0:	68fa      	ldr	r2, [r7, #12]
 800abb2:	631a      	str	r2, [r3, #48]	@ 0x30
}
 800abb4:	e022      	b.n	800abfc <ADC_RegularChannelConfig+0x188>
    tmpreg1 = ADCx->SQR1;
 800abb6:	687b      	ldr	r3, [r7, #4]
 800abb8:	6adb      	ldr	r3, [r3, #44]	@ 0x2c
 800abba:	60fb      	str	r3, [r7, #12]
    tmpreg2 = SQR1_SQ_Set << (5 * (Rank - 13));
 800abbc:	78bb      	ldrb	r3, [r7, #2]
 800abbe:	f1a3 020d 	sub.w	r2, r3, #13
 800abc2:	4613      	mov	r3, r2
 800abc4:	009b      	lsls	r3, r3, #2
 800abc6:	4413      	add	r3, r2
 800abc8:	221f      	movs	r2, #31
 800abca:	fa02 f303 	lsl.w	r3, r2, r3
 800abce:	60bb      	str	r3, [r7, #8]
    tmpreg1 &= ~tmpreg2;
 800abd0:	68bb      	ldr	r3, [r7, #8]
 800abd2:	43db      	mvns	r3, r3
 800abd4:	68fa      	ldr	r2, [r7, #12]
 800abd6:	4013      	ands	r3, r2
 800abd8:	60fb      	str	r3, [r7, #12]
    tmpreg2 = (uint32_t)ADC_Channel << (5 * (Rank - 13));
 800abda:	78f9      	ldrb	r1, [r7, #3]
 800abdc:	78bb      	ldrb	r3, [r7, #2]
 800abde:	f1a3 020d 	sub.w	r2, r3, #13
 800abe2:	4613      	mov	r3, r2
 800abe4:	009b      	lsls	r3, r3, #2
 800abe6:	4413      	add	r3, r2
 800abe8:	fa01 f303 	lsl.w	r3, r1, r3
 800abec:	60bb      	str	r3, [r7, #8]
    tmpreg1 |= tmpreg2;
 800abee:	68fa      	ldr	r2, [r7, #12]
 800abf0:	68bb      	ldr	r3, [r7, #8]
 800abf2:	4313      	orrs	r3, r2
 800abf4:	60fb      	str	r3, [r7, #12]
    ADCx->SQR1 = tmpreg1;
 800abf6:	687b      	ldr	r3, [r7, #4]
 800abf8:	68fa      	ldr	r2, [r7, #12]
 800abfa:	62da      	str	r2, [r3, #44]	@ 0x2c
}
 800abfc:	bf00      	nop
 800abfe:	3714      	adds	r7, #20
 800ac00:	46bd      	mov	sp, r7
 800ac02:	bc80      	pop	{r7}
 800ac04:	4770      	bx	lr
	...

0800ac08 <DMA_DeInit>:
  * @param  DMAy_Channelx: where y can be 1 or 2 to select the DMA and
  *   x can be 1 to 7 for DMA1 and 1 to 5 for DMA2 to select the DMA Channel.
  * @retval None
  */
void DMA_DeInit(DMA_Channel_TypeDef* DMAy_Channelx)
{
 800ac08:	b480      	push	{r7}
 800ac0a:	b083      	sub	sp, #12
 800ac0c:	af00      	add	r7, sp, #0
 800ac0e:	6078      	str	r0, [r7, #4]
  /* Check the parameters */
  assert_param(IS_DMA_ALL_PERIPH(DMAy_Channelx));
  
  /* Disable the selected DMAy Channelx */
  DMAy_Channelx->CCR &= (uint16_t)(~DMA_CCR1_EN);
 800ac10:	687b      	ldr	r3, [r7, #4]
 800ac12:	681a      	ldr	r2, [r3, #0]
 800ac14:	f64f 73fe 	movw	r3, #65534	@ 0xfffe
 800ac18:	4013      	ands	r3, r2
 800ac1a:	687a      	ldr	r2, [r7, #4]
 800ac1c:	6013      	str	r3, [r2, #0]
  
  /* Reset DMAy Channelx control register */
  DMAy_Channelx->CCR  = 0;
 800ac1e:	687b      	ldr	r3, [r7, #4]
 800ac20:	2200      	movs	r2, #0
 800ac22:	601a      	str	r2, [r3, #0]
  
  /* Reset DMAy Channelx remaining bytes register */
  DMAy_Channelx->CNDTR = 0;
 800ac24:	687b      	ldr	r3, [r7, #4]
 800ac26:	2200      	movs	r2, #0
 800ac28:	605a      	str	r2, [r3, #4]
  
  /* Reset DMAy Channelx peripheral address register */
  DMAy_Channelx->CPAR  = 0;
 800ac2a:	687b      	ldr	r3, [r7, #4]
 800ac2c:	2200      	movs	r2, #0
 800ac2e:	609a      	str	r2, [r3, #8]
  
  /* Reset DMAy Channelx memory address register */
  DMAy_Channelx->CMAR = 0;
 800ac30:	687b      	ldr	r3, [r7, #4]
 800ac32:	2200      	movs	r2, #0
 800ac34:	60da      	str	r2, [r3, #12]
  
  if (DMAy_Channelx == DMA1_Channel1)
 800ac36:	687b      	ldr	r3, [r7, #4]
 800ac38:	4a43      	ldr	r2, [pc, #268]	@ (800ad48 <DMA_DeInit+0x140>)
 800ac3a:	4293      	cmp	r3, r2
 800ac3c:	d106      	bne.n	800ac4c <DMA_DeInit+0x44>
  {
    /* Reset interrupt pending bits for DMA1 Channel1 */
    DMA1->IFCR |= DMA1_Channel1_IT_Mask;
 800ac3e:	4b43      	ldr	r3, [pc, #268]	@ (800ad4c <DMA_DeInit+0x144>)
 800ac40:	685b      	ldr	r3, [r3, #4]
 800ac42:	4a42      	ldr	r2, [pc, #264]	@ (800ad4c <DMA_DeInit+0x144>)
 800ac44:	f043 030f 	orr.w	r3, r3, #15
 800ac48:	6053      	str	r3, [r2, #4]
    {
      /* Reset interrupt pending bits for DMA2 Channel5 */
      DMA2->IFCR |= DMA2_Channel5_IT_Mask;
    }
  }
}
 800ac4a:	e077      	b.n	800ad3c <DMA_DeInit+0x134>
  else if (DMAy_Channelx == DMA1_Channel2)
 800ac4c:	687b      	ldr	r3, [r7, #4]
 800ac4e:	4a40      	ldr	r2, [pc, #256]	@ (800ad50 <DMA_DeInit+0x148>)
 800ac50:	4293      	cmp	r3, r2
 800ac52:	d106      	bne.n	800ac62 <DMA_DeInit+0x5a>
    DMA1->IFCR |= DMA1_Channel2_IT_Mask;
 800ac54:	4b3d      	ldr	r3, [pc, #244]	@ (800ad4c <DMA_DeInit+0x144>)
 800ac56:	685b      	ldr	r3, [r3, #4]
 800ac58:	4a3c      	ldr	r2, [pc, #240]	@ (800ad4c <DMA_DeInit+0x144>)
 800ac5a:	f043 03f0 	orr.w	r3, r3, #240	@ 0xf0
 800ac5e:	6053      	str	r3, [r2, #4]
}
 800ac60:	e06c      	b.n	800ad3c <DMA_DeInit+0x134>
  else if (DMAy_Channelx == DMA1_Channel3)
 800ac62:	687b      	ldr	r3, [r7, #4]
 800ac64:	4a3b      	ldr	r2, [pc, #236]	@ (800ad54 <DMA_DeInit+0x14c>)
 800ac66:	4293      	cmp	r3, r2
 800ac68:	d106      	bne.n	800ac78 <DMA_DeInit+0x70>
    DMA1->IFCR |= DMA1_Channel3_IT_Mask;
 800ac6a:	4b38      	ldr	r3, [pc, #224]	@ (800ad4c <DMA_DeInit+0x144>)
 800ac6c:	685b      	ldr	r3, [r3, #4]
 800ac6e:	4a37      	ldr	r2, [pc, #220]	@ (800ad4c <DMA_DeInit+0x144>)
 800ac70:	f443 6370 	orr.w	r3, r3, #3840	@ 0xf00
 800ac74:	6053      	str	r3, [r2, #4]
}
 800ac76:	e061      	b.n	800ad3c <DMA_DeInit+0x134>
  else if (DMAy_Channelx == DMA1_Channel4)
 800ac78:	687b      	ldr	r3, [r7, #4]
 800ac7a:	4a37      	ldr	r2, [pc, #220]	@ (800ad58 <DMA_DeInit+0x150>)
 800ac7c:	4293      	cmp	r3, r2
 800ac7e:	d106      	bne.n	800ac8e <DMA_DeInit+0x86>
    DMA1->IFCR |= DMA1_Channel4_IT_Mask;
 800ac80:	4b32      	ldr	r3, [pc, #200]	@ (800ad4c <DMA_DeInit+0x144>)
 800ac82:	685b      	ldr	r3, [r3, #4]
 800ac84:	4a31      	ldr	r2, [pc, #196]	@ (800ad4c <DMA_DeInit+0x144>)
 800ac86:	f443 4370 	orr.w	r3, r3, #61440	@ 0xf000
 800ac8a:	6053      	str	r3, [r2, #4]
}
 800ac8c:	e056      	b.n	800ad3c <DMA_DeInit+0x134>
  else if (DMAy_Channelx == DMA1_Channel5)
 800ac8e:	687b      	ldr	r3, [r7, #4]
 800ac90:	4a32      	ldr	r2, [pc, #200]	@ (800ad5c <DMA_DeInit+0x154>)
 800ac92:	4293      	cmp	r3, r2
 800ac94:	d106      	bne.n	800aca4 <DMA_DeInit+0x9c>
    DMA1->IFCR |= DMA1_Channel5_IT_Mask;
 800ac96:	4b2d      	ldr	r3, [pc, #180]	@ (800ad4c <DMA_DeInit+0x144>)
 800ac98:	685b      	ldr	r3, [r3, #4]
 800ac9a:	4a2c      	ldr	r2, [pc, #176]	@ (800ad4c <DMA_DeInit+0x144>)
 800ac9c:	f443 2370 	orr.w	r3, r3, #983040	@ 0xf0000
 800aca0:	6053      	str	r3, [r2, #4]
}
 800aca2:	e04b      	b.n	800ad3c <DMA_DeInit+0x134>
  else if (DMAy_Channelx == DMA1_Channel6)
 800aca4:	687b      	ldr	r3, [r7, #4]
 800aca6:	4a2e      	ldr	r2, [pc, #184]	@ (800ad60 <DMA_DeInit+0x158>)
 800aca8:	4293      	cmp	r3, r2
 800acaa:	d106      	bne.n	800acba <DMA_DeInit+0xb2>
    DMA1->IFCR |= DMA1_Channel6_IT_Mask;
 800acac:	4b27      	ldr	r3, [pc, #156]	@ (800ad4c <DMA_DeInit+0x144>)
 800acae:	685b      	ldr	r3, [r3, #4]
 800acb0:	4a26      	ldr	r2, [pc, #152]	@ (800ad4c <DMA_DeInit+0x144>)
 800acb2:	f443 0370 	orr.w	r3, r3, #15728640	@ 0xf00000
 800acb6:	6053      	str	r3, [r2, #4]
}
 800acb8:	e040      	b.n	800ad3c <DMA_DeInit+0x134>
  else if (DMAy_Channelx == DMA1_Channel7)
 800acba:	687b      	ldr	r3, [r7, #4]
 800acbc:	4a29      	ldr	r2, [pc, #164]	@ (800ad64 <DMA_DeInit+0x15c>)
 800acbe:	4293      	cmp	r3, r2
 800acc0:	d106      	bne.n	800acd0 <DMA_DeInit+0xc8>
    DMA1->IFCR |= DMA1_Channel7_IT_Mask;
 800acc2:	4b22      	ldr	r3, [pc, #136]	@ (800ad4c <DMA_DeInit+0x144>)
 800acc4:	685b      	ldr	r3, [r3, #4]
 800acc6:	4a21      	ldr	r2, [pc, #132]	@ (800ad4c <DMA_DeInit+0x144>)
 800acc8:	f043 6370 	orr.w	r3, r3, #251658240	@ 0xf000000
 800accc:	6053      	str	r3, [r2, #4]
}
 800acce:	e035      	b.n	800ad3c <DMA_DeInit+0x134>
  else if (DMAy_Channelx == DMA2_Channel1)
 800acd0:	687b      	ldr	r3, [r7, #4]
 800acd2:	4a25      	ldr	r2, [pc, #148]	@ (800ad68 <DMA_DeInit+0x160>)
 800acd4:	4293      	cmp	r3, r2
 800acd6:	d106      	bne.n	800ace6 <DMA_DeInit+0xde>
    DMA2->IFCR |= DMA2_Channel1_IT_Mask;
 800acd8:	4b24      	ldr	r3, [pc, #144]	@ (800ad6c <DMA_DeInit+0x164>)
 800acda:	685b      	ldr	r3, [r3, #4]
 800acdc:	4a23      	ldr	r2, [pc, #140]	@ (800ad6c <DMA_DeInit+0x164>)
 800acde:	f043 030f 	orr.w	r3, r3, #15
 800ace2:	6053      	str	r3, [r2, #4]
}
 800ace4:	e02a      	b.n	800ad3c <DMA_DeInit+0x134>
  else if (DMAy_Channelx == DMA2_Channel2)
 800ace6:	687b      	ldr	r3, [r7, #4]
 800ace8:	4a21      	ldr	r2, [pc, #132]	@ (800ad70 <DMA_DeInit+0x168>)
 800acea:	4293      	cmp	r3, r2
 800acec:	d106      	bne.n	800acfc <DMA_DeInit+0xf4>
    DMA2->IFCR |= DMA2_Channel2_IT_Mask;
 800acee:	4b1f      	ldr	r3, [pc, #124]	@ (800ad6c <DMA_DeInit+0x164>)
 800acf0:	685b      	ldr	r3, [r3, #4]
 800acf2:	4a1e      	ldr	r2, [pc, #120]	@ (800ad6c <DMA_DeInit+0x164>)
 800acf4:	f043 03f0 	orr.w	r3, r3, #240	@ 0xf0
 800acf8:	6053      	str	r3, [r2, #4]
}
 800acfa:	e01f      	b.n	800ad3c <DMA_DeInit+0x134>
  else if (DMAy_Channelx == DMA2_Channel3)
 800acfc:	687b      	ldr	r3, [r7, #4]
 800acfe:	4a1d      	ldr	r2, [pc, #116]	@ (800ad74 <DMA_DeInit+0x16c>)
 800ad00:	4293      	cmp	r3, r2
 800ad02:	d106      	bne.n	800ad12 <DMA_DeInit+0x10a>
    DMA2->IFCR |= DMA2_Channel3_IT_Mask;
 800ad04:	4b19      	ldr	r3, [pc, #100]	@ (800ad6c <DMA_DeInit+0x164>)
 800ad06:	685b      	ldr	r3, [r3, #4]
 800ad08:	4a18      	ldr	r2, [pc, #96]	@ (800ad6c <DMA_DeInit+0x164>)
 800ad0a:	f443 6370 	orr.w	r3, r3, #3840	@ 0xf00
 800ad0e:	6053      	str	r3, [r2, #4]
}
 800ad10:	e014      	b.n	800ad3c <DMA_DeInit+0x134>
  else if (DMAy_Channelx == DMA2_Channel4)
 800ad12:	687b      	ldr	r3, [r7, #4]
 800ad14:	4a18      	ldr	r2, [pc, #96]	@ (800ad78 <DMA_DeInit+0x170>)
 800ad16:	4293      	cmp	r3, r2
 800ad18:	d106      	bne.n	800ad28 <DMA_DeInit+0x120>
    DMA2->IFCR |= DMA2_Channel4_IT_Mask;
 800ad1a:	4b14      	ldr	r3, [pc, #80]	@ (800ad6c <DMA_DeInit+0x164>)
 800ad1c:	685b      	ldr	r3, [r3, #4]
 800ad1e:	4a13      	ldr	r2, [pc, #76]	@ (800ad6c <DMA_DeInit+0x164>)
 800ad20:	f443 4370 	orr.w	r3, r3, #61440	@ 0xf000
 800ad24:	6053      	str	r3, [r2, #4]
}
 800ad26:	e009      	b.n	800ad3c <DMA_DeInit+0x134>
    if (DMAy_Channelx == DMA2_Channel5)
 800ad28:	687b      	ldr	r3, [r7, #4]
 800ad2a:	4a14      	ldr	r2, [pc, #80]	@ (800ad7c <DMA_DeInit+0x174>)
 800ad2c:	4293      	cmp	r3, r2
 800ad2e:	d105      	bne.n	800ad3c <DMA_DeInit+0x134>
      DMA2->IFCR |= DMA2_Channel5_IT_Mask;
 800ad30:	4b0e      	ldr	r3, [pc, #56]	@ (800ad6c <DMA_DeInit+0x164>)
 800ad32:	685b      	ldr	r3, [r3, #4]
 800ad34:	4a0d      	ldr	r2, [pc, #52]	@ (800ad6c <DMA_DeInit+0x164>)
 800ad36:	f443 2370 	orr.w	r3, r3, #983040	@ 0xf0000
 800ad3a:	6053      	str	r3, [r2, #4]
}
 800ad3c:	bf00      	nop
 800ad3e:	370c      	adds	r7, #12
 800ad40:	46bd      	mov	sp, r7
 800ad42:	bc80      	pop	{r7}
 800ad44:	4770      	bx	lr
 800ad46:	bf00      	nop
 800ad48:	40020008 	.word	0x40020008
 800ad4c:	40020000 	.word	0x40020000
 800ad50:	4002001c 	.word	0x4002001c
 800ad54:	40020030 	.word	0x40020030
 800ad58:	40020044 	.word	0x40020044
 800ad5c:	40020058 	.word	0x40020058
 800ad60:	4002006c 	.word	0x4002006c
 800ad64:	40020080 	.word	0x40020080
 800ad68:	40020408 	.word	0x40020408
 800ad6c:	40020400 	.word	0x40020400
 800ad70:	4002041c 	.word	0x4002041c
 800ad74:	40020430 	.word	0x40020430
 800ad78:	40020444 	.word	0x40020444
 800ad7c:	40020458 	.word	0x40020458

0800ad80 <DMA_Init>:
  * @param  DMA_InitStruct: pointer to a DMA_InitTypeDef structure that
  *         contains the configuration information for the specified DMA Channel.
  * @retval None
  */
void DMA_Init(DMA_Channel_TypeDef* DMAy_Channelx, DMA_InitTypeDef* DMA_InitStruct)
{
 800ad80:	b480      	push	{r7}
 800ad82:	b085      	sub	sp, #20
 800ad84:	af00      	add	r7, sp, #0
 800ad86:	6078      	str	r0, [r7, #4]
 800ad88:	6039      	str	r1, [r7, #0]
  uint32_t tmpreg = 0;
 800ad8a:	2300      	movs	r3, #0
 800ad8c:	60fb      	str	r3, [r7, #12]
  assert_param(IS_DMA_PRIORITY(DMA_InitStruct->DMA_Priority));
  assert_param(IS_DMA_M2M_STATE(DMA_InitStruct->DMA_M2M));

/*--------------------------- DMAy Channelx CCR Configuration -----------------*/
  /* Get the DMAy_Channelx CCR value */
  tmpreg = DMAy_Channelx->CCR;
 800ad8e:	687b      	ldr	r3, [r7, #4]
 800ad90:	681b      	ldr	r3, [r3, #0]
 800ad92:	60fb      	str	r3, [r7, #12]
  /* Clear MEM2MEM, PL, MSIZE, PSIZE, MINC, PINC, CIRC and DIR bits */
  tmpreg &= CCR_CLEAR_Mask;
 800ad94:	68fb      	ldr	r3, [r7, #12]
 800ad96:	f423 43ff 	bic.w	r3, r3, #32640	@ 0x7f80
 800ad9a:	f023 0370 	bic.w	r3, r3, #112	@ 0x70
 800ad9e:	60fb      	str	r3, [r7, #12]
  /* Set MINC bit according to DMA_MemoryInc value */
  /* Set PSIZE bits according to DMA_PeripheralDataSize value */
  /* Set MSIZE bits according to DMA_MemoryDataSize value */
  /* Set PL bits according to DMA_Priority value */
  /* Set the MEM2MEM bit according to DMA_M2M value */
  tmpreg |= DMA_InitStruct->DMA_DIR | DMA_InitStruct->DMA_Mode |
 800ada0:	683b      	ldr	r3, [r7, #0]
 800ada2:	689a      	ldr	r2, [r3, #8]
 800ada4:	683b      	ldr	r3, [r7, #0]
 800ada6:	6a1b      	ldr	r3, [r3, #32]
 800ada8:	431a      	orrs	r2, r3
            DMA_InitStruct->DMA_PeripheralInc | DMA_InitStruct->DMA_MemoryInc |
 800adaa:	683b      	ldr	r3, [r7, #0]
 800adac:	691b      	ldr	r3, [r3, #16]
  tmpreg |= DMA_InitStruct->DMA_DIR | DMA_InitStruct->DMA_Mode |
 800adae:	431a      	orrs	r2, r3
            DMA_InitStruct->DMA_PeripheralInc | DMA_InitStruct->DMA_MemoryInc |
 800adb0:	683b      	ldr	r3, [r7, #0]
 800adb2:	695b      	ldr	r3, [r3, #20]
 800adb4:	431a      	orrs	r2, r3
            DMA_InitStruct->DMA_PeripheralDataSize | DMA_InitStruct->DMA_MemoryDataSize |
 800adb6:	683b      	ldr	r3, [r7, #0]
 800adb8:	699b      	ldr	r3, [r3, #24]
            DMA_InitStruct->DMA_PeripheralInc | DMA_InitStruct->DMA_MemoryInc |
 800adba:	431a      	orrs	r2, r3
            DMA_InitStruct->DMA_PeripheralDataSize | DMA_InitStruct->DMA_MemoryDataSize |
 800adbc:	683b      	ldr	r3, [r7, #0]
 800adbe:	69db      	ldr	r3, [r3, #28]
 800adc0:	431a      	orrs	r2, r3
            DMA_InitStruct->DMA_Priority | DMA_InitStruct->DMA_M2M;
 800adc2:	683b      	ldr	r3, [r7, #0]
 800adc4:	6a5b      	ldr	r3, [r3, #36]	@ 0x24
            DMA_InitStruct->DMA_PeripheralDataSize | DMA_InitStruct->DMA_MemoryDataSize |
 800adc6:	431a      	orrs	r2, r3
            DMA_InitStruct->DMA_Priority | DMA_InitStruct->DMA_M2M;
 800adc8:	683b      	ldr	r3, [r7, #0]
 800adca:	6a9b      	ldr	r3, [r3, #40]	@ 0x28
 800adcc:	4313      	orrs	r3, r2
  tmpreg |= DMA_InitStruct->DMA_DIR | DMA_InitStruct->DMA_Mode |
 800adce:	68fa      	ldr	r2, [r7, #12]
 800add0:	4313      	orrs	r3, r2
 800add2:	60fb      	str	r3, [r7, #12]

  /* Write to DMAy Channelx CCR */
  DMAy_Channelx->CCR = tmpreg;
 800add4:	687b      	ldr	r3, [r7, #4]
 800add6:	68fa      	ldr	r2, [r7, #12]
 800add8:	601a      	str	r2, [r3, #0]

/*--------------------------- DMAy Channelx CNDTR Configuration ---------------*/
  /* Write to DMAy Channelx CNDTR */
  DMAy_Channelx->CNDTR = DMA_InitStruct->DMA_BufferSize;
 800adda:	683b      	ldr	r3, [r7, #0]
 800addc:	68da      	ldr	r2, [r3, #12]
 800adde:	687b      	ldr	r3, [r7, #4]
 800ade0:	605a      	str	r2, [r3, #4]

/*--------------------------- DMAy Channelx CPAR Configuration ----------------*/
  /* Write to DMAy Channelx CPAR */
  DMAy_Channelx->CPAR = DMA_InitStruct->DMA_PeripheralBaseAddr;
 800ade2:	683b      	ldr	r3, [r7, #0]
 800ade4:	681a      	ldr	r2, [r3, #0]
 800ade6:	687b      	ldr	r3, [r7, #4]
 800ade8:	609a      	str	r2, [r3, #8]

/*--------------------------- DMAy Channelx CMAR Configuration ----------------*/
  /* Write to DMAy Channelx CMAR */
  DMAy_Channelx->CMAR = DMA_InitStruct->DMA_MemoryBaseAddr;
 800adea:	683b      	ldr	r3, [r7, #0]
 800adec:	685a      	ldr	r2, [r3, #4]
 800adee:	687b      	ldr	r3, [r7, #4]
 800adf0:	60da      	str	r2, [r3, #12]
}
 800adf2:	bf00      	nop
 800adf4:	3714      	adds	r7, #20
 800adf6:	46bd      	mov	sp, r7
 800adf8:	bc80      	pop	{r7}
 800adfa:	4770      	bx	lr

0800adfc <DMA_StructInit>:
  * @param  DMA_InitStruct : pointer to a DMA_InitTypeDef structure which will
  *         be initialized.
  * @retval None
  */
void DMA_StructInit(DMA_InitTypeDef* DMA_InitStruct)
{
 800adfc:	b480      	push	{r7}
 800adfe:	b083      	sub	sp, #12
 800ae00:	af00      	add	r7, sp, #0
 800ae02:	6078      	str	r0, [r7, #4]
/*-------------- Reset DMA init structure parameters values ------------------*/
  /* Initialize the DMA_PeripheralBaseAddr member */
  DMA_InitStruct->DMA_PeripheralBaseAddr = 0;
 800ae04:	687b      	ldr	r3, [r7, #4]
 800ae06:	2200      	movs	r2, #0
 800ae08:	601a      	str	r2, [r3, #0]
  /* Initialize the DMA_MemoryBaseAddr member */
  DMA_InitStruct->DMA_MemoryBaseAddr = 0;
 800ae0a:	687b      	ldr	r3, [r7, #4]
 800ae0c:	2200      	movs	r2, #0
 800ae0e:	605a      	str	r2, [r3, #4]
  /* Initialize the DMA_DIR member */
  DMA_InitStruct->DMA_DIR = DMA_DIR_PeripheralSRC;
 800ae10:	687b      	ldr	r3, [r7, #4]
 800ae12:	2200      	movs	r2, #0
 800ae14:	609a      	str	r2, [r3, #8]
  /* Initialize the DMA_BufferSize member */
  DMA_InitStruct->DMA_BufferSize = 0;
 800ae16:	687b      	ldr	r3, [r7, #4]
 800ae18:	2200      	movs	r2, #0
 800ae1a:	60da      	str	r2, [r3, #12]
  /* Initialize the DMA_PeripheralInc member */
  DMA_InitStruct->DMA_PeripheralInc = DMA_PeripheralInc_Disable;
 800ae1c:	687b      	ldr	r3, [r7, #4]
 800ae1e:	2200      	movs	r2, #0
 800ae20:	611a      	str	r2, [r3, #16]
  /* Initialize the DMA_MemoryInc member */
  DMA_InitStruct->DMA_MemoryInc = DMA_MemoryInc_Disable;
 800ae22:	687b      	ldr	r3, [r7, #4]
 800ae24:	2200      	movs	r2, #0
 800ae26:	615a      	str	r2, [r3, #20]
  /* Initialize the DMA_PeripheralDataSize member */
  DMA_InitStruct->DMA_PeripheralDataSize = DMA_PeripheralDataSize_Byte;
 800ae28:	687b      	ldr	r3, [r7, #4]
 800ae2a:	2200      	movs	r2, #0
 800ae2c:	619a      	str	r2, [r3, #24]
  /* Initialize the DMA_MemoryDataSize member */
  DMA_InitStruct->DMA_MemoryDataSize = DMA_MemoryDataSize_Byte;
 800ae2e:	687b      	ldr	r3, [r7, #4]
 800ae30:	2200      	movs	r2, #0
 800ae32:	61da      	str	r2, [r3, #28]
  /* Initialize the DMA_Mode member */
  DMA_InitStruct->DMA_Mode = DMA_Mode_Normal;
 800ae34:	687b      	ldr	r3, [r7, #4]
 800ae36:	2200      	movs	r2, #0
 800ae38:	621a      	str	r2, [r3, #32]
  /* Initialize the DMA_Priority member */
  DMA_InitStruct->DMA_Priority = DMA_Priority_Low;
 800ae3a:	687b      	ldr	r3, [r7, #4]
 800ae3c:	2200      	movs	r2, #0
 800ae3e:	625a      	str	r2, [r3, #36]	@ 0x24
  /* Initialize the DMA_M2M member */
  DMA_InitStruct->DMA_M2M = DMA_M2M_Disable;
 800ae40:	687b      	ldr	r3, [r7, #4]
 800ae42:	2200      	movs	r2, #0
 800ae44:	629a      	str	r2, [r3, #40]	@ 0x28
}
 800ae46:	bf00      	nop
 800ae48:	370c      	adds	r7, #12
 800ae4a:	46bd      	mov	sp, r7
 800ae4c:	bc80      	pop	{r7}
 800ae4e:	4770      	bx	lr

0800ae50 <DMA_Cmd>:
  * @param  NewState: new state of the DMAy Channelx. 
  *   This parameter can be: ENABLE or DISABLE.
  * @retval None
  */
void DMA_Cmd(DMA_Channel_TypeDef* DMAy_Channelx, FunctionalState NewState)
{
 800ae50:	b480      	push	{r7}
 800ae52:	b083      	sub	sp, #12
 800ae54:	af00      	add	r7, sp, #0
 800ae56:	6078      	str	r0, [r7, #4]
 800ae58:	460b      	mov	r3, r1
 800ae5a:	70fb      	strb	r3, [r7, #3]
  /* Check the parameters */
  assert_param(IS_DMA_ALL_PERIPH(DMAy_Channelx));
  assert_param(IS_FUNCTIONAL_STATE(NewState));

  if (NewState != DISABLE)
 800ae5c:	78fb      	ldrb	r3, [r7, #3]
 800ae5e:	2b00      	cmp	r3, #0
 800ae60:	d006      	beq.n	800ae70 <DMA_Cmd+0x20>
  {
    /* Enable the selected DMAy Channelx */
    DMAy_Channelx->CCR |= DMA_CCR1_EN;
 800ae62:	687b      	ldr	r3, [r7, #4]
 800ae64:	681b      	ldr	r3, [r3, #0]
 800ae66:	f043 0201 	orr.w	r2, r3, #1
 800ae6a:	687b      	ldr	r3, [r7, #4]
 800ae6c:	601a      	str	r2, [r3, #0]
  else
  {
    /* Disable the selected DMAy Channelx */
    DMAy_Channelx->CCR &= (uint16_t)(~DMA_CCR1_EN);
  }
}
 800ae6e:	e006      	b.n	800ae7e <DMA_Cmd+0x2e>
    DMAy_Channelx->CCR &= (uint16_t)(~DMA_CCR1_EN);
 800ae70:	687b      	ldr	r3, [r7, #4]
 800ae72:	681a      	ldr	r2, [r3, #0]
 800ae74:	f64f 73fe 	movw	r3, #65534	@ 0xfffe
 800ae78:	4013      	ands	r3, r2
 800ae7a:	687a      	ldr	r2, [r7, #4]
 800ae7c:	6013      	str	r3, [r2, #0]
}
 800ae7e:	bf00      	nop
 800ae80:	370c      	adds	r7, #12
 800ae82:	46bd      	mov	sp, r7
 800ae84:	bc80      	pop	{r7}
 800ae86:	4770      	bx	lr

0800ae88 <DMA_ITConfig>:
  * @param  NewState: new state of the specified DMA interrupts.
  *   This parameter can be: ENABLE or DISABLE.
  * @retval None
  */
void DMA_ITConfig(DMA_Channel_TypeDef* DMAy_Channelx, uint32_t DMA_IT, FunctionalState NewState)
{
 800ae88:	b480      	push	{r7}
 800ae8a:	b085      	sub	sp, #20
 800ae8c:	af00      	add	r7, sp, #0
 800ae8e:	60f8      	str	r0, [r7, #12]
 800ae90:	60b9      	str	r1, [r7, #8]
 800ae92:	4613      	mov	r3, r2
 800ae94:	71fb      	strb	r3, [r7, #7]
  /* Check the parameters */
  assert_param(IS_DMA_ALL_PERIPH(DMAy_Channelx));
  assert_param(IS_DMA_CONFIG_IT(DMA_IT));
  assert_param(IS_FUNCTIONAL_STATE(NewState));
  if (NewState != DISABLE)
 800ae96:	79fb      	ldrb	r3, [r7, #7]
 800ae98:	2b00      	cmp	r3, #0
 800ae9a:	d006      	beq.n	800aeaa <DMA_ITConfig+0x22>
  {
    /* Enable the selected DMA interrupts */
    DMAy_Channelx->CCR |= DMA_IT;
 800ae9c:	68fb      	ldr	r3, [r7, #12]
 800ae9e:	681a      	ldr	r2, [r3, #0]
 800aea0:	68bb      	ldr	r3, [r7, #8]
 800aea2:	431a      	orrs	r2, r3
 800aea4:	68fb      	ldr	r3, [r7, #12]
 800aea6:	601a      	str	r2, [r3, #0]
  else
  {
    /* Disable the selected DMA interrupts */
    DMAy_Channelx->CCR &= ~DMA_IT;
  }
}
 800aea8:	e006      	b.n	800aeb8 <DMA_ITConfig+0x30>
    DMAy_Channelx->CCR &= ~DMA_IT;
 800aeaa:	68fb      	ldr	r3, [r7, #12]
 800aeac:	681a      	ldr	r2, [r3, #0]
 800aeae:	68bb      	ldr	r3, [r7, #8]
 800aeb0:	43db      	mvns	r3, r3
 800aeb2:	401a      	ands	r2, r3
 800aeb4:	68fb      	ldr	r3, [r7, #12]
 800aeb6:	601a      	str	r2, [r3, #0]
}
 800aeb8:	bf00      	nop
 800aeba:	3714      	adds	r7, #20
 800aebc:	46bd      	mov	sp, r7
 800aebe:	bc80      	pop	{r7}
 800aec0:	4770      	bx	lr
	...

0800aec4 <DMA_ClearITPendingBit>:
  *     @arg DMA2_IT_HT5: DMA2 Channel5 half transfer interrupt.
  *     @arg DMA2_IT_TE5: DMA2 Channel5 transfer error interrupt.
  * @retval None
  */
void DMA_ClearITPendingBit(uint32_t DMAy_IT)
{
 800aec4:	b480      	push	{r7}
 800aec6:	b083      	sub	sp, #12
 800aec8:	af00      	add	r7, sp, #0
 800aeca:	6078      	str	r0, [r7, #4]
  /* Check the parameters */
  assert_param(IS_DMA_CLEAR_IT(DMAy_IT));

  /* Calculate the used DMAy */
  if ((DMAy_IT & FLAG_Mask) != (uint32_t)RESET)
 800aecc:	687b      	ldr	r3, [r7, #4]
 800aece:	f003 5380 	and.w	r3, r3, #268435456	@ 0x10000000
 800aed2:	2b00      	cmp	r3, #0
 800aed4:	d003      	beq.n	800aede <DMA_ClearITPendingBit+0x1a>
  {
    /* Clear the selected DMAy interrupt pending bits */
    DMA2->IFCR = DMAy_IT;
 800aed6:	4a06      	ldr	r2, [pc, #24]	@ (800aef0 <DMA_ClearITPendingBit+0x2c>)
 800aed8:	687b      	ldr	r3, [r7, #4]
 800aeda:	6053      	str	r3, [r2, #4]
  else
  {
    /* Clear the selected DMAy interrupt pending bits */
    DMA1->IFCR = DMAy_IT;
  }
}
 800aedc:	e002      	b.n	800aee4 <DMA_ClearITPendingBit+0x20>
    DMA1->IFCR = DMAy_IT;
 800aede:	4a05      	ldr	r2, [pc, #20]	@ (800aef4 <DMA_ClearITPendingBit+0x30>)
 800aee0:	687b      	ldr	r3, [r7, #4]
 800aee2:	6053      	str	r3, [r2, #4]
}
 800aee4:	bf00      	nop
 800aee6:	370c      	adds	r7, #12
 800aee8:	46bd      	mov	sp, r7
 800aeea:	bc80      	pop	{r7}
 800aeec:	4770      	bx	lr
 800aeee:	bf00      	nop
 800aef0:	40020400 	.word	0x40020400
 800aef4:	40020000 	.word	0x40020000

0800aef8 <FLASH_SetLatency>:
  *     @arg FLASH_Latency_1: FLASH One Latency cycle
  *     @arg FLASH_Latency_2: FLASH Two Latency cycles
  * @retval None
  */
void FLASH_SetLatency(uint32_t FLASH_Latency)
{
 800aef8:	b480      	push	{r7}
 800aefa:	b085      	sub	sp, #20
 800aefc:	af00      	add	r7, sp, #0
 800aefe:	6078      	str	r0, [r7, #4]
  uint32_t tmpreg = 0;
 800af00:	2300      	movs	r3, #0
 800af02:	60fb      	str	r3, [r7, #12]
  
  /* Read the ACR register */
  tmpreg = FLASH->ACR;  
 800af04:	4b09      	ldr	r3, [pc, #36]	@ (800af2c <FLASH_SetLatency+0x34>)
 800af06:	681b      	ldr	r3, [r3, #0]
 800af08:	60fb      	str	r3, [r7, #12]
  
  /* Sets the Latency value */
  tmpreg &= ACR_LATENCY_Mask;
 800af0a:	68fb      	ldr	r3, [r7, #12]
 800af0c:	f003 0338 	and.w	r3, r3, #56	@ 0x38
 800af10:	60fb      	str	r3, [r7, #12]
  tmpreg |= FLASH_Latency;
 800af12:	68fa      	ldr	r2, [r7, #12]
 800af14:	687b      	ldr	r3, [r7, #4]
 800af16:	4313      	orrs	r3, r2
 800af18:	60fb      	str	r3, [r7, #12]
  
  /* Write the ACR register */
  FLASH->ACR = tmpreg;
 800af1a:	4a04      	ldr	r2, [pc, #16]	@ (800af2c <FLASH_SetLatency+0x34>)
 800af1c:	68fb      	ldr	r3, [r7, #12]
 800af1e:	6013      	str	r3, [r2, #0]
}
 800af20:	bf00      	nop
 800af22:	3714      	adds	r7, #20
 800af24:	46bd      	mov	sp, r7
 800af26:	bc80      	pop	{r7}
 800af28:	4770      	bx	lr
 800af2a:	bf00      	nop
 800af2c:	40022000 	.word	0x40022000

0800af30 <FLASH_PrefetchBufferCmd>:
  *     @arg FLASH_PrefetchBuffer_Enable: FLASH Prefetch Buffer Enable
  *     @arg FLASH_PrefetchBuffer_Disable: FLASH Prefetch Buffer Disable
  * @retval None
  */
void FLASH_PrefetchBufferCmd(uint32_t FLASH_PrefetchBuffer)
{
 800af30:	b480      	push	{r7}
 800af32:	b083      	sub	sp, #12
 800af34:	af00      	add	r7, sp, #0
 800af36:	6078      	str	r0, [r7, #4]
  /* Enable or disable the Prefetch Buffer */
  FLASH->ACR &= ACR_PRFTBE_Mask;
 800af38:	4b08      	ldr	r3, [pc, #32]	@ (800af5c <FLASH_PrefetchBufferCmd+0x2c>)
 800af3a:	681b      	ldr	r3, [r3, #0]
 800af3c:	4a07      	ldr	r2, [pc, #28]	@ (800af5c <FLASH_PrefetchBufferCmd+0x2c>)
 800af3e:	f023 0310 	bic.w	r3, r3, #16
 800af42:	6013      	str	r3, [r2, #0]
  FLASH->ACR |= FLASH_PrefetchBuffer;
 800af44:	4b05      	ldr	r3, [pc, #20]	@ (800af5c <FLASH_PrefetchBufferCmd+0x2c>)
 800af46:	681a      	ldr	r2, [r3, #0]
 800af48:	4904      	ldr	r1, [pc, #16]	@ (800af5c <FLASH_PrefetchBufferCmd+0x2c>)
 800af4a:	687b      	ldr	r3, [r7, #4]
 800af4c:	4313      	orrs	r3, r2
 800af4e:	600b      	str	r3, [r1, #0]
}
 800af50:	bf00      	nop
 800af52:	370c      	adds	r7, #12
 800af54:	46bd      	mov	sp, r7
 800af56:	bc80      	pop	{r7}
 800af58:	4770      	bx	lr
 800af5a:	bf00      	nop
 800af5c:	40022000 	.word	0x40022000

0800af60 <FLASH_Unlock>:
  * @brief  Unlocks the FLASH Program Erase Controller.
  * @param  None
  * @retval None
  */
void FLASH_Unlock(void)
{
 800af60:	b480      	push	{r7}
 800af62:	af00      	add	r7, sp, #0
  /* Authorize the FPEC Access */
  FLASH->KEYR = FLASH_KEY1;
 800af64:	4b04      	ldr	r3, [pc, #16]	@ (800af78 <FLASH_Unlock+0x18>)
 800af66:	4a05      	ldr	r2, [pc, #20]	@ (800af7c <FLASH_Unlock+0x1c>)
 800af68:	605a      	str	r2, [r3, #4]
  FLASH->KEYR = FLASH_KEY2;
 800af6a:	4b03      	ldr	r3, [pc, #12]	@ (800af78 <FLASH_Unlock+0x18>)
 800af6c:	4a04      	ldr	r2, [pc, #16]	@ (800af80 <FLASH_Unlock+0x20>)
 800af6e:	605a      	str	r2, [r3, #4]
}
 800af70:	bf00      	nop
 800af72:	46bd      	mov	sp, r7
 800af74:	bc80      	pop	{r7}
 800af76:	4770      	bx	lr
 800af78:	40022000 	.word	0x40022000
 800af7c:	45670123 	.word	0x45670123
 800af80:	cdef89ab 	.word	0xcdef89ab

0800af84 <FLASH_Lock>:
  * @brief  Locks the FLASH Program Erase Controller.
  * @param  None
  * @retval None
  */
void FLASH_Lock(void)
{
 800af84:	b480      	push	{r7}
 800af86:	af00      	add	r7, sp, #0
  /* Set the Lock Bit to lock the FPEC and the FCR */
  FLASH->CR |= CR_LOCK_Set;
 800af88:	4b04      	ldr	r3, [pc, #16]	@ (800af9c <FLASH_Lock+0x18>)
 800af8a:	691b      	ldr	r3, [r3, #16]
 800af8c:	4a03      	ldr	r2, [pc, #12]	@ (800af9c <FLASH_Lock+0x18>)
 800af8e:	f043 0380 	orr.w	r3, r3, #128	@ 0x80
 800af92:	6113      	str	r3, [r2, #16]
}
 800af94:	bf00      	nop
 800af96:	46bd      	mov	sp, r7
 800af98:	bc80      	pop	{r7}
 800af9a:	4770      	bx	lr
 800af9c:	40022000 	.word	0x40022000

0800afa0 <FLASH_ErasePage>:
  * @param  Page_Address: The page address to be erased.
  * @retval FLASH Status: The returned value can be: FLASH_BUSY, FLASH_ERROR_PG,
  *   FLASH_ERROR_WRP, FLASH_COMPLETE or FLASH_TIMEOUT.
  */
FLASH_Status FLASH_ErasePage(uint32_t Page_Address)
{
 800afa0:	b580      	push	{r7, lr}
 800afa2:	b084      	sub	sp, #16
 800afa4:	af00      	add	r7, sp, #0
 800afa6:	6078      	str	r0, [r7, #4]
  FLASH_Status status = FLASH_COMPLETE;
 800afa8:	2304      	movs	r3, #4
 800afaa:	73fb      	strb	r3, [r7, #15]
  /* Wait for last operation to be completed */
  status = FLASH_WaitForLastOperation(EraseTimeout);
 800afac:	f640 70ff 	movw	r0, #4095	@ 0xfff
 800afb0:	f000 f8e2 	bl	800b178 <FLASH_WaitForLastOperation>
 800afb4:	4603      	mov	r3, r0
 800afb6:	73fb      	strb	r3, [r7, #15]
  
  if(status == FLASH_COMPLETE)
 800afb8:	7bfb      	ldrb	r3, [r7, #15]
 800afba:	2b04      	cmp	r3, #4
 800afbc:	d11e      	bne.n	800affc <FLASH_ErasePage+0x5c>
  { 
    /* if the previous operation is completed, proceed to erase the page */
    FLASH->CR|= CR_PER_Set;
 800afbe:	4b12      	ldr	r3, [pc, #72]	@ (800b008 <FLASH_ErasePage+0x68>)
 800afc0:	691b      	ldr	r3, [r3, #16]
 800afc2:	4a11      	ldr	r2, [pc, #68]	@ (800b008 <FLASH_ErasePage+0x68>)
 800afc4:	f043 0302 	orr.w	r3, r3, #2
 800afc8:	6113      	str	r3, [r2, #16]
    FLASH->AR = Page_Address; 
 800afca:	4a0f      	ldr	r2, [pc, #60]	@ (800b008 <FLASH_ErasePage+0x68>)
 800afcc:	687b      	ldr	r3, [r7, #4]
 800afce:	6153      	str	r3, [r2, #20]
    FLASH->CR|= CR_STRT_Set;
 800afd0:	4b0d      	ldr	r3, [pc, #52]	@ (800b008 <FLASH_ErasePage+0x68>)
 800afd2:	691b      	ldr	r3, [r3, #16]
 800afd4:	4a0c      	ldr	r2, [pc, #48]	@ (800b008 <FLASH_ErasePage+0x68>)
 800afd6:	f043 0340 	orr.w	r3, r3, #64	@ 0x40
 800afda:	6113      	str	r3, [r2, #16]
    
    /* Wait for last operation to be completed */
    status = FLASH_WaitForLastOperation(EraseTimeout);
 800afdc:	f640 70ff 	movw	r0, #4095	@ 0xfff
 800afe0:	f000 f8ca 	bl	800b178 <FLASH_WaitForLastOperation>
 800afe4:	4603      	mov	r3, r0
 800afe6:	73fb      	strb	r3, [r7, #15]
    if(status != FLASH_TIMEOUT)
 800afe8:	7bfb      	ldrb	r3, [r7, #15]
 800afea:	2b05      	cmp	r3, #5
 800afec:	d006      	beq.n	800affc <FLASH_ErasePage+0x5c>
    {
      /* if the erase operation is completed, disable the PER Bit */
      FLASH->CR &= CR_PER_Reset;
 800afee:	4b06      	ldr	r3, [pc, #24]	@ (800b008 <FLASH_ErasePage+0x68>)
 800aff0:	691a      	ldr	r2, [r3, #16]
 800aff2:	4905      	ldr	r1, [pc, #20]	@ (800b008 <FLASH_ErasePage+0x68>)
 800aff4:	f641 73fd 	movw	r3, #8189	@ 0x1ffd
 800aff8:	4013      	ands	r3, r2
 800affa:	610b      	str	r3, [r1, #16]
    }
  }
  /* Return the Erase Status */
  return status;
 800affc:	7bfb      	ldrb	r3, [r7, #15]
}
 800affe:	4618      	mov	r0, r3
 800b000:	3710      	adds	r7, #16
 800b002:	46bd      	mov	sp, r7
 800b004:	bd80      	pop	{r7, pc}
 800b006:	bf00      	nop
 800b008:	40022000 	.word	0x40022000

0800b00c <FLASH_ProgramWord>:
  * @param  Data: specifies the data to be programmed.
  * @retval FLASH Status: The returned value can be: FLASH_ERROR_PG,
  *   FLASH_ERROR_WRP, FLASH_COMPLETE or FLASH_TIMEOUT. 
  */
FLASH_Status FLASH_ProgramWord(uint32_t Address, uint32_t Data)
{
 800b00c:	b580      	push	{r7, lr}
 800b00e:	b084      	sub	sp, #16
 800b010:	af00      	add	r7, sp, #0
 800b012:	6078      	str	r0, [r7, #4]
 800b014:	6039      	str	r1, [r7, #0]
  FLASH_Status status = FLASH_COMPLETE;
 800b016:	2304      	movs	r3, #4
 800b018:	73fb      	strb	r3, [r7, #15]
  __IO uint32_t tmp = 0;
 800b01a:	2300      	movs	r3, #0
 800b01c:	60bb      	str	r3, [r7, #8]

  /* Wait for last operation to be completed */
  status = FLASH_WaitForLastOperation(ProgramTimeout);
 800b01e:	200f      	movs	r0, #15
 800b020:	f000 f8aa 	bl	800b178 <FLASH_WaitForLastOperation>
 800b024:	4603      	mov	r3, r0
 800b026:	73fb      	strb	r3, [r7, #15]
  
  if(status == FLASH_COMPLETE)
 800b028:	7bfb      	ldrb	r3, [r7, #15]
 800b02a:	2b04      	cmp	r3, #4
 800b02c:	d133      	bne.n	800b096 <FLASH_ProgramWord+0x8a>
  {
    /* if the previous operation is completed, proceed to program the new first 
    half word */
    FLASH->CR |= CR_PG_Set;
 800b02e:	4b1c      	ldr	r3, [pc, #112]	@ (800b0a0 <FLASH_ProgramWord+0x94>)
 800b030:	691b      	ldr	r3, [r3, #16]
 800b032:	4a1b      	ldr	r2, [pc, #108]	@ (800b0a0 <FLASH_ProgramWord+0x94>)
 800b034:	f043 0301 	orr.w	r3, r3, #1
 800b038:	6113      	str	r3, [r2, #16]
  
    *(__IO uint16_t*)Address = (uint16_t)Data;
 800b03a:	687b      	ldr	r3, [r7, #4]
 800b03c:	683a      	ldr	r2, [r7, #0]
 800b03e:	b292      	uxth	r2, r2
 800b040:	801a      	strh	r2, [r3, #0]
    /* Wait for last operation to be completed */
    status = FLASH_WaitForLastOperation(ProgramTimeout);
 800b042:	200f      	movs	r0, #15
 800b044:	f000 f898 	bl	800b178 <FLASH_WaitForLastOperation>
 800b048:	4603      	mov	r3, r0
 800b04a:	73fb      	strb	r3, [r7, #15]
 
    if(status == FLASH_COMPLETE)
 800b04c:	7bfb      	ldrb	r3, [r7, #15]
 800b04e:	2b04      	cmp	r3, #4
 800b050:	d117      	bne.n	800b082 <FLASH_ProgramWord+0x76>
    {
      /* if the previous operation is completed, proceed to program the new second 
      half word */
      tmp = Address + 2;
 800b052:	687b      	ldr	r3, [r7, #4]
 800b054:	3302      	adds	r3, #2
 800b056:	60bb      	str	r3, [r7, #8]

      *(__IO uint16_t*) tmp = Data >> 16;
 800b058:	683b      	ldr	r3, [r7, #0]
 800b05a:	0c1a      	lsrs	r2, r3, #16
 800b05c:	68bb      	ldr	r3, [r7, #8]
 800b05e:	b292      	uxth	r2, r2
 800b060:	801a      	strh	r2, [r3, #0]
    
      /* Wait for last operation to be completed */
      status = FLASH_WaitForLastOperation(ProgramTimeout);
 800b062:	200f      	movs	r0, #15
 800b064:	f000 f888 	bl	800b178 <FLASH_WaitForLastOperation>
 800b068:	4603      	mov	r3, r0
 800b06a:	73fb      	strb	r3, [r7, #15]
        
      if(status != FLASH_TIMEOUT)
 800b06c:	7bfb      	ldrb	r3, [r7, #15]
 800b06e:	2b05      	cmp	r3, #5
 800b070:	d011      	beq.n	800b096 <FLASH_ProgramWord+0x8a>
      {
        /* Disable the PG Bit */
        FLASH->CR &= CR_PG_Reset;
 800b072:	4b0b      	ldr	r3, [pc, #44]	@ (800b0a0 <FLASH_ProgramWord+0x94>)
 800b074:	691a      	ldr	r2, [r3, #16]
 800b076:	490a      	ldr	r1, [pc, #40]	@ (800b0a0 <FLASH_ProgramWord+0x94>)
 800b078:	f641 73fe 	movw	r3, #8190	@ 0x1ffe
 800b07c:	4013      	ands	r3, r2
 800b07e:	610b      	str	r3, [r1, #16]
 800b080:	e009      	b.n	800b096 <FLASH_ProgramWord+0x8a>
      }
    }
    else
    {
      if (status != FLASH_TIMEOUT)
 800b082:	7bfb      	ldrb	r3, [r7, #15]
 800b084:	2b05      	cmp	r3, #5
 800b086:	d006      	beq.n	800b096 <FLASH_ProgramWord+0x8a>
      {
        /* Disable the PG Bit */
        FLASH->CR &= CR_PG_Reset;
 800b088:	4b05      	ldr	r3, [pc, #20]	@ (800b0a0 <FLASH_ProgramWord+0x94>)
 800b08a:	691a      	ldr	r2, [r3, #16]
 800b08c:	4904      	ldr	r1, [pc, #16]	@ (800b0a0 <FLASH_ProgramWord+0x94>)
 800b08e:	f641 73fe 	movw	r3, #8190	@ 0x1ffe
 800b092:	4013      	ands	r3, r2
 800b094:	610b      	str	r3, [r1, #16]
      }
     }
  }
  /* Return the Program Status */
  return status;
 800b096:	7bfb      	ldrb	r3, [r7, #15]
}
 800b098:	4618      	mov	r0, r3
 800b09a:	3710      	adds	r7, #16
 800b09c:	46bd      	mov	sp, r7
 800b09e:	bd80      	pop	{r7, pc}
 800b0a0:	40022000 	.word	0x40022000

0800b0a4 <FLASH_ProgramHalfWord>:
  * @param  Data: specifies the data to be programmed.
  * @retval FLASH Status: The returned value can be: FLASH_ERROR_PG,
  *   FLASH_ERROR_WRP, FLASH_COMPLETE or FLASH_TIMEOUT. 
  */
FLASH_Status FLASH_ProgramHalfWord(uint32_t Address, uint16_t Data)
{
 800b0a4:	b580      	push	{r7, lr}
 800b0a6:	b084      	sub	sp, #16
 800b0a8:	af00      	add	r7, sp, #0
 800b0aa:	6078      	str	r0, [r7, #4]
 800b0ac:	460b      	mov	r3, r1
 800b0ae:	807b      	strh	r3, [r7, #2]
  FLASH_Status status = FLASH_COMPLETE;
 800b0b0:	2304      	movs	r3, #4
 800b0b2:	73fb      	strb	r3, [r7, #15]
  /* Wait for last operation to be completed */
  status = FLASH_WaitForLastOperation(ProgramTimeout);
 800b0b4:	200f      	movs	r0, #15
 800b0b6:	f000 f85f 	bl	800b178 <FLASH_WaitForLastOperation>
 800b0ba:	4603      	mov	r3, r0
 800b0bc:	73fb      	strb	r3, [r7, #15]
  
  if(status == FLASH_COMPLETE)
 800b0be:	7bfb      	ldrb	r3, [r7, #15]
 800b0c0:	2b04      	cmp	r3, #4
 800b0c2:	d117      	bne.n	800b0f4 <FLASH_ProgramHalfWord+0x50>
  {
    /* if the previous operation is completed, proceed to program the new data */
    FLASH->CR |= CR_PG_Set;
 800b0c4:	4b0e      	ldr	r3, [pc, #56]	@ (800b100 <FLASH_ProgramHalfWord+0x5c>)
 800b0c6:	691b      	ldr	r3, [r3, #16]
 800b0c8:	4a0d      	ldr	r2, [pc, #52]	@ (800b100 <FLASH_ProgramHalfWord+0x5c>)
 800b0ca:	f043 0301 	orr.w	r3, r3, #1
 800b0ce:	6113      	str	r3, [r2, #16]
  
    *(__IO uint16_t*)Address = Data;
 800b0d0:	687b      	ldr	r3, [r7, #4]
 800b0d2:	887a      	ldrh	r2, [r7, #2]
 800b0d4:	801a      	strh	r2, [r3, #0]
    /* Wait for last operation to be completed */
    status = FLASH_WaitForLastOperation(ProgramTimeout);
 800b0d6:	200f      	movs	r0, #15
 800b0d8:	f000 f84e 	bl	800b178 <FLASH_WaitForLastOperation>
 800b0dc:	4603      	mov	r3, r0
 800b0de:	73fb      	strb	r3, [r7, #15]
    if(status != FLASH_TIMEOUT)
 800b0e0:	7bfb      	ldrb	r3, [r7, #15]
 800b0e2:	2b05      	cmp	r3, #5
 800b0e4:	d006      	beq.n	800b0f4 <FLASH_ProgramHalfWord+0x50>
    {
      /* if the program operation is completed, disable the PG Bit */
      FLASH->CR &= CR_PG_Reset;
 800b0e6:	4b06      	ldr	r3, [pc, #24]	@ (800b100 <FLASH_ProgramHalfWord+0x5c>)
 800b0e8:	691a      	ldr	r2, [r3, #16]
 800b0ea:	4905      	ldr	r1, [pc, #20]	@ (800b100 <FLASH_ProgramHalfWord+0x5c>)
 800b0ec:	f641 73fe 	movw	r3, #8190	@ 0x1ffe
 800b0f0:	4013      	ands	r3, r2
 800b0f2:	610b      	str	r3, [r1, #16]
    }
  } 
  /* Return the Program Status */
  return status;
 800b0f4:	7bfb      	ldrb	r3, [r7, #15]
}
 800b0f6:	4618      	mov	r0, r3
 800b0f8:	3710      	adds	r7, #16
 800b0fa:	46bd      	mov	sp, r7
 800b0fc:	bd80      	pop	{r7, pc}
 800b0fe:	bf00      	nop
 800b100:	40022000 	.word	0x40022000

0800b104 <FLASH_ClearFlag>:
  *     @arg FLASH_FLAG_WRPRTERR: FLASH Write protected error flag      
  *     @arg FLASH_FLAG_EOP: FLASH End of Operation flag           
  * @retval None
  */
void FLASH_ClearFlag(uint16_t FLASH_FLAG)
{
 800b104:	b480      	push	{r7}
 800b106:	b083      	sub	sp, #12
 800b108:	af00      	add	r7, sp, #0
 800b10a:	4603      	mov	r3, r0
 800b10c:	80fb      	strh	r3, [r7, #6]
  /* Clear the flags */
  FLASH->SR = FLASH_FLAG;
 800b10e:	4a04      	ldr	r2, [pc, #16]	@ (800b120 <FLASH_ClearFlag+0x1c>)
 800b110:	88fb      	ldrh	r3, [r7, #6]
 800b112:	60d3      	str	r3, [r2, #12]
}
 800b114:	bf00      	nop
 800b116:	370c      	adds	r7, #12
 800b118:	46bd      	mov	sp, r7
 800b11a:	bc80      	pop	{r7}
 800b11c:	4770      	bx	lr
 800b11e:	bf00      	nop
 800b120:	40022000 	.word	0x40022000

0800b124 <FLASH_GetStatus>:
  * @param  None
  * @retval FLASH Status: The returned value can be: FLASH_BUSY, FLASH_ERROR_PG,
  *   FLASH_ERROR_WRP or FLASH_COMPLETE
  */
FLASH_Status FLASH_GetStatus(void)
{
 800b124:	b480      	push	{r7}
 800b126:	b083      	sub	sp, #12
 800b128:	af00      	add	r7, sp, #0
  FLASH_Status flashstatus = FLASH_COMPLETE;
 800b12a:	2304      	movs	r3, #4
 800b12c:	71fb      	strb	r3, [r7, #7]
  
  if((FLASH->SR & FLASH_FLAG_BSY) == FLASH_FLAG_BSY) 
 800b12e:	4b11      	ldr	r3, [pc, #68]	@ (800b174 <FLASH_GetStatus+0x50>)
 800b130:	68db      	ldr	r3, [r3, #12]
 800b132:	f003 0301 	and.w	r3, r3, #1
 800b136:	2b01      	cmp	r3, #1
 800b138:	d102      	bne.n	800b140 <FLASH_GetStatus+0x1c>
  {
    flashstatus = FLASH_BUSY;
 800b13a:	2301      	movs	r3, #1
 800b13c:	71fb      	strb	r3, [r7, #7]
 800b13e:	e013      	b.n	800b168 <FLASH_GetStatus+0x44>
  }
  else 
  {  
    if((FLASH->SR & FLASH_FLAG_PGERR) != 0)
 800b140:	4b0c      	ldr	r3, [pc, #48]	@ (800b174 <FLASH_GetStatus+0x50>)
 800b142:	68db      	ldr	r3, [r3, #12]
 800b144:	f003 0304 	and.w	r3, r3, #4
 800b148:	2b00      	cmp	r3, #0
 800b14a:	d002      	beq.n	800b152 <FLASH_GetStatus+0x2e>
    { 
      flashstatus = FLASH_ERROR_PG;
 800b14c:	2302      	movs	r3, #2
 800b14e:	71fb      	strb	r3, [r7, #7]
 800b150:	e00a      	b.n	800b168 <FLASH_GetStatus+0x44>
    }
    else 
    {
      if((FLASH->SR & FLASH_FLAG_WRPRTERR) != 0 )
 800b152:	4b08      	ldr	r3, [pc, #32]	@ (800b174 <FLASH_GetStatus+0x50>)
 800b154:	68db      	ldr	r3, [r3, #12]
 800b156:	f003 0310 	and.w	r3, r3, #16
 800b15a:	2b00      	cmp	r3, #0
 800b15c:	d002      	beq.n	800b164 <FLASH_GetStatus+0x40>
      {
        flashstatus = FLASH_ERROR_WRP;
 800b15e:	2303      	movs	r3, #3
 800b160:	71fb      	strb	r3, [r7, #7]
 800b162:	e001      	b.n	800b168 <FLASH_GetStatus+0x44>
      }
      else
      {
        flashstatus = FLASH_COMPLETE;
 800b164:	2304      	movs	r3, #4
 800b166:	71fb      	strb	r3, [r7, #7]
      }
    }
  }
  /* Return the Flash Status */
  return flashstatus;
 800b168:	79fb      	ldrb	r3, [r7, #7]
}
 800b16a:	4618      	mov	r0, r3
 800b16c:	370c      	adds	r7, #12
 800b16e:	46bd      	mov	sp, r7
 800b170:	bc80      	pop	{r7}
 800b172:	4770      	bx	lr
 800b174:	40022000 	.word	0x40022000

0800b178 <FLASH_WaitForLastOperation>:
  * @param  Timeout: FLASH progamming Timeout
  * @retval FLASH Status: The returned value can be: FLASH_ERROR_PG,
  *   FLASH_ERROR_WRP, FLASH_COMPLETE or FLASH_TIMEOUT.
  */
FLASH_Status FLASH_WaitForLastOperation(uint32_t Timeout)
{ 
 800b178:	b580      	push	{r7, lr}
 800b17a:	b084      	sub	sp, #16
 800b17c:	af00      	add	r7, sp, #0
 800b17e:	6078      	str	r0, [r7, #4]
  FLASH_Status status = FLASH_COMPLETE;
 800b180:	2304      	movs	r3, #4
 800b182:	73fb      	strb	r3, [r7, #15]
   
  /* Check for the Flash Status */
  status = FLASH_GetStatus();
 800b184:	f7ff ffce 	bl	800b124 <FLASH_GetStatus>
 800b188:	4603      	mov	r3, r0
 800b18a:	73fb      	strb	r3, [r7, #15]
  /* Wait for a Flash operation to complete or a TIMEOUT to occur */
  while((status == FLASH_BUSY) && (Timeout != 0x00))
 800b18c:	e008      	b.n	800b1a0 <FLASH_WaitForLastOperation+0x28>
  {
    delay();
 800b18e:	f000 f817 	bl	800b1c0 <delay>
    status = FLASH_GetStatus();
 800b192:	f7ff ffc7 	bl	800b124 <FLASH_GetStatus>
 800b196:	4603      	mov	r3, r0
 800b198:	73fb      	strb	r3, [r7, #15]
    Timeout--;
 800b19a:	687b      	ldr	r3, [r7, #4]
 800b19c:	3b01      	subs	r3, #1
 800b19e:	607b      	str	r3, [r7, #4]
  while((status == FLASH_BUSY) && (Timeout != 0x00))
 800b1a0:	7bfb      	ldrb	r3, [r7, #15]
 800b1a2:	2b01      	cmp	r3, #1
 800b1a4:	d102      	bne.n	800b1ac <FLASH_WaitForLastOperation+0x34>
 800b1a6:	687b      	ldr	r3, [r7, #4]
 800b1a8:	2b00      	cmp	r3, #0
 800b1aa:	d1f0      	bne.n	800b18e <FLASH_WaitForLastOperation+0x16>
  }
  if(Timeout == 0x00 )
 800b1ac:	687b      	ldr	r3, [r7, #4]
 800b1ae:	2b00      	cmp	r3, #0
 800b1b0:	d101      	bne.n	800b1b6 <FLASH_WaitForLastOperation+0x3e>
  {
    status = FLASH_TIMEOUT;
 800b1b2:	2305      	movs	r3, #5
 800b1b4:	73fb      	strb	r3, [r7, #15]
  }
  /* Return the operation status */
  return status;
 800b1b6:	7bfb      	ldrb	r3, [r7, #15]
}
 800b1b8:	4618      	mov	r0, r3
 800b1ba:	3710      	adds	r7, #16
 800b1bc:	46bd      	mov	sp, r7
 800b1be:	bd80      	pop	{r7, pc}

0800b1c0 <delay>:
  * @brief  Inserts a time delay.
  * @param  None
  * @retval None
  */
static void delay(void)
{
 800b1c0:	b480      	push	{r7}
 800b1c2:	b083      	sub	sp, #12
 800b1c4:	af00      	add	r7, sp, #0
  __IO uint32_t i = 0;
 800b1c6:	2300      	movs	r3, #0
 800b1c8:	607b      	str	r3, [r7, #4]
  for(i = 0xFF; i != 0; i--)
 800b1ca:	23ff      	movs	r3, #255	@ 0xff
 800b1cc:	607b      	str	r3, [r7, #4]
 800b1ce:	e002      	b.n	800b1d6 <delay+0x16>
 800b1d0:	687b      	ldr	r3, [r7, #4]
 800b1d2:	3b01      	subs	r3, #1
 800b1d4:	607b      	str	r3, [r7, #4]
 800b1d6:	687b      	ldr	r3, [r7, #4]
 800b1d8:	2b00      	cmp	r3, #0
 800b1da:	d1f9      	bne.n	800b1d0 <delay+0x10>
  {
  }
}
 800b1dc:	bf00      	nop
 800b1de:	bf00      	nop
 800b1e0:	370c      	adds	r7, #12
 800b1e2:	46bd      	mov	sp, r7
 800b1e4:	bc80      	pop	{r7}
 800b1e6:	4770      	bx	lr

0800b1e8 <GPIO_Init>:
  * @param  GPIO_InitStruct: pointer to a GPIO_InitTypeDef structure that
  *   contains the configuration information for the specified GPIO peripheral.
  * @retval None
  */
void GPIO_Init(GPIO_TypeDef* GPIOx, GPIO_InitTypeDef* GPIO_InitStruct)
{
 800b1e8:	b480      	push	{r7}
 800b1ea:	b089      	sub	sp, #36	@ 0x24
 800b1ec:	af00      	add	r7, sp, #0
 800b1ee:	6078      	str	r0, [r7, #4]
 800b1f0:	6039      	str	r1, [r7, #0]
  uint32_t currentmode = 0x00, currentpin = 0x00, pinpos = 0x00, pos = 0x00;
 800b1f2:	2300      	movs	r3, #0
 800b1f4:	61fb      	str	r3, [r7, #28]
 800b1f6:	2300      	movs	r3, #0
 800b1f8:	613b      	str	r3, [r7, #16]
 800b1fa:	2300      	movs	r3, #0
 800b1fc:	61bb      	str	r3, [r7, #24]
 800b1fe:	2300      	movs	r3, #0
 800b200:	60fb      	str	r3, [r7, #12]
  uint32_t tmpreg = 0x00, pinmask = 0x00;
 800b202:	2300      	movs	r3, #0
 800b204:	617b      	str	r3, [r7, #20]
 800b206:	2300      	movs	r3, #0
 800b208:	60bb      	str	r3, [r7, #8]
  /* Check the parameters */
  
/*---------------------------- GPIO Mode Configuration -----------------------*/
  currentmode = ((uint32_t)GPIO_InitStruct->GPIO_Mode) & ((uint32_t)0x0F);
 800b20a:	683b      	ldr	r3, [r7, #0]
 800b20c:	78db      	ldrb	r3, [r3, #3]
 800b20e:	f003 030f 	and.w	r3, r3, #15
 800b212:	61fb      	str	r3, [r7, #28]
  if ((((uint32_t)GPIO_InitStruct->GPIO_Mode) & ((uint32_t)0x10)) != 0x00)
 800b214:	683b      	ldr	r3, [r7, #0]
 800b216:	78db      	ldrb	r3, [r3, #3]
 800b218:	f003 0310 	and.w	r3, r3, #16
 800b21c:	2b00      	cmp	r3, #0
 800b21e:	d005      	beq.n	800b22c <GPIO_Init+0x44>
  { 
    /* Output mode */
    currentmode |= (uint32_t)GPIO_InitStruct->GPIO_Speed;
 800b220:	683b      	ldr	r3, [r7, #0]
 800b222:	789b      	ldrb	r3, [r3, #2]
 800b224:	461a      	mov	r2, r3
 800b226:	69fb      	ldr	r3, [r7, #28]
 800b228:	4313      	orrs	r3, r2
 800b22a:	61fb      	str	r3, [r7, #28]
  }
/*---------------------------- GPIO CRL Configuration ------------------------*/
  /* Configure the eight low port pins */
  if (((uint32_t)GPIO_InitStruct->GPIO_Pin & ((uint32_t)0x00FF)) != 0x00)
 800b22c:	683b      	ldr	r3, [r7, #0]
 800b22e:	881b      	ldrh	r3, [r3, #0]
 800b230:	b2db      	uxtb	r3, r3
 800b232:	2b00      	cmp	r3, #0
 800b234:	d044      	beq.n	800b2c0 <GPIO_Init+0xd8>
  {
    tmpreg = GPIOx->CRL;
 800b236:	687b      	ldr	r3, [r7, #4]
 800b238:	681b      	ldr	r3, [r3, #0]
 800b23a:	617b      	str	r3, [r7, #20]
    for (pinpos = 0x00; pinpos < 0x08; pinpos++)
 800b23c:	2300      	movs	r3, #0
 800b23e:	61bb      	str	r3, [r7, #24]
 800b240:	e038      	b.n	800b2b4 <GPIO_Init+0xcc>
    {
      pos = ((uint32_t)0x01) << pinpos;
 800b242:	2201      	movs	r2, #1
 800b244:	69bb      	ldr	r3, [r7, #24]
 800b246:	fa02 f303 	lsl.w	r3, r2, r3
 800b24a:	60fb      	str	r3, [r7, #12]
      /* Get the port pins position */
      currentpin = (GPIO_InitStruct->GPIO_Pin) & pos;
 800b24c:	683b      	ldr	r3, [r7, #0]
 800b24e:	881b      	ldrh	r3, [r3, #0]
 800b250:	461a      	mov	r2, r3
 800b252:	68fb      	ldr	r3, [r7, #12]
 800b254:	4013      	ands	r3, r2
 800b256:	613b      	str	r3, [r7, #16]
      if (currentpin == pos)
 800b258:	693a      	ldr	r2, [r7, #16]
 800b25a:	68fb      	ldr	r3, [r7, #12]
 800b25c:	429a      	cmp	r2, r3
 800b25e:	d126      	bne.n	800b2ae <GPIO_Init+0xc6>
      {
        pos = pinpos << 2;
 800b260:	69bb      	ldr	r3, [r7, #24]
 800b262:	009b      	lsls	r3, r3, #2
 800b264:	60fb      	str	r3, [r7, #12]
        /* Clear the corresponding low control register bits */
        pinmask = ((uint32_t)0x0F) << pos;
 800b266:	220f      	movs	r2, #15
 800b268:	68fb      	ldr	r3, [r7, #12]
 800b26a:	fa02 f303 	lsl.w	r3, r2, r3
 800b26e:	60bb      	str	r3, [r7, #8]
        tmpreg &= ~pinmask;
 800b270:	68bb      	ldr	r3, [r7, #8]
 800b272:	43db      	mvns	r3, r3
 800b274:	697a      	ldr	r2, [r7, #20]
 800b276:	4013      	ands	r3, r2
 800b278:	617b      	str	r3, [r7, #20]
        /* Write the mode configuration in the corresponding bits */
        tmpreg |= (currentmode << pos);
 800b27a:	69fa      	ldr	r2, [r7, #28]
 800b27c:	68fb      	ldr	r3, [r7, #12]
 800b27e:	fa02 f303 	lsl.w	r3, r2, r3
 800b282:	697a      	ldr	r2, [r7, #20]
 800b284:	4313      	orrs	r3, r2
 800b286:	617b      	str	r3, [r7, #20]
        /* Reset the corresponding ODR bit */
        if (GPIO_InitStruct->GPIO_Mode == GPIO_Mode_IPD)
 800b288:	683b      	ldr	r3, [r7, #0]
 800b28a:	78db      	ldrb	r3, [r3, #3]
 800b28c:	2b28      	cmp	r3, #40	@ 0x28
 800b28e:	d105      	bne.n	800b29c <GPIO_Init+0xb4>
        {
          GPIOx->BRR = (((uint32_t)0x01) << pinpos);
 800b290:	2201      	movs	r2, #1
 800b292:	69bb      	ldr	r3, [r7, #24]
 800b294:	409a      	lsls	r2, r3
 800b296:	687b      	ldr	r3, [r7, #4]
 800b298:	615a      	str	r2, [r3, #20]
 800b29a:	e008      	b.n	800b2ae <GPIO_Init+0xc6>
        }
        else
        {
          /* Set the corresponding ODR bit */
          if (GPIO_InitStruct->GPIO_Mode == GPIO_Mode_IPU)
 800b29c:	683b      	ldr	r3, [r7, #0]
 800b29e:	78db      	ldrb	r3, [r3, #3]
 800b2a0:	2b48      	cmp	r3, #72	@ 0x48
 800b2a2:	d104      	bne.n	800b2ae <GPIO_Init+0xc6>
          {
            GPIOx->BSRR = (((uint32_t)0x01) << pinpos);
 800b2a4:	2201      	movs	r2, #1
 800b2a6:	69bb      	ldr	r3, [r7, #24]
 800b2a8:	409a      	lsls	r2, r3
 800b2aa:	687b      	ldr	r3, [r7, #4]
 800b2ac:	611a      	str	r2, [r3, #16]
    for (pinpos = 0x00; pinpos < 0x08; pinpos++)
 800b2ae:	69bb      	ldr	r3, [r7, #24]
 800b2b0:	3301      	adds	r3, #1
 800b2b2:	61bb      	str	r3, [r7, #24]
 800b2b4:	69bb      	ldr	r3, [r7, #24]
 800b2b6:	2b07      	cmp	r3, #7
 800b2b8:	d9c3      	bls.n	800b242 <GPIO_Init+0x5a>
          }
        }
      }
    }
    GPIOx->CRL = tmpreg;
 800b2ba:	687b      	ldr	r3, [r7, #4]
 800b2bc:	697a      	ldr	r2, [r7, #20]
 800b2be:	601a      	str	r2, [r3, #0]
  }
/*---------------------------- GPIO CRH Configuration ------------------------*/
  /* Configure the eight high port pins */
  if (GPIO_InitStruct->GPIO_Pin > 0x00FF)
 800b2c0:	683b      	ldr	r3, [r7, #0]
 800b2c2:	881b      	ldrh	r3, [r3, #0]
 800b2c4:	2bff      	cmp	r3, #255	@ 0xff
 800b2c6:	d946      	bls.n	800b356 <GPIO_Init+0x16e>
  {
    tmpreg = GPIOx->CRH;
 800b2c8:	687b      	ldr	r3, [r7, #4]
 800b2ca:	685b      	ldr	r3, [r3, #4]
 800b2cc:	617b      	str	r3, [r7, #20]
    for (pinpos = 0x00; pinpos < 0x08; pinpos++)
 800b2ce:	2300      	movs	r3, #0
 800b2d0:	61bb      	str	r3, [r7, #24]
 800b2d2:	e03a      	b.n	800b34a <GPIO_Init+0x162>
    {
      pos = (((uint32_t)0x01) << (pinpos + 0x08));
 800b2d4:	69bb      	ldr	r3, [r7, #24]
 800b2d6:	3308      	adds	r3, #8
 800b2d8:	2201      	movs	r2, #1
 800b2da:	fa02 f303 	lsl.w	r3, r2, r3
 800b2de:	60fb      	str	r3, [r7, #12]
      /* Get the port pins position */
      currentpin = ((GPIO_InitStruct->GPIO_Pin) & pos);
 800b2e0:	683b      	ldr	r3, [r7, #0]
 800b2e2:	881b      	ldrh	r3, [r3, #0]
 800b2e4:	461a      	mov	r2, r3
 800b2e6:	68fb      	ldr	r3, [r7, #12]
 800b2e8:	4013      	ands	r3, r2
 800b2ea:	613b      	str	r3, [r7, #16]
      if (currentpin == pos)
 800b2ec:	693a      	ldr	r2, [r7, #16]
 800b2ee:	68fb      	ldr	r3, [r7, #12]
 800b2f0:	429a      	cmp	r2, r3
 800b2f2:	d127      	bne.n	800b344 <GPIO_Init+0x15c>
      {
        pos = pinpos << 2;
 800b2f4:	69bb      	ldr	r3, [r7, #24]
 800b2f6:	009b      	lsls	r3, r3, #2
 800b2f8:	60fb      	str	r3, [r7, #12]
        /* Clear the corresponding high control register bits */
        pinmask = ((uint32_t)0x0F) << pos;
 800b2fa:	220f      	movs	r2, #15
 800b2fc:	68fb      	ldr	r3, [r7, #12]
 800b2fe:	fa02 f303 	lsl.w	r3, r2, r3
 800b302:	60bb      	str	r3, [r7, #8]
        tmpreg &= ~pinmask;
 800b304:	68bb      	ldr	r3, [r7, #8]
 800b306:	43db      	mvns	r3, r3
 800b308:	697a      	ldr	r2, [r7, #20]
 800b30a:	4013      	ands	r3, r2
 800b30c:	617b      	str	r3, [r7, #20]
        /* Write the mode configuration in the corresponding bits */
        tmpreg |= (currentmode << pos);
 800b30e:	69fa      	ldr	r2, [r7, #28]
 800b310:	68fb      	ldr	r3, [r7, #12]
 800b312:	fa02 f303 	lsl.w	r3, r2, r3
 800b316:	697a      	ldr	r2, [r7, #20]
 800b318:	4313      	orrs	r3, r2
 800b31a:	617b      	str	r3, [r7, #20]
        /* Reset the corresponding ODR bit */
        if (GPIO_InitStruct->GPIO_Mode == GPIO_Mode_IPD)
 800b31c:	683b      	ldr	r3, [r7, #0]
 800b31e:	78db      	ldrb	r3, [r3, #3]
 800b320:	2b28      	cmp	r3, #40	@ 0x28
 800b322:	d105      	bne.n	800b330 <GPIO_Init+0x148>
        {
          GPIOx->BRR = (((uint32_t)0x01) << (pinpos + 0x08));
 800b324:	69bb      	ldr	r3, [r7, #24]
 800b326:	3308      	adds	r3, #8
 800b328:	2201      	movs	r2, #1
 800b32a:	409a      	lsls	r2, r3
 800b32c:	687b      	ldr	r3, [r7, #4]
 800b32e:	615a      	str	r2, [r3, #20]
        }
        /* Set the corresponding ODR bit */
        if (GPIO_InitStruct->GPIO_Mode == GPIO_Mode_IPU)
 800b330:	683b      	ldr	r3, [r7, #0]
 800b332:	78db      	ldrb	r3, [r3, #3]
 800b334:	2b48      	cmp	r3, #72	@ 0x48
 800b336:	d105      	bne.n	800b344 <GPIO_Init+0x15c>
        {
          GPIOx->BSRR = (((uint32_t)0x01) << (pinpos + 0x08));
 800b338:	69bb      	ldr	r3, [r7, #24]
 800b33a:	3308      	adds	r3, #8
 800b33c:	2201      	movs	r2, #1
 800b33e:	409a      	lsls	r2, r3
 800b340:	687b      	ldr	r3, [r7, #4]
 800b342:	611a      	str	r2, [r3, #16]
    for (pinpos = 0x00; pinpos < 0x08; pinpos++)
 800b344:	69bb      	ldr	r3, [r7, #24]
 800b346:	3301      	adds	r3, #1
 800b348:	61bb      	str	r3, [r7, #24]
 800b34a:	69bb      	ldr	r3, [r7, #24]
 800b34c:	2b07      	cmp	r3, #7
 800b34e:	d9c1      	bls.n	800b2d4 <GPIO_Init+0xec>
        }
      }
    }
    GPIOx->CRH = tmpreg;
 800b350:	687b      	ldr	r3, [r7, #4]
 800b352:	697a      	ldr	r2, [r7, #20]
 800b354:	605a      	str	r2, [r3, #4]
  }
}
 800b356:	bf00      	nop
 800b358:	3724      	adds	r7, #36	@ 0x24
 800b35a:	46bd      	mov	sp, r7
 800b35c:	bc80      	pop	{r7}
 800b35e:	4770      	bx	lr

0800b360 <GPIO_StructInit>:
  * @param  GPIO_InitStruct : pointer to a GPIO_InitTypeDef structure which will
  *   be initialized.
  * @retval None
  */
void GPIO_StructInit(GPIO_InitTypeDef* GPIO_InitStruct)
{
 800b360:	b480      	push	{r7}
 800b362:	b083      	sub	sp, #12
 800b364:	af00      	add	r7, sp, #0
 800b366:	6078      	str	r0, [r7, #4]
  /* Reset GPIO init structure parameters values */
  GPIO_InitStruct->GPIO_Pin  = GPIO_Pin_All;
 800b368:	687b      	ldr	r3, [r7, #4]
 800b36a:	f64f 72ff 	movw	r2, #65535	@ 0xffff
 800b36e:	801a      	strh	r2, [r3, #0]
  GPIO_InitStruct->GPIO_Speed = GPIO_Speed_2MHz;
 800b370:	687b      	ldr	r3, [r7, #4]
 800b372:	2202      	movs	r2, #2
 800b374:	709a      	strb	r2, [r3, #2]
  GPIO_InitStruct->GPIO_Mode = GPIO_Mode_IN_FLOATING;
 800b376:	687b      	ldr	r3, [r7, #4]
 800b378:	2204      	movs	r2, #4
 800b37a:	70da      	strb	r2, [r3, #3]
}
 800b37c:	bf00      	nop
 800b37e:	370c      	adds	r7, #12
 800b380:	46bd      	mov	sp, r7
 800b382:	bc80      	pop	{r7}
 800b384:	4770      	bx	lr

0800b386 <GPIO_ReadInputDataBit>:
  * @param  GPIO_Pin:  specifies the port bit to read.
  *   This parameter can be GPIO_Pin_x where x can be (0..15).
  * @retval The input port pin value.
  */
uint8_t GPIO_ReadInputDataBit(GPIO_TypeDef* GPIOx, uint16_t GPIO_Pin)
{
 800b386:	b480      	push	{r7}
 800b388:	b085      	sub	sp, #20
 800b38a:	af00      	add	r7, sp, #0
 800b38c:	6078      	str	r0, [r7, #4]
 800b38e:	460b      	mov	r3, r1
 800b390:	807b      	strh	r3, [r7, #2]
  uint8_t bitstatus = 0x00;
 800b392:	2300      	movs	r3, #0
 800b394:	73fb      	strb	r3, [r7, #15]
  
  if ((GPIOx->IDR & GPIO_Pin) != (uint32_t)Bit_RESET)
 800b396:	687b      	ldr	r3, [r7, #4]
 800b398:	689a      	ldr	r2, [r3, #8]
 800b39a:	887b      	ldrh	r3, [r7, #2]
 800b39c:	4013      	ands	r3, r2
 800b39e:	2b00      	cmp	r3, #0
 800b3a0:	d002      	beq.n	800b3a8 <GPIO_ReadInputDataBit+0x22>
  {
    bitstatus = (uint8_t)Bit_SET;
 800b3a2:	2301      	movs	r3, #1
 800b3a4:	73fb      	strb	r3, [r7, #15]
 800b3a6:	e001      	b.n	800b3ac <GPIO_ReadInputDataBit+0x26>
  }
  else
  {
    bitstatus = (uint8_t)Bit_RESET;
 800b3a8:	2300      	movs	r3, #0
 800b3aa:	73fb      	strb	r3, [r7, #15]
  }
  return bitstatus;
 800b3ac:	7bfb      	ldrb	r3, [r7, #15]
}
 800b3ae:	4618      	mov	r0, r3
 800b3b0:	3714      	adds	r7, #20
 800b3b2:	46bd      	mov	sp, r7
 800b3b4:	bc80      	pop	{r7}
 800b3b6:	4770      	bx	lr

0800b3b8 <GPIO_ReadInputData>:
  * @brief  Reads the specified GPIO input data port.
  * @param  GPIOx: where x can be (A..G) to select the GPIO peripheral.
  * @retval GPIO input data port value.
  */
uint16_t GPIO_ReadInputData(GPIO_TypeDef* GPIOx)
{
 800b3b8:	b480      	push	{r7}
 800b3ba:	b083      	sub	sp, #12
 800b3bc:	af00      	add	r7, sp, #0
 800b3be:	6078      	str	r0, [r7, #4]
  return ((uint16_t)GPIOx->IDR);
 800b3c0:	687b      	ldr	r3, [r7, #4]
 800b3c2:	689b      	ldr	r3, [r3, #8]
 800b3c4:	b29b      	uxth	r3, r3
}
 800b3c6:	4618      	mov	r0, r3
 800b3c8:	370c      	adds	r7, #12
 800b3ca:	46bd      	mov	sp, r7
 800b3cc:	bc80      	pop	{r7}
 800b3ce:	4770      	bx	lr

0800b3d0 <GPIO_ReadOutputDataBit>:
  * @param  GPIO_Pin:  specifies the port bit to read.
  *   This parameter can be GPIO_Pin_x where x can be (0..15).
  * @retval The output port pin value.
  */
uint8_t GPIO_ReadOutputDataBit(GPIO_TypeDef* GPIOx, uint16_t GPIO_Pin)
{
 800b3d0:	b480      	push	{r7}
 800b3d2:	b085      	sub	sp, #20
 800b3d4:	af00      	add	r7, sp, #0
 800b3d6:	6078      	str	r0, [r7, #4]
 800b3d8:	460b      	mov	r3, r1
 800b3da:	807b      	strh	r3, [r7, #2]
  uint8_t bitstatus = 0x00;
 800b3dc:	2300      	movs	r3, #0
 800b3de:	73fb      	strb	r3, [r7, #15]
  if ((GPIOx->ODR & GPIO_Pin) != (uint32_t)Bit_RESET)
 800b3e0:	687b      	ldr	r3, [r7, #4]
 800b3e2:	68da      	ldr	r2, [r3, #12]
 800b3e4:	887b      	ldrh	r3, [r7, #2]
 800b3e6:	4013      	ands	r3, r2
 800b3e8:	2b00      	cmp	r3, #0
 800b3ea:	d002      	beq.n	800b3f2 <GPIO_ReadOutputDataBit+0x22>
  {
    bitstatus = (uint8_t)Bit_SET;
 800b3ec:	2301      	movs	r3, #1
 800b3ee:	73fb      	strb	r3, [r7, #15]
 800b3f0:	e001      	b.n	800b3f6 <GPIO_ReadOutputDataBit+0x26>
  }
  else
  {
    bitstatus = (uint8_t)Bit_RESET;
 800b3f2:	2300      	movs	r3, #0
 800b3f4:	73fb      	strb	r3, [r7, #15]
  }
  return bitstatus;
 800b3f6:	7bfb      	ldrb	r3, [r7, #15]
}
 800b3f8:	4618      	mov	r0, r3
 800b3fa:	3714      	adds	r7, #20
 800b3fc:	46bd      	mov	sp, r7
 800b3fe:	bc80      	pop	{r7}
 800b400:	4770      	bx	lr

0800b402 <GPIO_SetBits>:
  * @param  GPIO_Pin: specifies the port bits to be written.
  *   This parameter can be any combination of GPIO_Pin_x where x can be (0..15).
  * @retval None
  */
void GPIO_SetBits(GPIO_TypeDef* GPIOx, uint16_t GPIO_Pin)
{
 800b402:	b480      	push	{r7}
 800b404:	b083      	sub	sp, #12
 800b406:	af00      	add	r7, sp, #0
 800b408:	6078      	str	r0, [r7, #4]
 800b40a:	460b      	mov	r3, r1
 800b40c:	807b      	strh	r3, [r7, #2]
  GPIOx->BSRR = GPIO_Pin;
 800b40e:	887a      	ldrh	r2, [r7, #2]
 800b410:	687b      	ldr	r3, [r7, #4]
 800b412:	611a      	str	r2, [r3, #16]
}
 800b414:	bf00      	nop
 800b416:	370c      	adds	r7, #12
 800b418:	46bd      	mov	sp, r7
 800b41a:	bc80      	pop	{r7}
 800b41c:	4770      	bx	lr

0800b41e <GPIO_ResetBits>:
  * @param  GPIO_Pin: specifies the port bits to be written.
  *   This parameter can be any combination of GPIO_Pin_x where x can be (0..15).
  * @retval None
  */
void GPIO_ResetBits(GPIO_TypeDef* GPIOx, uint16_t GPIO_Pin)
{
 800b41e:	b480      	push	{r7}
 800b420:	b083      	sub	sp, #12
 800b422:	af00      	add	r7, sp, #0
 800b424:	6078      	str	r0, [r7, #4]
 800b426:	460b      	mov	r3, r1
 800b428:	807b      	strh	r3, [r7, #2]
  GPIOx->BRR = GPIO_Pin;
 800b42a:	887a      	ldrh	r2, [r7, #2]
 800b42c:	687b      	ldr	r3, [r7, #4]
 800b42e:	615a      	str	r2, [r3, #20]
}
 800b430:	bf00      	nop
 800b432:	370c      	adds	r7, #12
 800b434:	46bd      	mov	sp, r7
 800b436:	bc80      	pop	{r7}
 800b438:	4770      	bx	lr

0800b43a <GPIO_WriteBit>:
  *     @arg Bit_RESET: to clear the port pin
  *     @arg Bit_SET: to set the port pin
  * @retval None
  */
void GPIO_WriteBit(GPIO_TypeDef* GPIOx, uint16_t GPIO_Pin, BitAction BitVal)
{
 800b43a:	b480      	push	{r7}
 800b43c:	b083      	sub	sp, #12
 800b43e:	af00      	add	r7, sp, #0
 800b440:	6078      	str	r0, [r7, #4]
 800b442:	460b      	mov	r3, r1
 800b444:	807b      	strh	r3, [r7, #2]
 800b446:	4613      	mov	r3, r2
 800b448:	707b      	strb	r3, [r7, #1]
  if (BitVal != Bit_RESET)
 800b44a:	787b      	ldrb	r3, [r7, #1]
 800b44c:	2b00      	cmp	r3, #0
 800b44e:	d003      	beq.n	800b458 <GPIO_WriteBit+0x1e>
  {
    GPIOx->BSRR = GPIO_Pin;
 800b450:	887a      	ldrh	r2, [r7, #2]
 800b452:	687b      	ldr	r3, [r7, #4]
 800b454:	611a      	str	r2, [r3, #16]
  }
  else
  {
    GPIOx->BRR = GPIO_Pin;
  }
}
 800b456:	e002      	b.n	800b45e <GPIO_WriteBit+0x24>
    GPIOx->BRR = GPIO_Pin;
 800b458:	887a      	ldrh	r2, [r7, #2]
 800b45a:	687b      	ldr	r3, [r7, #4]
 800b45c:	615a      	str	r2, [r3, #20]
}
 800b45e:	bf00      	nop
 800b460:	370c      	adds	r7, #12
 800b462:	46bd      	mov	sp, r7
 800b464:	bc80      	pop	{r7}
 800b466:	4770      	bx	lr

0800b468 <GPIO_PinRemapConfig>:
  * @param  NewState: new state of the port pin remapping.
  *   This parameter can be: ENABLE or DISABLE.
  * @retval None
  */
void GPIO_PinRemapConfig(uint32_t GPIO_Remap, FunctionalState NewState)
{
 800b468:	b480      	push	{r7}
 800b46a:	b087      	sub	sp, #28
 800b46c:	af00      	add	r7, sp, #0
 800b46e:	6078      	str	r0, [r7, #4]
 800b470:	460b      	mov	r3, r1
 800b472:	70fb      	strb	r3, [r7, #3]
  uint32_t tmp = 0x00, tmp1 = 0x00, tmpreg = 0x00, tmpmask = 0x00;
 800b474:	2300      	movs	r3, #0
 800b476:	613b      	str	r3, [r7, #16]
 800b478:	2300      	movs	r3, #0
 800b47a:	60fb      	str	r3, [r7, #12]
 800b47c:	2300      	movs	r3, #0
 800b47e:	617b      	str	r3, [r7, #20]
 800b480:	2300      	movs	r3, #0
 800b482:	60bb      	str	r3, [r7, #8]

  tmpreg = AFIO->MAPR;
 800b484:	4b28      	ldr	r3, [pc, #160]	@ (800b528 <GPIO_PinRemapConfig+0xc0>)
 800b486:	685b      	ldr	r3, [r3, #4]
 800b488:	617b      	str	r3, [r7, #20]

  tmpmask = (GPIO_Remap & DBGAFR_POSITION_MASK) >> 0x10;
 800b48a:	687b      	ldr	r3, [r7, #4]
 800b48c:	0c1b      	lsrs	r3, r3, #16
 800b48e:	f003 030f 	and.w	r3, r3, #15
 800b492:	60bb      	str	r3, [r7, #8]
  tmp = GPIO_Remap & LSB_MASK;
 800b494:	687b      	ldr	r3, [r7, #4]
 800b496:	b29b      	uxth	r3, r3
 800b498:	613b      	str	r3, [r7, #16]

  if ((GPIO_Remap & (DBGAFR_LOCATION_MASK | DBGAFR_NUMBITS_MASK)) == (DBGAFR_LOCATION_MASK | DBGAFR_NUMBITS_MASK))
 800b49a:	687b      	ldr	r3, [r7, #4]
 800b49c:	f403 1340 	and.w	r3, r3, #3145728	@ 0x300000
 800b4a0:	f5b3 1f40 	cmp.w	r3, #3145728	@ 0x300000
 800b4a4:	d10a      	bne.n	800b4bc <GPIO_PinRemapConfig+0x54>
  {
    tmpreg &= DBGAFR_SWJCFG_MASK;
 800b4a6:	697b      	ldr	r3, [r7, #20]
 800b4a8:	f023 6370 	bic.w	r3, r3, #251658240	@ 0xf000000
 800b4ac:	617b      	str	r3, [r7, #20]
    AFIO->MAPR &= DBGAFR_SWJCFG_MASK;
 800b4ae:	4b1e      	ldr	r3, [pc, #120]	@ (800b528 <GPIO_PinRemapConfig+0xc0>)
 800b4b0:	685b      	ldr	r3, [r3, #4]
 800b4b2:	4a1d      	ldr	r2, [pc, #116]	@ (800b528 <GPIO_PinRemapConfig+0xc0>)
 800b4b4:	f023 6370 	bic.w	r3, r3, #251658240	@ 0xf000000
 800b4b8:	6053      	str	r3, [r2, #4]
 800b4ba:	e021      	b.n	800b500 <GPIO_PinRemapConfig+0x98>
  }
  else if ((GPIO_Remap & DBGAFR_NUMBITS_MASK) == DBGAFR_NUMBITS_MASK)
 800b4bc:	687b      	ldr	r3, [r7, #4]
 800b4be:	f403 1380 	and.w	r3, r3, #1048576	@ 0x100000
 800b4c2:	2b00      	cmp	r3, #0
 800b4c4:	d00e      	beq.n	800b4e4 <GPIO_PinRemapConfig+0x7c>
  {
    tmp1 = ((uint32_t)0x03) << tmpmask;
 800b4c6:	2203      	movs	r2, #3
 800b4c8:	68bb      	ldr	r3, [r7, #8]
 800b4ca:	fa02 f303 	lsl.w	r3, r2, r3
 800b4ce:	60fb      	str	r3, [r7, #12]
    tmpreg &= ~tmp1;
 800b4d0:	68fb      	ldr	r3, [r7, #12]
 800b4d2:	43db      	mvns	r3, r3
 800b4d4:	697a      	ldr	r2, [r7, #20]
 800b4d6:	4013      	ands	r3, r2
 800b4d8:	617b      	str	r3, [r7, #20]
    tmpreg |= ~DBGAFR_SWJCFG_MASK;
 800b4da:	697b      	ldr	r3, [r7, #20]
 800b4dc:	f043 6370 	orr.w	r3, r3, #251658240	@ 0xf000000
 800b4e0:	617b      	str	r3, [r7, #20]
 800b4e2:	e00d      	b.n	800b500 <GPIO_PinRemapConfig+0x98>
  }
  else
  {
    tmpreg &= ~(tmp << ((GPIO_Remap >> 0x15)*0x10));
 800b4e4:	687b      	ldr	r3, [r7, #4]
 800b4e6:	0d5b      	lsrs	r3, r3, #21
 800b4e8:	011b      	lsls	r3, r3, #4
 800b4ea:	693a      	ldr	r2, [r7, #16]
 800b4ec:	fa02 f303 	lsl.w	r3, r2, r3
 800b4f0:	43db      	mvns	r3, r3
 800b4f2:	697a      	ldr	r2, [r7, #20]
 800b4f4:	4013      	ands	r3, r2
 800b4f6:	617b      	str	r3, [r7, #20]
    tmpreg |= ~DBGAFR_SWJCFG_MASK;
 800b4f8:	697b      	ldr	r3, [r7, #20]
 800b4fa:	f043 6370 	orr.w	r3, r3, #251658240	@ 0xf000000
 800b4fe:	617b      	str	r3, [r7, #20]
  }

  if (NewState != DISABLE)
 800b500:	78fb      	ldrb	r3, [r7, #3]
 800b502:	2b00      	cmp	r3, #0
 800b504:	d008      	beq.n	800b518 <GPIO_PinRemapConfig+0xb0>
  {
    tmpreg |= (tmp << ((GPIO_Remap >> 0x15)*0x10));
 800b506:	687b      	ldr	r3, [r7, #4]
 800b508:	0d5b      	lsrs	r3, r3, #21
 800b50a:	011b      	lsls	r3, r3, #4
 800b50c:	693a      	ldr	r2, [r7, #16]
 800b50e:	fa02 f303 	lsl.w	r3, r2, r3
 800b512:	697a      	ldr	r2, [r7, #20]
 800b514:	4313      	orrs	r3, r2
 800b516:	617b      	str	r3, [r7, #20]
  }

  AFIO->MAPR = tmpreg;
 800b518:	4a03      	ldr	r2, [pc, #12]	@ (800b528 <GPIO_PinRemapConfig+0xc0>)
 800b51a:	697b      	ldr	r3, [r7, #20]
 800b51c:	6053      	str	r3, [r2, #4]
}
 800b51e:	bf00      	nop
 800b520:	371c      	adds	r7, #28
 800b522:	46bd      	mov	sp, r7
 800b524:	bc80      	pop	{r7}
 800b526:	4770      	bx	lr
 800b528:	40010000 	.word	0x40010000

0800b52c <GPIO_ETH_MediaInterfaceConfig>:
  *     @arg GPIO_ETH_MediaInterface_MII: MII mode
  *     @arg GPIO_ETH_MediaInterface_RMII: RMII mode    
  * @retval None
  */
void GPIO_ETH_MediaInterfaceConfig(uint32_t GPIO_ETH_MediaInterface)
{
 800b52c:	b480      	push	{r7}
 800b52e:	b083      	sub	sp, #12
 800b530:	af00      	add	r7, sp, #0
 800b532:	6078      	str	r0, [r7, #4]
  /* Configure MII_RMII selection bit */ 
  *(__IO uint32_t *) MAPR_MII_RMII_SEL_BB = GPIO_ETH_MediaInterface; 
 800b534:	4a03      	ldr	r2, [pc, #12]	@ (800b544 <GPIO_ETH_MediaInterfaceConfig+0x18>)
 800b536:	687b      	ldr	r3, [r7, #4]
 800b538:	6013      	str	r3, [r2, #0]
}
 800b53a:	bf00      	nop
 800b53c:	370c      	adds	r7, #12
 800b53e:	46bd      	mov	sp, r7
 800b540:	bc80      	pop	{r7}
 800b542:	4770      	bx	lr
 800b544:	422000dc 	.word	0x422000dc

0800b548 <I2C_DeInit>:
  * @brief  Deinitializes the I2Cx peripheral registers to their default reset values.
  * @param  I2Cx: where x can be 1 or 2 to select the I2C peripheral.
  * @retval None
  */
void I2C_DeInit(I2C_TypeDef* I2Cx)
{
 800b548:	b580      	push	{r7, lr}
 800b54a:	b082      	sub	sp, #8
 800b54c:	af00      	add	r7, sp, #0
 800b54e:	6078      	str	r0, [r7, #4]
  /* Check the parameters */
  assert_param(IS_I2C_ALL_PERIPH(I2Cx));

  if (I2Cx == I2C1)
 800b550:	687b      	ldr	r3, [r7, #4]
 800b552:	4a0e      	ldr	r2, [pc, #56]	@ (800b58c <I2C_DeInit+0x44>)
 800b554:	4293      	cmp	r3, r2
 800b556:	d10a      	bne.n	800b56e <I2C_DeInit+0x26>
  {
    /* Enable I2C1 reset state */
    RCC_APB1PeriphResetCmd(RCC_APB1Periph_I2C1, ENABLE);
 800b558:	2101      	movs	r1, #1
 800b55a:	f44f 1000 	mov.w	r0, #2097152	@ 0x200000
 800b55e:	f000 fbb9 	bl	800bcd4 <RCC_APB1PeriphResetCmd>
    /* Release I2C1 from reset state */
    RCC_APB1PeriphResetCmd(RCC_APB1Periph_I2C1, DISABLE);
 800b562:	2100      	movs	r1, #0
 800b564:	f44f 1000 	mov.w	r0, #2097152	@ 0x200000
 800b568:	f000 fbb4 	bl	800bcd4 <RCC_APB1PeriphResetCmd>
    /* Enable I2C2 reset state */
    RCC_APB1PeriphResetCmd(RCC_APB1Periph_I2C2, ENABLE);
    /* Release I2C2 from reset state */
    RCC_APB1PeriphResetCmd(RCC_APB1Periph_I2C2, DISABLE);
  }
}
 800b56c:	e009      	b.n	800b582 <I2C_DeInit+0x3a>
    RCC_APB1PeriphResetCmd(RCC_APB1Periph_I2C2, ENABLE);
 800b56e:	2101      	movs	r1, #1
 800b570:	f44f 0080 	mov.w	r0, #4194304	@ 0x400000
 800b574:	f000 fbae 	bl	800bcd4 <RCC_APB1PeriphResetCmd>
    RCC_APB1PeriphResetCmd(RCC_APB1Periph_I2C2, DISABLE);
 800b578:	2100      	movs	r1, #0
 800b57a:	f44f 0080 	mov.w	r0, #4194304	@ 0x400000
 800b57e:	f000 fba9 	bl	800bcd4 <RCC_APB1PeriphResetCmd>
}
 800b582:	bf00      	nop
 800b584:	3708      	adds	r7, #8
 800b586:	46bd      	mov	sp, r7
 800b588:	bd80      	pop	{r7, pc}
 800b58a:	bf00      	nop
 800b58c:	40005400 	.word	0x40005400

0800b590 <I2C_Init>:
  * @param  I2C_InitStruct: pointer to a I2C_InitTypeDef structure that
  *   contains the configuration information for the specified I2C peripheral.
  * @retval None
  */
void I2C_Init(I2C_TypeDef* I2Cx, I2C_InitTypeDef* I2C_InitStruct)
{
 800b590:	b580      	push	{r7, lr}
 800b592:	b08a      	sub	sp, #40	@ 0x28
 800b594:	af00      	add	r7, sp, #0
 800b596:	6078      	str	r0, [r7, #4]
 800b598:	6039      	str	r1, [r7, #0]
  uint16_t tmpreg = 0, freqrange = 0;
 800b59a:	2300      	movs	r3, #0
 800b59c:	84fb      	strh	r3, [r7, #38]	@ 0x26
 800b59e:	2300      	movs	r3, #0
 800b5a0:	847b      	strh	r3, [r7, #34]	@ 0x22
  uint16_t result = 0x04;
 800b5a2:	2304      	movs	r3, #4
 800b5a4:	84bb      	strh	r3, [r7, #36]	@ 0x24
  uint32_t pclk1 = 8000000;
 800b5a6:	4b57      	ldr	r3, [pc, #348]	@ (800b704 <I2C_Init+0x174>)
 800b5a8:	61fb      	str	r3, [r7, #28]
  assert_param(IS_I2C_ACK_STATE(I2C_InitStruct->I2C_Ack));
  assert_param(IS_I2C_ACKNOWLEDGE_ADDRESS(I2C_InitStruct->I2C_AcknowledgedAddress));

/*---------------------------- I2Cx CR2 Configuration ------------------------*/
  /* Get the I2Cx CR2 value */
  tmpreg = I2Cx->CR2;
 800b5aa:	687b      	ldr	r3, [r7, #4]
 800b5ac:	889b      	ldrh	r3, [r3, #4]
 800b5ae:	84fb      	strh	r3, [r7, #38]	@ 0x26
  /* Clear frequency FREQ[5:0] bits */
  tmpreg &= CR2_FREQ_Reset;
 800b5b0:	8cfb      	ldrh	r3, [r7, #38]	@ 0x26
 800b5b2:	f023 033f 	bic.w	r3, r3, #63	@ 0x3f
 800b5b6:	84fb      	strh	r3, [r7, #38]	@ 0x26
  /* Get pclk1 frequency value */
  RCC_GetClocksFreq(&rcc_clocks);
 800b5b8:	f107 0308 	add.w	r3, r7, #8
 800b5bc:	4618      	mov	r0, r3
 800b5be:	f000 fa27 	bl	800ba10 <RCC_GetClocksFreq>
  pclk1 = rcc_clocks.PCLK1_Frequency;
 800b5c2:	693b      	ldr	r3, [r7, #16]
 800b5c4:	61fb      	str	r3, [r7, #28]
  /* Set frequency bits depending on pclk1 value */
  freqrange = (uint16_t)(pclk1 / 1000000);
 800b5c6:	69fb      	ldr	r3, [r7, #28]
 800b5c8:	4a4f      	ldr	r2, [pc, #316]	@ (800b708 <I2C_Init+0x178>)
 800b5ca:	fba2 2303 	umull	r2, r3, r2, r3
 800b5ce:	0c9b      	lsrs	r3, r3, #18
 800b5d0:	847b      	strh	r3, [r7, #34]	@ 0x22
  tmpreg |= freqrange;
 800b5d2:	8cfa      	ldrh	r2, [r7, #38]	@ 0x26
 800b5d4:	8c7b      	ldrh	r3, [r7, #34]	@ 0x22
 800b5d6:	4313      	orrs	r3, r2
 800b5d8:	84fb      	strh	r3, [r7, #38]	@ 0x26
  /* Write to I2Cx CR2 */
  I2Cx->CR2 = tmpreg;
 800b5da:	687b      	ldr	r3, [r7, #4]
 800b5dc:	8cfa      	ldrh	r2, [r7, #38]	@ 0x26
 800b5de:	809a      	strh	r2, [r3, #4]

/*---------------------------- I2Cx CCR Configuration ------------------------*/
  /* Disable the selected I2C peripheral to configure TRISE */
  I2Cx->CR1 &= CR1_PE_Reset;
 800b5e0:	687b      	ldr	r3, [r7, #4]
 800b5e2:	881b      	ldrh	r3, [r3, #0]
 800b5e4:	b29b      	uxth	r3, r3
 800b5e6:	f023 0301 	bic.w	r3, r3, #1
 800b5ea:	b29a      	uxth	r2, r3
 800b5ec:	687b      	ldr	r3, [r7, #4]
 800b5ee:	801a      	strh	r2, [r3, #0]
  /* Reset tmpreg value */
  /* Clear F/S, DUTY and CCR[11:0] bits */
  tmpreg = 0;
 800b5f0:	2300      	movs	r3, #0
 800b5f2:	84fb      	strh	r3, [r7, #38]	@ 0x26

  /* Configure speed in standard mode */
  if (I2C_InitStruct->I2C_ClockSpeed <= 100000)
 800b5f4:	683b      	ldr	r3, [r7, #0]
 800b5f6:	681b      	ldr	r3, [r3, #0]
 800b5f8:	4a44      	ldr	r2, [pc, #272]	@ (800b70c <I2C_Init+0x17c>)
 800b5fa:	4293      	cmp	r3, r2
 800b5fc:	d815      	bhi.n	800b62a <I2C_Init+0x9a>
  {
    /* Standard mode speed calculate */
    result = (uint16_t)(pclk1 / (I2C_InitStruct->I2C_ClockSpeed << 1));
 800b5fe:	683b      	ldr	r3, [r7, #0]
 800b600:	681b      	ldr	r3, [r3, #0]
 800b602:	005b      	lsls	r3, r3, #1
 800b604:	69fa      	ldr	r2, [r7, #28]
 800b606:	fbb2 f3f3 	udiv	r3, r2, r3
 800b60a:	84bb      	strh	r3, [r7, #36]	@ 0x24
    /* Test if CCR value is under 0x4*/
    if (result < 0x04)
 800b60c:	8cbb      	ldrh	r3, [r7, #36]	@ 0x24
 800b60e:	2b03      	cmp	r3, #3
 800b610:	d801      	bhi.n	800b616 <I2C_Init+0x86>
    {
      /* Set minimum allowed value */
      result = 0x04;  
 800b612:	2304      	movs	r3, #4
 800b614:	84bb      	strh	r3, [r7, #36]	@ 0x24
    }
    /* Set speed value for standard mode */
    tmpreg |= result;	  
 800b616:	8cfa      	ldrh	r2, [r7, #38]	@ 0x26
 800b618:	8cbb      	ldrh	r3, [r7, #36]	@ 0x24
 800b61a:	4313      	orrs	r3, r2
 800b61c:	84fb      	strh	r3, [r7, #38]	@ 0x26
    /* Set Maximum Rise Time for standard mode */
    I2Cx->TRISE = freqrange + 1; 
 800b61e:	8c7b      	ldrh	r3, [r7, #34]	@ 0x22
 800b620:	3301      	adds	r3, #1
 800b622:	b29a      	uxth	r2, r3
 800b624:	687b      	ldr	r3, [r7, #4]
 800b626:	841a      	strh	r2, [r3, #32]
 800b628:	e040      	b.n	800b6ac <I2C_Init+0x11c>
  }
  /* Configure speed in fast mode */
  else /*(I2C_InitStruct->I2C_ClockSpeed <= 400000)*/
  {
    if (I2C_InitStruct->I2C_DutyCycle == I2C_DutyCycle_2)
 800b62a:	683b      	ldr	r3, [r7, #0]
 800b62c:	88db      	ldrh	r3, [r3, #6]
 800b62e:	f64b 72ff 	movw	r2, #49151	@ 0xbfff
 800b632:	4293      	cmp	r3, r2
 800b634:	d109      	bne.n	800b64a <I2C_Init+0xba>
    {
      /* Fast mode speed calculate: Tlow/Thigh = 2 */
      result = (uint16_t)(pclk1 / (I2C_InitStruct->I2C_ClockSpeed * 3));
 800b636:	683b      	ldr	r3, [r7, #0]
 800b638:	681a      	ldr	r2, [r3, #0]
 800b63a:	4613      	mov	r3, r2
 800b63c:	005b      	lsls	r3, r3, #1
 800b63e:	4413      	add	r3, r2
 800b640:	69fa      	ldr	r2, [r7, #28]
 800b642:	fbb2 f3f3 	udiv	r3, r2, r3
 800b646:	84bb      	strh	r3, [r7, #36]	@ 0x24
 800b648:	e00e      	b.n	800b668 <I2C_Init+0xd8>
    }
    else /*I2C_InitStruct->I2C_DutyCycle == I2C_DutyCycle_16_9*/
    {
      /* Fast mode speed calculate: Tlow/Thigh = 16/9 */
      result = (uint16_t)(pclk1 / (I2C_InitStruct->I2C_ClockSpeed * 25));
 800b64a:	683b      	ldr	r3, [r7, #0]
 800b64c:	681a      	ldr	r2, [r3, #0]
 800b64e:	4613      	mov	r3, r2
 800b650:	009b      	lsls	r3, r3, #2
 800b652:	4413      	add	r3, r2
 800b654:	009a      	lsls	r2, r3, #2
 800b656:	4413      	add	r3, r2
 800b658:	69fa      	ldr	r2, [r7, #28]
 800b65a:	fbb2 f3f3 	udiv	r3, r2, r3
 800b65e:	84bb      	strh	r3, [r7, #36]	@ 0x24
      /* Set DUTY bit */
      result |= I2C_DutyCycle_16_9;
 800b660:	8cbb      	ldrh	r3, [r7, #36]	@ 0x24
 800b662:	f443 4380 	orr.w	r3, r3, #16384	@ 0x4000
 800b666:	84bb      	strh	r3, [r7, #36]	@ 0x24
    }

    /* Test if CCR value is under 0x1*/
    if ((result & CCR_CCR_Set) == 0)
 800b668:	8cbb      	ldrh	r3, [r7, #36]	@ 0x24
 800b66a:	f3c3 030b 	ubfx	r3, r3, #0, #12
 800b66e:	2b00      	cmp	r3, #0
 800b670:	d103      	bne.n	800b67a <I2C_Init+0xea>
    {
      /* Set minimum allowed value */
      result |= (uint16_t)0x0001;  
 800b672:	8cbb      	ldrh	r3, [r7, #36]	@ 0x24
 800b674:	f043 0301 	orr.w	r3, r3, #1
 800b678:	84bb      	strh	r3, [r7, #36]	@ 0x24
    }
    /* Set speed value and set F/S bit for fast mode */
    tmpreg |= (uint16_t)(result | CCR_FS_Set);
 800b67a:	8cba      	ldrh	r2, [r7, #36]	@ 0x24
 800b67c:	8cfb      	ldrh	r3, [r7, #38]	@ 0x26
 800b67e:	4313      	orrs	r3, r2
 800b680:	b29b      	uxth	r3, r3
 800b682:	ea6f 4343 	mvn.w	r3, r3, lsl #17
 800b686:	ea6f 4353 	mvn.w	r3, r3, lsr #17
 800b68a:	84fb      	strh	r3, [r7, #38]	@ 0x26
    /* Set Maximum Rise Time for fast mode */
    I2Cx->TRISE = (uint16_t)(((freqrange * (uint16_t)300) / (uint16_t)1000) + (uint16_t)1);  
 800b68c:	8c7b      	ldrh	r3, [r7, #34]	@ 0x22
 800b68e:	f44f 7296 	mov.w	r2, #300	@ 0x12c
 800b692:	fb02 f303 	mul.w	r3, r2, r3
 800b696:	4a1e      	ldr	r2, [pc, #120]	@ (800b710 <I2C_Init+0x180>)
 800b698:	fb82 1203 	smull	r1, r2, r2, r3
 800b69c:	1192      	asrs	r2, r2, #6
 800b69e:	17db      	asrs	r3, r3, #31
 800b6a0:	1ad3      	subs	r3, r2, r3
 800b6a2:	b29b      	uxth	r3, r3
 800b6a4:	3301      	adds	r3, #1
 800b6a6:	b29a      	uxth	r2, r3
 800b6a8:	687b      	ldr	r3, [r7, #4]
 800b6aa:	841a      	strh	r2, [r3, #32]
  }

  /* Write to I2Cx CCR */
  I2Cx->CCR = tmpreg;
 800b6ac:	687b      	ldr	r3, [r7, #4]
 800b6ae:	8cfa      	ldrh	r2, [r7, #38]	@ 0x26
 800b6b0:	839a      	strh	r2, [r3, #28]
  /* Enable the selected I2C peripheral */
  I2Cx->CR1 |= CR1_PE_Set;
 800b6b2:	687b      	ldr	r3, [r7, #4]
 800b6b4:	881b      	ldrh	r3, [r3, #0]
 800b6b6:	b29b      	uxth	r3, r3
 800b6b8:	f043 0301 	orr.w	r3, r3, #1
 800b6bc:	b29a      	uxth	r2, r3
 800b6be:	687b      	ldr	r3, [r7, #4]
 800b6c0:	801a      	strh	r2, [r3, #0]

/*---------------------------- I2Cx CR1 Configuration ------------------------*/
  /* Get the I2Cx CR1 value */
  tmpreg = I2Cx->CR1;
 800b6c2:	687b      	ldr	r3, [r7, #4]
 800b6c4:	881b      	ldrh	r3, [r3, #0]
 800b6c6:	84fb      	strh	r3, [r7, #38]	@ 0x26
  /* Clear ACK, SMBTYPE and  SMBUS bits */
  tmpreg &= CR1_CLEAR_Mask;
 800b6c8:	8cfb      	ldrh	r3, [r7, #38]	@ 0x26
 800b6ca:	f423 6381 	bic.w	r3, r3, #1032	@ 0x408
 800b6ce:	f023 0302 	bic.w	r3, r3, #2
 800b6d2:	84fb      	strh	r3, [r7, #38]	@ 0x26
  /* Configure I2Cx: mode and acknowledgement */
  /* Set SMBTYPE and SMBUS bits according to I2C_Mode value */
  /* Set ACK bit according to I2C_Ack value */
  tmpreg |= (uint16_t)((uint32_t)I2C_InitStruct->I2C_Mode | I2C_InitStruct->I2C_Ack);
 800b6d4:	683b      	ldr	r3, [r7, #0]
 800b6d6:	889a      	ldrh	r2, [r3, #4]
 800b6d8:	683b      	ldr	r3, [r7, #0]
 800b6da:	895b      	ldrh	r3, [r3, #10]
 800b6dc:	4313      	orrs	r3, r2
 800b6de:	b29a      	uxth	r2, r3
 800b6e0:	8cfb      	ldrh	r3, [r7, #38]	@ 0x26
 800b6e2:	4313      	orrs	r3, r2
 800b6e4:	84fb      	strh	r3, [r7, #38]	@ 0x26
  /* Write to I2Cx CR1 */
  I2Cx->CR1 = tmpreg;
 800b6e6:	687b      	ldr	r3, [r7, #4]
 800b6e8:	8cfa      	ldrh	r2, [r7, #38]	@ 0x26
 800b6ea:	801a      	strh	r2, [r3, #0]

/*---------------------------- I2Cx OAR1 Configuration -----------------------*/
  /* Set I2Cx Own Address1 and acknowledged address */
  I2Cx->OAR1 = (I2C_InitStruct->I2C_AcknowledgedAddress | I2C_InitStruct->I2C_OwnAddress1);
 800b6ec:	683b      	ldr	r3, [r7, #0]
 800b6ee:	899a      	ldrh	r2, [r3, #12]
 800b6f0:	683b      	ldr	r3, [r7, #0]
 800b6f2:	891b      	ldrh	r3, [r3, #8]
 800b6f4:	4313      	orrs	r3, r2
 800b6f6:	b29a      	uxth	r2, r3
 800b6f8:	687b      	ldr	r3, [r7, #4]
 800b6fa:	811a      	strh	r2, [r3, #8]
}
 800b6fc:	bf00      	nop
 800b6fe:	3728      	adds	r7, #40	@ 0x28
 800b700:	46bd      	mov	sp, r7
 800b702:	bd80      	pop	{r7, pc}
 800b704:	007a1200 	.word	0x007a1200
 800b708:	431bde83 	.word	0x431bde83
 800b70c:	000186a0 	.word	0x000186a0
 800b710:	10624dd3 	.word	0x10624dd3

0800b714 <I2C_StructInit>:
  * @brief  Fills each I2C_InitStruct member with its default value.
  * @param  I2C_InitStruct: pointer to an I2C_InitTypeDef structure which will be initialized.
  * @retval None
  */
void I2C_StructInit(I2C_InitTypeDef* I2C_InitStruct)
{
 800b714:	b480      	push	{r7}
 800b716:	b083      	sub	sp, #12
 800b718:	af00      	add	r7, sp, #0
 800b71a:	6078      	str	r0, [r7, #4]
/*---------------- Reset I2C init structure parameters values ----------------*/
  /* initialize the I2C_ClockSpeed member */
  I2C_InitStruct->I2C_ClockSpeed = 5000;
 800b71c:	687b      	ldr	r3, [r7, #4]
 800b71e:	f241 3288 	movw	r2, #5000	@ 0x1388
 800b722:	601a      	str	r2, [r3, #0]
  /* Initialize the I2C_Mode member */
  I2C_InitStruct->I2C_Mode = I2C_Mode_I2C;
 800b724:	687b      	ldr	r3, [r7, #4]
 800b726:	2200      	movs	r2, #0
 800b728:	809a      	strh	r2, [r3, #4]
  /* Initialize the I2C_DutyCycle member */
  I2C_InitStruct->I2C_DutyCycle = I2C_DutyCycle_2;
 800b72a:	687b      	ldr	r3, [r7, #4]
 800b72c:	f64b 72ff 	movw	r2, #49151	@ 0xbfff
 800b730:	80da      	strh	r2, [r3, #6]
  /* Initialize the I2C_OwnAddress1 member */
  I2C_InitStruct->I2C_OwnAddress1 = 0;
 800b732:	687b      	ldr	r3, [r7, #4]
 800b734:	2200      	movs	r2, #0
 800b736:	811a      	strh	r2, [r3, #8]
  /* Initialize the I2C_Ack member */
  I2C_InitStruct->I2C_Ack = I2C_Ack_Disable;
 800b738:	687b      	ldr	r3, [r7, #4]
 800b73a:	2200      	movs	r2, #0
 800b73c:	815a      	strh	r2, [r3, #10]
  /* Initialize the I2C_AcknowledgedAddress member */
  I2C_InitStruct->I2C_AcknowledgedAddress = I2C_AcknowledgedAddress_7bit;
 800b73e:	687b      	ldr	r3, [r7, #4]
 800b740:	f44f 4280 	mov.w	r2, #16384	@ 0x4000
 800b744:	819a      	strh	r2, [r3, #12]
}
 800b746:	bf00      	nop
 800b748:	370c      	adds	r7, #12
 800b74a:	46bd      	mov	sp, r7
 800b74c:	bc80      	pop	{r7}
 800b74e:	4770      	bx	lr

0800b750 <I2C_Cmd>:
  * @param  NewState: new state of the I2Cx peripheral. 
  *   This parameter can be: ENABLE or DISABLE.
  * @retval None
  */
void I2C_Cmd(I2C_TypeDef* I2Cx, FunctionalState NewState)
{
 800b750:	b480      	push	{r7}
 800b752:	b083      	sub	sp, #12
 800b754:	af00      	add	r7, sp, #0
 800b756:	6078      	str	r0, [r7, #4]
 800b758:	460b      	mov	r3, r1
 800b75a:	70fb      	strb	r3, [r7, #3]
  /* Check the parameters */
  assert_param(IS_I2C_ALL_PERIPH(I2Cx));
  assert_param(IS_FUNCTIONAL_STATE(NewState));
  if (NewState != DISABLE)
 800b75c:	78fb      	ldrb	r3, [r7, #3]
 800b75e:	2b00      	cmp	r3, #0
 800b760:	d008      	beq.n	800b774 <I2C_Cmd+0x24>
  {
    /* Enable the selected I2C peripheral */
    I2Cx->CR1 |= CR1_PE_Set;
 800b762:	687b      	ldr	r3, [r7, #4]
 800b764:	881b      	ldrh	r3, [r3, #0]
 800b766:	b29b      	uxth	r3, r3
 800b768:	f043 0301 	orr.w	r3, r3, #1
 800b76c:	b29a      	uxth	r2, r3
 800b76e:	687b      	ldr	r3, [r7, #4]
 800b770:	801a      	strh	r2, [r3, #0]
  else
  {
    /* Disable the selected I2C peripheral */
    I2Cx->CR1 &= CR1_PE_Reset;
  }
}
 800b772:	e007      	b.n	800b784 <I2C_Cmd+0x34>
    I2Cx->CR1 &= CR1_PE_Reset;
 800b774:	687b      	ldr	r3, [r7, #4]
 800b776:	881b      	ldrh	r3, [r3, #0]
 800b778:	b29b      	uxth	r3, r3
 800b77a:	f023 0301 	bic.w	r3, r3, #1
 800b77e:	b29a      	uxth	r2, r3
 800b780:	687b      	ldr	r3, [r7, #4]
 800b782:	801a      	strh	r2, [r3, #0]
}
 800b784:	bf00      	nop
 800b786:	370c      	adds	r7, #12
 800b788:	46bd      	mov	sp, r7
 800b78a:	bc80      	pop	{r7}
 800b78c:	4770      	bx	lr

0800b78e <I2C_GenerateSTART>:
  * @param  NewState: new state of the I2C START condition generation.
  *   This parameter can be: ENABLE or DISABLE.
  * @retval None.
  */
void I2C_GenerateSTART(I2C_TypeDef* I2Cx, FunctionalState NewState)
{
 800b78e:	b480      	push	{r7}
 800b790:	b083      	sub	sp, #12
 800b792:	af00      	add	r7, sp, #0
 800b794:	6078      	str	r0, [r7, #4]
 800b796:	460b      	mov	r3, r1
 800b798:	70fb      	strb	r3, [r7, #3]
  /* Check the parameters */
  assert_param(IS_I2C_ALL_PERIPH(I2Cx));
  assert_param(IS_FUNCTIONAL_STATE(NewState));
  if (NewState != DISABLE)
 800b79a:	78fb      	ldrb	r3, [r7, #3]
 800b79c:	2b00      	cmp	r3, #0
 800b79e:	d008      	beq.n	800b7b2 <I2C_GenerateSTART+0x24>
  {
    /* Generate a START condition */
    I2Cx->CR1 |= CR1_START_Set;
 800b7a0:	687b      	ldr	r3, [r7, #4]
 800b7a2:	881b      	ldrh	r3, [r3, #0]
 800b7a4:	b29b      	uxth	r3, r3
 800b7a6:	f443 7380 	orr.w	r3, r3, #256	@ 0x100
 800b7aa:	b29a      	uxth	r2, r3
 800b7ac:	687b      	ldr	r3, [r7, #4]
 800b7ae:	801a      	strh	r2, [r3, #0]
  else
  {
    /* Disable the START condition generation */
    I2Cx->CR1 &= CR1_START_Reset;
  }
}
 800b7b0:	e007      	b.n	800b7c2 <I2C_GenerateSTART+0x34>
    I2Cx->CR1 &= CR1_START_Reset;
 800b7b2:	687b      	ldr	r3, [r7, #4]
 800b7b4:	881b      	ldrh	r3, [r3, #0]
 800b7b6:	b29b      	uxth	r3, r3
 800b7b8:	f423 7380 	bic.w	r3, r3, #256	@ 0x100
 800b7bc:	b29a      	uxth	r2, r3
 800b7be:	687b      	ldr	r3, [r7, #4]
 800b7c0:	801a      	strh	r2, [r3, #0]
}
 800b7c2:	bf00      	nop
 800b7c4:	370c      	adds	r7, #12
 800b7c6:	46bd      	mov	sp, r7
 800b7c8:	bc80      	pop	{r7}
 800b7ca:	4770      	bx	lr

0800b7cc <I2C_GenerateSTOP>:
  * @param  NewState: new state of the I2C STOP condition generation.
  *   This parameter can be: ENABLE or DISABLE.
  * @retval None.
  */
void I2C_GenerateSTOP(I2C_TypeDef* I2Cx, FunctionalState NewState)
{
 800b7cc:	b480      	push	{r7}
 800b7ce:	b083      	sub	sp, #12
 800b7d0:	af00      	add	r7, sp, #0
 800b7d2:	6078      	str	r0, [r7, #4]
 800b7d4:	460b      	mov	r3, r1
 800b7d6:	70fb      	strb	r3, [r7, #3]
  /* Check the parameters */
  assert_param(IS_I2C_ALL_PERIPH(I2Cx));
  assert_param(IS_FUNCTIONAL_STATE(NewState));
  if (NewState != DISABLE)
 800b7d8:	78fb      	ldrb	r3, [r7, #3]
 800b7da:	2b00      	cmp	r3, #0
 800b7dc:	d008      	beq.n	800b7f0 <I2C_GenerateSTOP+0x24>
  {
    /* Generate a STOP condition */
    I2Cx->CR1 |= CR1_STOP_Set;
 800b7de:	687b      	ldr	r3, [r7, #4]
 800b7e0:	881b      	ldrh	r3, [r3, #0]
 800b7e2:	b29b      	uxth	r3, r3
 800b7e4:	f443 7300 	orr.w	r3, r3, #512	@ 0x200
 800b7e8:	b29a      	uxth	r2, r3
 800b7ea:	687b      	ldr	r3, [r7, #4]
 800b7ec:	801a      	strh	r2, [r3, #0]
  else
  {
    /* Disable the STOP condition generation */
    I2Cx->CR1 &= CR1_STOP_Reset;
  }
}
 800b7ee:	e007      	b.n	800b800 <I2C_GenerateSTOP+0x34>
    I2Cx->CR1 &= CR1_STOP_Reset;
 800b7f0:	687b      	ldr	r3, [r7, #4]
 800b7f2:	881b      	ldrh	r3, [r3, #0]
 800b7f4:	b29b      	uxth	r3, r3
 800b7f6:	f423 7300 	bic.w	r3, r3, #512	@ 0x200
 800b7fa:	b29a      	uxth	r2, r3
 800b7fc:	687b      	ldr	r3, [r7, #4]
 800b7fe:	801a      	strh	r2, [r3, #0]
}
 800b800:	bf00      	nop
 800b802:	370c      	adds	r7, #12
 800b804:	46bd      	mov	sp, r7
 800b806:	bc80      	pop	{r7}
 800b808:	4770      	bx	lr

0800b80a <I2C_AcknowledgeConfig>:
  * @param  NewState: new state of the I2C Acknowledgement.
  *   This parameter can be: ENABLE or DISABLE.
  * @retval None.
  */
void I2C_AcknowledgeConfig(I2C_TypeDef* I2Cx, FunctionalState NewState)
{
 800b80a:	b480      	push	{r7}
 800b80c:	b083      	sub	sp, #12
 800b80e:	af00      	add	r7, sp, #0
 800b810:	6078      	str	r0, [r7, #4]
 800b812:	460b      	mov	r3, r1
 800b814:	70fb      	strb	r3, [r7, #3]
  /* Check the parameters */
  assert_param(IS_I2C_ALL_PERIPH(I2Cx));
  assert_param(IS_FUNCTIONAL_STATE(NewState));
  if (NewState != DISABLE)
 800b816:	78fb      	ldrb	r3, [r7, #3]
 800b818:	2b00      	cmp	r3, #0
 800b81a:	d008      	beq.n	800b82e <I2C_AcknowledgeConfig+0x24>
  {
    /* Enable the acknowledgement */
    I2Cx->CR1 |= CR1_ACK_Set;
 800b81c:	687b      	ldr	r3, [r7, #4]
 800b81e:	881b      	ldrh	r3, [r3, #0]
 800b820:	b29b      	uxth	r3, r3
 800b822:	f443 6380 	orr.w	r3, r3, #1024	@ 0x400
 800b826:	b29a      	uxth	r2, r3
 800b828:	687b      	ldr	r3, [r7, #4]
 800b82a:	801a      	strh	r2, [r3, #0]
  else
  {
    /* Disable the acknowledgement */
    I2Cx->CR1 &= CR1_ACK_Reset;
  }
}
 800b82c:	e007      	b.n	800b83e <I2C_AcknowledgeConfig+0x34>
    I2Cx->CR1 &= CR1_ACK_Reset;
 800b82e:	687b      	ldr	r3, [r7, #4]
 800b830:	881b      	ldrh	r3, [r3, #0]
 800b832:	b29b      	uxth	r3, r3
 800b834:	f423 6380 	bic.w	r3, r3, #1024	@ 0x400
 800b838:	b29a      	uxth	r2, r3
 800b83a:	687b      	ldr	r3, [r7, #4]
 800b83c:	801a      	strh	r2, [r3, #0]
}
 800b83e:	bf00      	nop
 800b840:	370c      	adds	r7, #12
 800b842:	46bd      	mov	sp, r7
 800b844:	bc80      	pop	{r7}
 800b846:	4770      	bx	lr

0800b848 <I2C_ITConfig>:
  * @param  NewState: new state of the specified I2C interrupts.
  *   This parameter can be: ENABLE or DISABLE.
  * @retval None
  */
void I2C_ITConfig(I2C_TypeDef* I2Cx, uint16_t I2C_IT, FunctionalState NewState)
{
 800b848:	b480      	push	{r7}
 800b84a:	b083      	sub	sp, #12
 800b84c:	af00      	add	r7, sp, #0
 800b84e:	6078      	str	r0, [r7, #4]
 800b850:	460b      	mov	r3, r1
 800b852:	807b      	strh	r3, [r7, #2]
 800b854:	4613      	mov	r3, r2
 800b856:	707b      	strb	r3, [r7, #1]
  /* Check the parameters */
  assert_param(IS_I2C_ALL_PERIPH(I2Cx));
  assert_param(IS_FUNCTIONAL_STATE(NewState));
  assert_param(IS_I2C_CONFIG_IT(I2C_IT));
  
  if (NewState != DISABLE)
 800b858:	787b      	ldrb	r3, [r7, #1]
 800b85a:	2b00      	cmp	r3, #0
 800b85c:	d008      	beq.n	800b870 <I2C_ITConfig+0x28>
  {
    /* Enable the selected I2C interrupts */
    I2Cx->CR2 |= I2C_IT;
 800b85e:	687b      	ldr	r3, [r7, #4]
 800b860:	889b      	ldrh	r3, [r3, #4]
 800b862:	b29a      	uxth	r2, r3
 800b864:	887b      	ldrh	r3, [r7, #2]
 800b866:	4313      	orrs	r3, r2
 800b868:	b29a      	uxth	r2, r3
 800b86a:	687b      	ldr	r3, [r7, #4]
 800b86c:	809a      	strh	r2, [r3, #4]
  else
  {
    /* Disable the selected I2C interrupts */
    I2Cx->CR2 &= (uint16_t)~I2C_IT;
  }
}
 800b86e:	e009      	b.n	800b884 <I2C_ITConfig+0x3c>
    I2Cx->CR2 &= (uint16_t)~I2C_IT;
 800b870:	687b      	ldr	r3, [r7, #4]
 800b872:	889b      	ldrh	r3, [r3, #4]
 800b874:	b29a      	uxth	r2, r3
 800b876:	887b      	ldrh	r3, [r7, #2]
 800b878:	43db      	mvns	r3, r3
 800b87a:	b29b      	uxth	r3, r3
 800b87c:	4013      	ands	r3, r2
 800b87e:	b29a      	uxth	r2, r3
 800b880:	687b      	ldr	r3, [r7, #4]
 800b882:	809a      	strh	r2, [r3, #4]
}
 800b884:	bf00      	nop
 800b886:	370c      	adds	r7, #12
 800b888:	46bd      	mov	sp, r7
 800b88a:	bc80      	pop	{r7}
 800b88c:	4770      	bx	lr

0800b88e <I2C_SendData>:
  * @param  I2Cx: where x can be 1 or 2 to select the I2C peripheral.
  * @param  Data: Byte to be transmitted..
  * @retval None
  */
void I2C_SendData(I2C_TypeDef* I2Cx, uint8_t Data)
{
 800b88e:	b480      	push	{r7}
 800b890:	b083      	sub	sp, #12
 800b892:	af00      	add	r7, sp, #0
 800b894:	6078      	str	r0, [r7, #4]
 800b896:	460b      	mov	r3, r1
 800b898:	70fb      	strb	r3, [r7, #3]
  /* Check the parameters */
  assert_param(IS_I2C_ALL_PERIPH(I2Cx));
  /* Write in the DR register the data to be sent */
  I2Cx->DR = Data;
 800b89a:	78fb      	ldrb	r3, [r7, #3]
 800b89c:	b29a      	uxth	r2, r3
 800b89e:	687b      	ldr	r3, [r7, #4]
 800b8a0:	821a      	strh	r2, [r3, #16]
}
 800b8a2:	bf00      	nop
 800b8a4:	370c      	adds	r7, #12
 800b8a6:	46bd      	mov	sp, r7
 800b8a8:	bc80      	pop	{r7}
 800b8aa:	4770      	bx	lr

0800b8ac <I2C_ReceiveData>:
  * @brief  Returns the most recent received data by the I2Cx peripheral.
  * @param  I2Cx: where x can be 1 or 2 to select the I2C peripheral.
  * @retval The value of the received data.
  */
uint8_t I2C_ReceiveData(I2C_TypeDef* I2Cx)
{
 800b8ac:	b480      	push	{r7}
 800b8ae:	b083      	sub	sp, #12
 800b8b0:	af00      	add	r7, sp, #0
 800b8b2:	6078      	str	r0, [r7, #4]
  /* Check the parameters */
  assert_param(IS_I2C_ALL_PERIPH(I2Cx));
  /* Return the data in the DR register */
  return (uint8_t)I2Cx->DR;
 800b8b4:	687b      	ldr	r3, [r7, #4]
 800b8b6:	8a1b      	ldrh	r3, [r3, #16]
 800b8b8:	b29b      	uxth	r3, r3
 800b8ba:	b2db      	uxtb	r3, r3
}
 800b8bc:	4618      	mov	r0, r3
 800b8be:	370c      	adds	r7, #12
 800b8c0:	46bd      	mov	sp, r7
 800b8c2:	bc80      	pop	{r7}
 800b8c4:	4770      	bx	lr

0800b8c6 <I2C_Send7bitAddress>:
  *     @arg I2C_Direction_Transmitter: Transmitter mode
  *     @arg I2C_Direction_Receiver: Receiver mode
  * @retval None.
  */
void I2C_Send7bitAddress(I2C_TypeDef* I2Cx, uint8_t Address, uint8_t I2C_Direction)
{
 800b8c6:	b480      	push	{r7}
 800b8c8:	b083      	sub	sp, #12
 800b8ca:	af00      	add	r7, sp, #0
 800b8cc:	6078      	str	r0, [r7, #4]
 800b8ce:	460b      	mov	r3, r1
 800b8d0:	70fb      	strb	r3, [r7, #3]
 800b8d2:	4613      	mov	r3, r2
 800b8d4:	70bb      	strb	r3, [r7, #2]
  /* Check the parameters */
  assert_param(IS_I2C_ALL_PERIPH(I2Cx));
  assert_param(IS_I2C_DIRECTION(I2C_Direction));
  /* Test on the direction to set/reset the read/write bit */
  if (I2C_Direction != I2C_Direction_Transmitter)
 800b8d6:	78bb      	ldrb	r3, [r7, #2]
 800b8d8:	2b00      	cmp	r3, #0
 800b8da:	d004      	beq.n	800b8e6 <I2C_Send7bitAddress+0x20>
  {
    /* Set the address bit0 for read */
    Address |= OAR1_ADD0_Set;
 800b8dc:	78fb      	ldrb	r3, [r7, #3]
 800b8de:	f043 0301 	orr.w	r3, r3, #1
 800b8e2:	70fb      	strb	r3, [r7, #3]
 800b8e4:	e003      	b.n	800b8ee <I2C_Send7bitAddress+0x28>
  }
  else
  {
    /* Reset the address bit0 for write */
    Address &= OAR1_ADD0_Reset;
 800b8e6:	78fb      	ldrb	r3, [r7, #3]
 800b8e8:	f023 0301 	bic.w	r3, r3, #1
 800b8ec:	70fb      	strb	r3, [r7, #3]
  }
  /* Send the address */
  I2Cx->DR = Address;
 800b8ee:	78fb      	ldrb	r3, [r7, #3]
 800b8f0:	b29a      	uxth	r2, r3
 800b8f2:	687b      	ldr	r3, [r7, #4]
 800b8f4:	821a      	strh	r2, [r3, #16]
}
 800b8f6:	bf00      	nop
 800b8f8:	370c      	adds	r7, #12
 800b8fa:	46bd      	mov	sp, r7
 800b8fc:	bc80      	pop	{r7}
 800b8fe:	4770      	bx	lr

0800b900 <I2C_SoftwareResetCmd>:
  * @param  NewState: new state of the I2C software reset.
  *   This parameter can be: ENABLE or DISABLE.
  * @retval None
  */
void I2C_SoftwareResetCmd(I2C_TypeDef* I2Cx, FunctionalState NewState)
{
 800b900:	b480      	push	{r7}
 800b902:	b083      	sub	sp, #12
 800b904:	af00      	add	r7, sp, #0
 800b906:	6078      	str	r0, [r7, #4]
 800b908:	460b      	mov	r3, r1
 800b90a:	70fb      	strb	r3, [r7, #3]
  /* Check the parameters */
  assert_param(IS_I2C_ALL_PERIPH(I2Cx));
  assert_param(IS_FUNCTIONAL_STATE(NewState));
  if (NewState != DISABLE)
 800b90c:	78fb      	ldrb	r3, [r7, #3]
 800b90e:	2b00      	cmp	r3, #0
 800b910:	d00a      	beq.n	800b928 <I2C_SoftwareResetCmd+0x28>
  {
    /* Peripheral under reset */
    I2Cx->CR1 |= CR1_SWRST_Set;
 800b912:	687b      	ldr	r3, [r7, #4]
 800b914:	881b      	ldrh	r3, [r3, #0]
 800b916:	b29b      	uxth	r3, r3
 800b918:	ea6f 4343 	mvn.w	r3, r3, lsl #17
 800b91c:	ea6f 4353 	mvn.w	r3, r3, lsr #17
 800b920:	b29a      	uxth	r2, r3
 800b922:	687b      	ldr	r3, [r7, #4]
 800b924:	801a      	strh	r2, [r3, #0]
  else
  {
    /* Peripheral not under reset */
    I2Cx->CR1 &= CR1_SWRST_Reset;
  }
}
 800b926:	e007      	b.n	800b938 <I2C_SoftwareResetCmd+0x38>
    I2Cx->CR1 &= CR1_SWRST_Reset;
 800b928:	687b      	ldr	r3, [r7, #4]
 800b92a:	881b      	ldrh	r3, [r3, #0]
 800b92c:	b29b      	uxth	r3, r3
 800b92e:	f3c3 030e 	ubfx	r3, r3, #0, #15
 800b932:	b29a      	uxth	r2, r3
 800b934:	687b      	ldr	r3, [r7, #4]
 800b936:	801a      	strh	r2, [r3, #0]
}
 800b938:	bf00      	nop
 800b93a:	370c      	adds	r7, #12
 800b93c:	46bd      	mov	sp, r7
 800b93e:	bc80      	pop	{r7}
 800b940:	4770      	bx	lr

0800b942 <I2C_CheckEvent>:
  * @retval An ErrorStatus enumeration value:
  * - SUCCESS: Last event is equal to the I2C_EVENT
  * - ERROR: Last event is different from the I2C_EVENT
  */
ErrorStatus I2C_CheckEvent(I2C_TypeDef* I2Cx, uint32_t I2C_EVENT)
{
 800b942:	b480      	push	{r7}
 800b944:	b087      	sub	sp, #28
 800b946:	af00      	add	r7, sp, #0
 800b948:	6078      	str	r0, [r7, #4]
 800b94a:	6039      	str	r1, [r7, #0]
  uint32_t lastevent = 0;
 800b94c:	2300      	movs	r3, #0
 800b94e:	613b      	str	r3, [r7, #16]
  uint32_t flag1 = 0, flag2 = 0;
 800b950:	2300      	movs	r3, #0
 800b952:	60fb      	str	r3, [r7, #12]
 800b954:	2300      	movs	r3, #0
 800b956:	60bb      	str	r3, [r7, #8]
  ErrorStatus status = ERROR;
 800b958:	2300      	movs	r3, #0
 800b95a:	75fb      	strb	r3, [r7, #23]
  /* Check the parameters */
  assert_param(IS_I2C_ALL_PERIPH(I2Cx));
  assert_param(IS_I2C_EVENT(I2C_EVENT));

  /* Read the I2Cx status register */
  flag1 = I2Cx->SR1;
 800b95c:	687b      	ldr	r3, [r7, #4]
 800b95e:	8a9b      	ldrh	r3, [r3, #20]
 800b960:	b29b      	uxth	r3, r3
 800b962:	60fb      	str	r3, [r7, #12]
  flag2 = I2Cx->SR2;
 800b964:	687b      	ldr	r3, [r7, #4]
 800b966:	8b1b      	ldrh	r3, [r3, #24]
 800b968:	b29b      	uxth	r3, r3
 800b96a:	60bb      	str	r3, [r7, #8]
  flag2 = flag2 << 16;
 800b96c:	68bb      	ldr	r3, [r7, #8]
 800b96e:	041b      	lsls	r3, r3, #16
 800b970:	60bb      	str	r3, [r7, #8]

  /* Get the last event value from I2C status register */
  lastevent = (flag1 | flag2) & FLAG_Mask;
 800b972:	68fa      	ldr	r2, [r7, #12]
 800b974:	68bb      	ldr	r3, [r7, #8]
 800b976:	4313      	orrs	r3, r2
 800b978:	f023 437f 	bic.w	r3, r3, #4278190080	@ 0xff000000
 800b97c:	613b      	str	r3, [r7, #16]

  /* Check whether the last event contains the I2C_EVENT */
  if ((lastevent & I2C_EVENT) == I2C_EVENT)
 800b97e:	693a      	ldr	r2, [r7, #16]
 800b980:	683b      	ldr	r3, [r7, #0]
 800b982:	4013      	ands	r3, r2
 800b984:	683a      	ldr	r2, [r7, #0]
 800b986:	429a      	cmp	r2, r3
 800b988:	d102      	bne.n	800b990 <I2C_CheckEvent+0x4e>
  {
    /* SUCCESS: last event is equal to I2C_EVENT */
    status = SUCCESS;
 800b98a:	2301      	movs	r3, #1
 800b98c:	75fb      	strb	r3, [r7, #23]
 800b98e:	e001      	b.n	800b994 <I2C_CheckEvent+0x52>
  }
  else
  {
    /* ERROR: last event is different from I2C_EVENT */
    status = ERROR;
 800b990:	2300      	movs	r3, #0
 800b992:	75fb      	strb	r3, [r7, #23]
  }
  /* Return status */
  return status;
 800b994:	7dfb      	ldrb	r3, [r7, #23]
}
 800b996:	4618      	mov	r0, r3
 800b998:	371c      	adds	r7, #28
 800b99a:	46bd      	mov	sp, r7
 800b99c:	bc80      	pop	{r7}
 800b99e:	4770      	bx	lr

0800b9a0 <I2C_GetLastEvent>:
  *    I2C_Events in stm32f10x_i2c.h file.
  *    
  * @retval The last event
  */
uint32_t I2C_GetLastEvent(I2C_TypeDef* I2Cx)
{
 800b9a0:	b480      	push	{r7}
 800b9a2:	b087      	sub	sp, #28
 800b9a4:	af00      	add	r7, sp, #0
 800b9a6:	6078      	str	r0, [r7, #4]
  uint32_t lastevent = 0;
 800b9a8:	2300      	movs	r3, #0
 800b9aa:	617b      	str	r3, [r7, #20]
  uint32_t flag1 = 0, flag2 = 0;
 800b9ac:	2300      	movs	r3, #0
 800b9ae:	613b      	str	r3, [r7, #16]
 800b9b0:	2300      	movs	r3, #0
 800b9b2:	60fb      	str	r3, [r7, #12]

  /* Check the parameters */
  assert_param(IS_I2C_ALL_PERIPH(I2Cx));

  /* Read the I2Cx status register */
  flag1 = I2Cx->SR1;
 800b9b4:	687b      	ldr	r3, [r7, #4]
 800b9b6:	8a9b      	ldrh	r3, [r3, #20]
 800b9b8:	b29b      	uxth	r3, r3
 800b9ba:	613b      	str	r3, [r7, #16]
  flag2 = I2Cx->SR2;
 800b9bc:	687b      	ldr	r3, [r7, #4]
 800b9be:	8b1b      	ldrh	r3, [r3, #24]
 800b9c0:	b29b      	uxth	r3, r3
 800b9c2:	60fb      	str	r3, [r7, #12]
  flag2 = flag2 << 16;
 800b9c4:	68fb      	ldr	r3, [r7, #12]
 800b9c6:	041b      	lsls	r3, r3, #16
 800b9c8:	60fb      	str	r3, [r7, #12]

  /* Get the last event value from I2C status register */
  lastevent = (flag1 | flag2) & FLAG_Mask;
 800b9ca:	693a      	ldr	r2, [r7, #16]
 800b9cc:	68fb      	ldr	r3, [r7, #12]
 800b9ce:	4313      	orrs	r3, r2
 800b9d0:	f023 437f 	bic.w	r3, r3, #4278190080	@ 0xff000000
 800b9d4:	617b      	str	r3, [r7, #20]

  /* Return status */
  return lastevent;
 800b9d6:	697b      	ldr	r3, [r7, #20]
}
 800b9d8:	4618      	mov	r0, r3
 800b9da:	371c      	adds	r7, #28
 800b9dc:	46bd      	mov	sp, r7
 800b9de:	bc80      	pop	{r7}
 800b9e0:	4770      	bx	lr

0800b9e2 <I2C_ClearFlag>:
  *     register (I2C_GetFlagStatus()) followed by a write operation to I2C_DR
  *     register  (I2C_SendData()).
  * @retval None
  */
void I2C_ClearFlag(I2C_TypeDef* I2Cx, uint32_t I2C_FLAG)
{
 800b9e2:	b480      	push	{r7}
 800b9e4:	b085      	sub	sp, #20
 800b9e6:	af00      	add	r7, sp, #0
 800b9e8:	6078      	str	r0, [r7, #4]
 800b9ea:	6039      	str	r1, [r7, #0]
  uint32_t flagpos = 0;
 800b9ec:	2300      	movs	r3, #0
 800b9ee:	60fb      	str	r3, [r7, #12]
  /* Check the parameters */
  assert_param(IS_I2C_ALL_PERIPH(I2Cx));
  assert_param(IS_I2C_CLEAR_FLAG(I2C_FLAG));
  /* Get the I2C flag position */
  flagpos = I2C_FLAG & FLAG_Mask;
 800b9f0:	683b      	ldr	r3, [r7, #0]
 800b9f2:	f023 437f 	bic.w	r3, r3, #4278190080	@ 0xff000000
 800b9f6:	60fb      	str	r3, [r7, #12]
  /* Clear the selected I2C flag */
  I2Cx->SR1 = (uint16_t)~flagpos;
 800b9f8:	68fb      	ldr	r3, [r7, #12]
 800b9fa:	b29b      	uxth	r3, r3
 800b9fc:	43db      	mvns	r3, r3
 800b9fe:	b29a      	uxth	r2, r3
 800ba00:	687b      	ldr	r3, [r7, #4]
 800ba02:	829a      	strh	r2, [r3, #20]
}
 800ba04:	bf00      	nop
 800ba06:	3714      	adds	r7, #20
 800ba08:	46bd      	mov	sp, r7
 800ba0a:	bc80      	pop	{r7}
 800ba0c:	4770      	bx	lr
	...

0800ba10 <RCC_GetClocksFreq>:
  * @note   The result of this function could be not correct when using 
  *         fractional value for HSE crystal.  
  * @retval None
  */
void RCC_GetClocksFreq(RCC_ClocksTypeDef* RCC_Clocks)
{
 800ba10:	b480      	push	{r7}
 800ba12:	b08b      	sub	sp, #44	@ 0x2c
 800ba14:	af00      	add	r7, sp, #0
 800ba16:	6078      	str	r0, [r7, #4]
  uint32_t tmp = 0, pllmull = 0, pllsource = 0, presc = 0;
 800ba18:	2300      	movs	r3, #0
 800ba1a:	623b      	str	r3, [r7, #32]
 800ba1c:	2300      	movs	r3, #0
 800ba1e:	627b      	str	r3, [r7, #36]	@ 0x24
 800ba20:	2300      	movs	r3, #0
 800ba22:	61fb      	str	r3, [r7, #28]
 800ba24:	2300      	movs	r3, #0
 800ba26:	61bb      	str	r3, [r7, #24]

#ifdef  STM32F10X_CL
  uint32_t prediv1source = 0, prediv1factor = 0, prediv2factor = 0, pll2mull = 0;
 800ba28:	2300      	movs	r3, #0
 800ba2a:	617b      	str	r3, [r7, #20]
 800ba2c:	2300      	movs	r3, #0
 800ba2e:	613b      	str	r3, [r7, #16]
 800ba30:	2300      	movs	r3, #0
 800ba32:	60fb      	str	r3, [r7, #12]
 800ba34:	2300      	movs	r3, #0
 800ba36:	60bb      	str	r3, [r7, #8]
#if defined (STM32F10X_LD_VL) || defined (STM32F10X_MD_VL) || defined (STM32F10X_HD_VL)
  uint32_t prediv1factor = 0;
#endif
    
  /* Get SYSCLK source -------------------------------------------------------*/
  tmp = RCC->CFGR & CFGR_SWS_Mask;
 800ba38:	4b64      	ldr	r3, [pc, #400]	@ (800bbcc <RCC_GetClocksFreq+0x1bc>)
 800ba3a:	685b      	ldr	r3, [r3, #4]
 800ba3c:	f003 030c 	and.w	r3, r3, #12
 800ba40:	623b      	str	r3, [r7, #32]
  
  switch (tmp)
 800ba42:	6a3b      	ldr	r3, [r7, #32]
 800ba44:	2b08      	cmp	r3, #8
 800ba46:	d011      	beq.n	800ba6c <RCC_GetClocksFreq+0x5c>
 800ba48:	6a3b      	ldr	r3, [r7, #32]
 800ba4a:	2b08      	cmp	r3, #8
 800ba4c:	d864      	bhi.n	800bb18 <RCC_GetClocksFreq+0x108>
 800ba4e:	6a3b      	ldr	r3, [r7, #32]
 800ba50:	2b00      	cmp	r3, #0
 800ba52:	d003      	beq.n	800ba5c <RCC_GetClocksFreq+0x4c>
 800ba54:	6a3b      	ldr	r3, [r7, #32]
 800ba56:	2b04      	cmp	r3, #4
 800ba58:	d004      	beq.n	800ba64 <RCC_GetClocksFreq+0x54>
 800ba5a:	e05d      	b.n	800bb18 <RCC_GetClocksFreq+0x108>
  {
    case 0x00:  /* HSI used as system clock */
      RCC_Clocks->SYSCLK_Frequency = HSI_VALUE;
 800ba5c:	687b      	ldr	r3, [r7, #4]
 800ba5e:	4a5c      	ldr	r2, [pc, #368]	@ (800bbd0 <RCC_GetClocksFreq+0x1c0>)
 800ba60:	601a      	str	r2, [r3, #0]
      break;
 800ba62:	e05d      	b.n	800bb20 <RCC_GetClocksFreq+0x110>
    case 0x04:  /* HSE used as system clock */
      RCC_Clocks->SYSCLK_Frequency = HSE_VALUE;
 800ba64:	687b      	ldr	r3, [r7, #4]
 800ba66:	4a5b      	ldr	r2, [pc, #364]	@ (800bbd4 <RCC_GetClocksFreq+0x1c4>)
 800ba68:	601a      	str	r2, [r3, #0]
      break;
 800ba6a:	e059      	b.n	800bb20 <RCC_GetClocksFreq+0x110>
    case 0x08:  /* PLL used as system clock */

      /* Get PLL clock source and multiplication factor ----------------------*/
      pllmull = RCC->CFGR & CFGR_PLLMull_Mask;
 800ba6c:	4b57      	ldr	r3, [pc, #348]	@ (800bbcc <RCC_GetClocksFreq+0x1bc>)
 800ba6e:	685b      	ldr	r3, [r3, #4]
 800ba70:	f403 1370 	and.w	r3, r3, #3932160	@ 0x3c0000
 800ba74:	627b      	str	r3, [r7, #36]	@ 0x24
      pllsource = RCC->CFGR & CFGR_PLLSRC_Mask;
 800ba76:	4b55      	ldr	r3, [pc, #340]	@ (800bbcc <RCC_GetClocksFreq+0x1bc>)
 800ba78:	685b      	ldr	r3, [r3, #4]
 800ba7a:	f403 3380 	and.w	r3, r3, #65536	@ 0x10000
 800ba7e:	61fb      	str	r3, [r7, #28]
          RCC_Clocks->SYSCLK_Frequency = HSE_VALUE * pllmull;
        }
 #endif
      }
#else
      pllmull = pllmull >> 18;
 800ba80:	6a7b      	ldr	r3, [r7, #36]	@ 0x24
 800ba82:	0c9b      	lsrs	r3, r3, #18
 800ba84:	627b      	str	r3, [r7, #36]	@ 0x24
      
      if (pllmull != 0x0D)
 800ba86:	6a7b      	ldr	r3, [r7, #36]	@ 0x24
 800ba88:	2b0d      	cmp	r3, #13
 800ba8a:	d003      	beq.n	800ba94 <RCC_GetClocksFreq+0x84>
      {
         pllmull += 2;
 800ba8c:	6a7b      	ldr	r3, [r7, #36]	@ 0x24
 800ba8e:	3302      	adds	r3, #2
 800ba90:	627b      	str	r3, [r7, #36]	@ 0x24
 800ba92:	e001      	b.n	800ba98 <RCC_GetClocksFreq+0x88>
      }
      else
      { /* PLL multiplication factor = PLL input clock * 6.5 */
        pllmull = 13 / 2; 
 800ba94:	2306      	movs	r3, #6
 800ba96:	627b      	str	r3, [r7, #36]	@ 0x24
      }
            
      if (pllsource == 0x00)
 800ba98:	69fb      	ldr	r3, [r7, #28]
 800ba9a:	2b00      	cmp	r3, #0
 800ba9c:	d106      	bne.n	800baac <RCC_GetClocksFreq+0x9c>
      {/* HSI oscillator clock divided by 2 selected as PLL clock entry */
        RCC_Clocks->SYSCLK_Frequency = (HSI_VALUE >> 1) * pllmull;
 800ba9e:	6a7b      	ldr	r3, [r7, #36]	@ 0x24
 800baa0:	4a4d      	ldr	r2, [pc, #308]	@ (800bbd8 <RCC_GetClocksFreq+0x1c8>)
 800baa2:	fb03 f202 	mul.w	r2, r3, r2
 800baa6:	687b      	ldr	r3, [r7, #4]
 800baa8:	601a      	str	r2, [r3, #0]
          pll2mull = ((RCC->CFGR2 & CFGR2_PLL2MUL) >> 8 ) + 2; 
          RCC_Clocks->SYSCLK_Frequency = (((HSE_VALUE / prediv2factor) * pll2mull) / prediv1factor) * pllmull;                         
        }
      }
#endif /* STM32F10X_CL */ 
      break;
 800baaa:	e039      	b.n	800bb20 <RCC_GetClocksFreq+0x110>
        prediv1source = RCC->CFGR2 & CFGR2_PREDIV1SRC;
 800baac:	4b47      	ldr	r3, [pc, #284]	@ (800bbcc <RCC_GetClocksFreq+0x1bc>)
 800baae:	6adb      	ldr	r3, [r3, #44]	@ 0x2c
 800bab0:	f403 3380 	and.w	r3, r3, #65536	@ 0x10000
 800bab4:	617b      	str	r3, [r7, #20]
        prediv1factor = (RCC->CFGR2 & CFGR2_PREDIV1) + 1;
 800bab6:	4b45      	ldr	r3, [pc, #276]	@ (800bbcc <RCC_GetClocksFreq+0x1bc>)
 800bab8:	6adb      	ldr	r3, [r3, #44]	@ 0x2c
 800baba:	f003 030f 	and.w	r3, r3, #15
 800babe:	3301      	adds	r3, #1
 800bac0:	613b      	str	r3, [r7, #16]
        if (prediv1source == 0)
 800bac2:	697b      	ldr	r3, [r7, #20]
 800bac4:	2b00      	cmp	r3, #0
 800bac6:	d109      	bne.n	800badc <RCC_GetClocksFreq+0xcc>
          RCC_Clocks->SYSCLK_Frequency = (HSE_VALUE / prediv1factor) * pllmull;          
 800bac8:	4a42      	ldr	r2, [pc, #264]	@ (800bbd4 <RCC_GetClocksFreq+0x1c4>)
 800baca:	693b      	ldr	r3, [r7, #16]
 800bacc:	fbb2 f3f3 	udiv	r3, r2, r3
 800bad0:	6a7a      	ldr	r2, [r7, #36]	@ 0x24
 800bad2:	fb03 f202 	mul.w	r2, r3, r2
 800bad6:	687b      	ldr	r3, [r7, #4]
 800bad8:	601a      	str	r2, [r3, #0]
      break;
 800bada:	e021      	b.n	800bb20 <RCC_GetClocksFreq+0x110>
          prediv2factor = ((RCC->CFGR2 & CFGR2_PREDIV2) >> 4) + 1;
 800badc:	4b3b      	ldr	r3, [pc, #236]	@ (800bbcc <RCC_GetClocksFreq+0x1bc>)
 800bade:	6adb      	ldr	r3, [r3, #44]	@ 0x2c
 800bae0:	091b      	lsrs	r3, r3, #4
 800bae2:	f003 030f 	and.w	r3, r3, #15
 800bae6:	3301      	adds	r3, #1
 800bae8:	60fb      	str	r3, [r7, #12]
          pll2mull = ((RCC->CFGR2 & CFGR2_PLL2MUL) >> 8 ) + 2; 
 800baea:	4b38      	ldr	r3, [pc, #224]	@ (800bbcc <RCC_GetClocksFreq+0x1bc>)
 800baec:	6adb      	ldr	r3, [r3, #44]	@ 0x2c
 800baee:	0a1b      	lsrs	r3, r3, #8
 800baf0:	f003 030f 	and.w	r3, r3, #15
 800baf4:	3302      	adds	r3, #2
 800baf6:	60bb      	str	r3, [r7, #8]
          RCC_Clocks->SYSCLK_Frequency = (((HSE_VALUE / prediv2factor) * pll2mull) / prediv1factor) * pllmull;                         
 800baf8:	4a36      	ldr	r2, [pc, #216]	@ (800bbd4 <RCC_GetClocksFreq+0x1c4>)
 800bafa:	68fb      	ldr	r3, [r7, #12]
 800bafc:	fbb2 f3f3 	udiv	r3, r2, r3
 800bb00:	68ba      	ldr	r2, [r7, #8]
 800bb02:	fb03 f202 	mul.w	r2, r3, r2
 800bb06:	693b      	ldr	r3, [r7, #16]
 800bb08:	fbb2 f3f3 	udiv	r3, r2, r3
 800bb0c:	6a7a      	ldr	r2, [r7, #36]	@ 0x24
 800bb0e:	fb03 f202 	mul.w	r2, r3, r2
 800bb12:	687b      	ldr	r3, [r7, #4]
 800bb14:	601a      	str	r2, [r3, #0]
      break;
 800bb16:	e003      	b.n	800bb20 <RCC_GetClocksFreq+0x110>

    default:
      RCC_Clocks->SYSCLK_Frequency = HSI_VALUE;
 800bb18:	687b      	ldr	r3, [r7, #4]
 800bb1a:	4a2d      	ldr	r2, [pc, #180]	@ (800bbd0 <RCC_GetClocksFreq+0x1c0>)
 800bb1c:	601a      	str	r2, [r3, #0]
      break;
 800bb1e:	bf00      	nop
  }

  /* Compute HCLK, PCLK1, PCLK2 and ADCCLK clocks frequencies ----------------*/
  /* Get HCLK prescaler */
  tmp = RCC->CFGR & CFGR_HPRE_Set_Mask;
 800bb20:	4b2a      	ldr	r3, [pc, #168]	@ (800bbcc <RCC_GetClocksFreq+0x1bc>)
 800bb22:	685b      	ldr	r3, [r3, #4]
 800bb24:	f003 03f0 	and.w	r3, r3, #240	@ 0xf0
 800bb28:	623b      	str	r3, [r7, #32]
  tmp = tmp >> 4;
 800bb2a:	6a3b      	ldr	r3, [r7, #32]
 800bb2c:	091b      	lsrs	r3, r3, #4
 800bb2e:	623b      	str	r3, [r7, #32]
  presc = APBAHBPrescTable[tmp];
 800bb30:	4a2a      	ldr	r2, [pc, #168]	@ (800bbdc <RCC_GetClocksFreq+0x1cc>)
 800bb32:	6a3b      	ldr	r3, [r7, #32]
 800bb34:	4413      	add	r3, r2
 800bb36:	781b      	ldrb	r3, [r3, #0]
 800bb38:	b2db      	uxtb	r3, r3
 800bb3a:	61bb      	str	r3, [r7, #24]
  /* HCLK clock frequency */
  RCC_Clocks->HCLK_Frequency = RCC_Clocks->SYSCLK_Frequency >> presc;
 800bb3c:	687b      	ldr	r3, [r7, #4]
 800bb3e:	681a      	ldr	r2, [r3, #0]
 800bb40:	69bb      	ldr	r3, [r7, #24]
 800bb42:	40da      	lsrs	r2, r3
 800bb44:	687b      	ldr	r3, [r7, #4]
 800bb46:	605a      	str	r2, [r3, #4]
  /* Get PCLK1 prescaler */
  tmp = RCC->CFGR & CFGR_PPRE1_Set_Mask;
 800bb48:	4b20      	ldr	r3, [pc, #128]	@ (800bbcc <RCC_GetClocksFreq+0x1bc>)
 800bb4a:	685b      	ldr	r3, [r3, #4]
 800bb4c:	f403 63e0 	and.w	r3, r3, #1792	@ 0x700
 800bb50:	623b      	str	r3, [r7, #32]
  tmp = tmp >> 8;
 800bb52:	6a3b      	ldr	r3, [r7, #32]
 800bb54:	0a1b      	lsrs	r3, r3, #8
 800bb56:	623b      	str	r3, [r7, #32]
  presc = APBAHBPrescTable[tmp];
 800bb58:	4a20      	ldr	r2, [pc, #128]	@ (800bbdc <RCC_GetClocksFreq+0x1cc>)
 800bb5a:	6a3b      	ldr	r3, [r7, #32]
 800bb5c:	4413      	add	r3, r2
 800bb5e:	781b      	ldrb	r3, [r3, #0]
 800bb60:	b2db      	uxtb	r3, r3
 800bb62:	61bb      	str	r3, [r7, #24]
  /* PCLK1 clock frequency */
  RCC_Clocks->PCLK1_Frequency = RCC_Clocks->HCLK_Frequency >> presc;
 800bb64:	687b      	ldr	r3, [r7, #4]
 800bb66:	685a      	ldr	r2, [r3, #4]
 800bb68:	69bb      	ldr	r3, [r7, #24]
 800bb6a:	40da      	lsrs	r2, r3
 800bb6c:	687b      	ldr	r3, [r7, #4]
 800bb6e:	609a      	str	r2, [r3, #8]
  /* Get PCLK2 prescaler */
  tmp = RCC->CFGR & CFGR_PPRE2_Set_Mask;
 800bb70:	4b16      	ldr	r3, [pc, #88]	@ (800bbcc <RCC_GetClocksFreq+0x1bc>)
 800bb72:	685b      	ldr	r3, [r3, #4]
 800bb74:	f403 5360 	and.w	r3, r3, #14336	@ 0x3800
 800bb78:	623b      	str	r3, [r7, #32]
  tmp = tmp >> 11;
 800bb7a:	6a3b      	ldr	r3, [r7, #32]
 800bb7c:	0adb      	lsrs	r3, r3, #11
 800bb7e:	623b      	str	r3, [r7, #32]
  presc = APBAHBPrescTable[tmp];
 800bb80:	4a16      	ldr	r2, [pc, #88]	@ (800bbdc <RCC_GetClocksFreq+0x1cc>)
 800bb82:	6a3b      	ldr	r3, [r7, #32]
 800bb84:	4413      	add	r3, r2
 800bb86:	781b      	ldrb	r3, [r3, #0]
 800bb88:	b2db      	uxtb	r3, r3
 800bb8a:	61bb      	str	r3, [r7, #24]
  /* PCLK2 clock frequency */
  RCC_Clocks->PCLK2_Frequency = RCC_Clocks->HCLK_Frequency >> presc;
 800bb8c:	687b      	ldr	r3, [r7, #4]
 800bb8e:	685a      	ldr	r2, [r3, #4]
 800bb90:	69bb      	ldr	r3, [r7, #24]
 800bb92:	40da      	lsrs	r2, r3
 800bb94:	687b      	ldr	r3, [r7, #4]
 800bb96:	60da      	str	r2, [r3, #12]
  /* Get ADCCLK prescaler */
  tmp = RCC->CFGR & CFGR_ADCPRE_Set_Mask;
 800bb98:	4b0c      	ldr	r3, [pc, #48]	@ (800bbcc <RCC_GetClocksFreq+0x1bc>)
 800bb9a:	685b      	ldr	r3, [r3, #4]
 800bb9c:	f403 4340 	and.w	r3, r3, #49152	@ 0xc000
 800bba0:	623b      	str	r3, [r7, #32]
  tmp = tmp >> 14;
 800bba2:	6a3b      	ldr	r3, [r7, #32]
 800bba4:	0b9b      	lsrs	r3, r3, #14
 800bba6:	623b      	str	r3, [r7, #32]
  presc = ADCPrescTable[tmp];
 800bba8:	4a0d      	ldr	r2, [pc, #52]	@ (800bbe0 <RCC_GetClocksFreq+0x1d0>)
 800bbaa:	6a3b      	ldr	r3, [r7, #32]
 800bbac:	4413      	add	r3, r2
 800bbae:	781b      	ldrb	r3, [r3, #0]
 800bbb0:	b2db      	uxtb	r3, r3
 800bbb2:	61bb      	str	r3, [r7, #24]
  /* ADCCLK clock frequency */
  RCC_Clocks->ADCCLK_Frequency = RCC_Clocks->PCLK2_Frequency / presc;
 800bbb4:	687b      	ldr	r3, [r7, #4]
 800bbb6:	68da      	ldr	r2, [r3, #12]
 800bbb8:	69bb      	ldr	r3, [r7, #24]
 800bbba:	fbb2 f2f3 	udiv	r2, r2, r3
 800bbbe:	687b      	ldr	r3, [r7, #4]
 800bbc0:	611a      	str	r2, [r3, #16]
}
 800bbc2:	bf00      	nop
 800bbc4:	372c      	adds	r7, #44	@ 0x2c
 800bbc6:	46bd      	mov	sp, r7
 800bbc8:	bc80      	pop	{r7}
 800bbca:	4770      	bx	lr
 800bbcc:	40021000 	.word	0x40021000
 800bbd0:	007a1200 	.word	0x007a1200
 800bbd4:	017d7840 	.word	0x017d7840
 800bbd8:	003d0900 	.word	0x003d0900
 800bbdc:	2000002c 	.word	0x2000002c
 800bbe0:	2000003c 	.word	0x2000003c

0800bbe4 <RCC_AHBPeriphClockCmd>:
  * @param  NewState: new state of the specified peripheral clock.
  *   This parameter can be: ENABLE or DISABLE.
  * @retval None
  */
void RCC_AHBPeriphClockCmd(uint32_t RCC_AHBPeriph, FunctionalState NewState)
{
 800bbe4:	b480      	push	{r7}
 800bbe6:	b083      	sub	sp, #12
 800bbe8:	af00      	add	r7, sp, #0
 800bbea:	6078      	str	r0, [r7, #4]
 800bbec:	460b      	mov	r3, r1
 800bbee:	70fb      	strb	r3, [r7, #3]
  /* Check the parameters */
  assert_param(IS_RCC_AHB_PERIPH(RCC_AHBPeriph));
  assert_param(IS_FUNCTIONAL_STATE(NewState));

  if (NewState != DISABLE)
 800bbf0:	78fb      	ldrb	r3, [r7, #3]
 800bbf2:	2b00      	cmp	r3, #0
 800bbf4:	d006      	beq.n	800bc04 <RCC_AHBPeriphClockCmd+0x20>
  {
    RCC->AHBENR |= RCC_AHBPeriph;
 800bbf6:	4b09      	ldr	r3, [pc, #36]	@ (800bc1c <RCC_AHBPeriphClockCmd+0x38>)
 800bbf8:	695a      	ldr	r2, [r3, #20]
 800bbfa:	4908      	ldr	r1, [pc, #32]	@ (800bc1c <RCC_AHBPeriphClockCmd+0x38>)
 800bbfc:	687b      	ldr	r3, [r7, #4]
 800bbfe:	4313      	orrs	r3, r2
 800bc00:	614b      	str	r3, [r1, #20]
  }
  else
  {
    RCC->AHBENR &= ~RCC_AHBPeriph;
  }
}
 800bc02:	e006      	b.n	800bc12 <RCC_AHBPeriphClockCmd+0x2e>
    RCC->AHBENR &= ~RCC_AHBPeriph;
 800bc04:	4b05      	ldr	r3, [pc, #20]	@ (800bc1c <RCC_AHBPeriphClockCmd+0x38>)
 800bc06:	695a      	ldr	r2, [r3, #20]
 800bc08:	687b      	ldr	r3, [r7, #4]
 800bc0a:	43db      	mvns	r3, r3
 800bc0c:	4903      	ldr	r1, [pc, #12]	@ (800bc1c <RCC_AHBPeriphClockCmd+0x38>)
 800bc0e:	4013      	ands	r3, r2
 800bc10:	614b      	str	r3, [r1, #20]
}
 800bc12:	bf00      	nop
 800bc14:	370c      	adds	r7, #12
 800bc16:	46bd      	mov	sp, r7
 800bc18:	bc80      	pop	{r7}
 800bc1a:	4770      	bx	lr
 800bc1c:	40021000 	.word	0x40021000

0800bc20 <RCC_APB2PeriphClockCmd>:
  * @param  NewState: new state of the specified peripheral clock.
  *   This parameter can be: ENABLE or DISABLE.
  * @retval None
  */
void RCC_APB2PeriphClockCmd(uint32_t RCC_APB2Periph, FunctionalState NewState)
{
 800bc20:	b480      	push	{r7}
 800bc22:	b083      	sub	sp, #12
 800bc24:	af00      	add	r7, sp, #0
 800bc26:	6078      	str	r0, [r7, #4]
 800bc28:	460b      	mov	r3, r1
 800bc2a:	70fb      	strb	r3, [r7, #3]
  /* Check the parameters */
  assert_param(IS_RCC_APB2_PERIPH(RCC_APB2Periph));
  assert_param(IS_FUNCTIONAL_STATE(NewState));
  if (NewState != DISABLE)
 800bc2c:	78fb      	ldrb	r3, [r7, #3]
 800bc2e:	2b00      	cmp	r3, #0
 800bc30:	d006      	beq.n	800bc40 <RCC_APB2PeriphClockCmd+0x20>
  {
    RCC->APB2ENR |= RCC_APB2Periph;
 800bc32:	4b09      	ldr	r3, [pc, #36]	@ (800bc58 <RCC_APB2PeriphClockCmd+0x38>)
 800bc34:	699a      	ldr	r2, [r3, #24]
 800bc36:	4908      	ldr	r1, [pc, #32]	@ (800bc58 <RCC_APB2PeriphClockCmd+0x38>)
 800bc38:	687b      	ldr	r3, [r7, #4]
 800bc3a:	4313      	orrs	r3, r2
 800bc3c:	618b      	str	r3, [r1, #24]
  }
  else
  {
    RCC->APB2ENR &= ~RCC_APB2Periph;
  }
}
 800bc3e:	e006      	b.n	800bc4e <RCC_APB2PeriphClockCmd+0x2e>
    RCC->APB2ENR &= ~RCC_APB2Periph;
 800bc40:	4b05      	ldr	r3, [pc, #20]	@ (800bc58 <RCC_APB2PeriphClockCmd+0x38>)
 800bc42:	699a      	ldr	r2, [r3, #24]
 800bc44:	687b      	ldr	r3, [r7, #4]
 800bc46:	43db      	mvns	r3, r3
 800bc48:	4903      	ldr	r1, [pc, #12]	@ (800bc58 <RCC_APB2PeriphClockCmd+0x38>)
 800bc4a:	4013      	ands	r3, r2
 800bc4c:	618b      	str	r3, [r1, #24]
}
 800bc4e:	bf00      	nop
 800bc50:	370c      	adds	r7, #12
 800bc52:	46bd      	mov	sp, r7
 800bc54:	bc80      	pop	{r7}
 800bc56:	4770      	bx	lr
 800bc58:	40021000 	.word	0x40021000

0800bc5c <RCC_APB1PeriphClockCmd>:
  * @param  NewState: new state of the specified peripheral clock.
  *   This parameter can be: ENABLE or DISABLE.
  * @retval None
  */
void RCC_APB1PeriphClockCmd(uint32_t RCC_APB1Periph, FunctionalState NewState)
{
 800bc5c:	b480      	push	{r7}
 800bc5e:	b083      	sub	sp, #12
 800bc60:	af00      	add	r7, sp, #0
 800bc62:	6078      	str	r0, [r7, #4]
 800bc64:	460b      	mov	r3, r1
 800bc66:	70fb      	strb	r3, [r7, #3]
  /* Check the parameters */
  assert_param(IS_RCC_APB1_PERIPH(RCC_APB1Periph));
  assert_param(IS_FUNCTIONAL_STATE(NewState));
  if (NewState != DISABLE)
 800bc68:	78fb      	ldrb	r3, [r7, #3]
 800bc6a:	2b00      	cmp	r3, #0
 800bc6c:	d006      	beq.n	800bc7c <RCC_APB1PeriphClockCmd+0x20>
  {
    RCC->APB1ENR |= RCC_APB1Periph;
 800bc6e:	4b09      	ldr	r3, [pc, #36]	@ (800bc94 <RCC_APB1PeriphClockCmd+0x38>)
 800bc70:	69da      	ldr	r2, [r3, #28]
 800bc72:	4908      	ldr	r1, [pc, #32]	@ (800bc94 <RCC_APB1PeriphClockCmd+0x38>)
 800bc74:	687b      	ldr	r3, [r7, #4]
 800bc76:	4313      	orrs	r3, r2
 800bc78:	61cb      	str	r3, [r1, #28]
  }
  else
  {
    RCC->APB1ENR &= ~RCC_APB1Periph;
  }
}
 800bc7a:	e006      	b.n	800bc8a <RCC_APB1PeriphClockCmd+0x2e>
    RCC->APB1ENR &= ~RCC_APB1Periph;
 800bc7c:	4b05      	ldr	r3, [pc, #20]	@ (800bc94 <RCC_APB1PeriphClockCmd+0x38>)
 800bc7e:	69da      	ldr	r2, [r3, #28]
 800bc80:	687b      	ldr	r3, [r7, #4]
 800bc82:	43db      	mvns	r3, r3
 800bc84:	4903      	ldr	r1, [pc, #12]	@ (800bc94 <RCC_APB1PeriphClockCmd+0x38>)
 800bc86:	4013      	ands	r3, r2
 800bc88:	61cb      	str	r3, [r1, #28]
}
 800bc8a:	bf00      	nop
 800bc8c:	370c      	adds	r7, #12
 800bc8e:	46bd      	mov	sp, r7
 800bc90:	bc80      	pop	{r7}
 800bc92:	4770      	bx	lr
 800bc94:	40021000 	.word	0x40021000

0800bc98 <RCC_APB2PeriphResetCmd>:
  * @param  NewState: new state of the specified peripheral reset.
  *   This parameter can be: ENABLE or DISABLE.
  * @retval None
  */
void RCC_APB2PeriphResetCmd(uint32_t RCC_APB2Periph, FunctionalState NewState)
{
 800bc98:	b480      	push	{r7}
 800bc9a:	b083      	sub	sp, #12
 800bc9c:	af00      	add	r7, sp, #0
 800bc9e:	6078      	str	r0, [r7, #4]
 800bca0:	460b      	mov	r3, r1
 800bca2:	70fb      	strb	r3, [r7, #3]
  /* Check the parameters */
  assert_param(IS_RCC_APB2_PERIPH(RCC_APB2Periph));
  assert_param(IS_FUNCTIONAL_STATE(NewState));
  if (NewState != DISABLE)
 800bca4:	78fb      	ldrb	r3, [r7, #3]
 800bca6:	2b00      	cmp	r3, #0
 800bca8:	d006      	beq.n	800bcb8 <RCC_APB2PeriphResetCmd+0x20>
  {
    RCC->APB2RSTR |= RCC_APB2Periph;
 800bcaa:	4b09      	ldr	r3, [pc, #36]	@ (800bcd0 <RCC_APB2PeriphResetCmd+0x38>)
 800bcac:	68da      	ldr	r2, [r3, #12]
 800bcae:	4908      	ldr	r1, [pc, #32]	@ (800bcd0 <RCC_APB2PeriphResetCmd+0x38>)
 800bcb0:	687b      	ldr	r3, [r7, #4]
 800bcb2:	4313      	orrs	r3, r2
 800bcb4:	60cb      	str	r3, [r1, #12]
  }
  else
  {
    RCC->APB2RSTR &= ~RCC_APB2Periph;
  }
}
 800bcb6:	e006      	b.n	800bcc6 <RCC_APB2PeriphResetCmd+0x2e>
    RCC->APB2RSTR &= ~RCC_APB2Periph;
 800bcb8:	4b05      	ldr	r3, [pc, #20]	@ (800bcd0 <RCC_APB2PeriphResetCmd+0x38>)
 800bcba:	68da      	ldr	r2, [r3, #12]
 800bcbc:	687b      	ldr	r3, [r7, #4]
 800bcbe:	43db      	mvns	r3, r3
 800bcc0:	4903      	ldr	r1, [pc, #12]	@ (800bcd0 <RCC_APB2PeriphResetCmd+0x38>)
 800bcc2:	4013      	ands	r3, r2
 800bcc4:	60cb      	str	r3, [r1, #12]
}
 800bcc6:	bf00      	nop
 800bcc8:	370c      	adds	r7, #12
 800bcca:	46bd      	mov	sp, r7
 800bccc:	bc80      	pop	{r7}
 800bcce:	4770      	bx	lr
 800bcd0:	40021000 	.word	0x40021000

0800bcd4 <RCC_APB1PeriphResetCmd>:
  * @param  NewState: new state of the specified peripheral clock.
  *   This parameter can be: ENABLE or DISABLE.
  * @retval None
  */
void RCC_APB1PeriphResetCmd(uint32_t RCC_APB1Periph, FunctionalState NewState)
{
 800bcd4:	b480      	push	{r7}
 800bcd6:	b083      	sub	sp, #12
 800bcd8:	af00      	add	r7, sp, #0
 800bcda:	6078      	str	r0, [r7, #4]
 800bcdc:	460b      	mov	r3, r1
 800bcde:	70fb      	strb	r3, [r7, #3]
  /* Check the parameters */
  assert_param(IS_RCC_APB1_PERIPH(RCC_APB1Periph));
  assert_param(IS_FUNCTIONAL_STATE(NewState));
  if (NewState != DISABLE)
 800bce0:	78fb      	ldrb	r3, [r7, #3]
 800bce2:	2b00      	cmp	r3, #0
 800bce4:	d006      	beq.n	800bcf4 <RCC_APB1PeriphResetCmd+0x20>
  {
    RCC->APB1RSTR |= RCC_APB1Periph;
 800bce6:	4b09      	ldr	r3, [pc, #36]	@ (800bd0c <RCC_APB1PeriphResetCmd+0x38>)
 800bce8:	691a      	ldr	r2, [r3, #16]
 800bcea:	4908      	ldr	r1, [pc, #32]	@ (800bd0c <RCC_APB1PeriphResetCmd+0x38>)
 800bcec:	687b      	ldr	r3, [r7, #4]
 800bcee:	4313      	orrs	r3, r2
 800bcf0:	610b      	str	r3, [r1, #16]
  }
  else
  {
    RCC->APB1RSTR &= ~RCC_APB1Periph;
  }
}
 800bcf2:	e006      	b.n	800bd02 <RCC_APB1PeriphResetCmd+0x2e>
    RCC->APB1RSTR &= ~RCC_APB1Periph;
 800bcf4:	4b05      	ldr	r3, [pc, #20]	@ (800bd0c <RCC_APB1PeriphResetCmd+0x38>)
 800bcf6:	691a      	ldr	r2, [r3, #16]
 800bcf8:	687b      	ldr	r3, [r7, #4]
 800bcfa:	43db      	mvns	r3, r3
 800bcfc:	4903      	ldr	r1, [pc, #12]	@ (800bd0c <RCC_APB1PeriphResetCmd+0x38>)
 800bcfe:	4013      	ands	r3, r2
 800bd00:	610b      	str	r3, [r1, #16]
}
 800bd02:	bf00      	nop
 800bd04:	370c      	adds	r7, #12
 800bd06:	46bd      	mov	sp, r7
 800bd08:	bc80      	pop	{r7}
 800bd0a:	4770      	bx	lr
 800bd0c:	40021000 	.word	0x40021000

0800bd10 <SPI_Init>:
  * @param  SPI_InitStruct: pointer to a SPI_InitTypeDef structure that
  *         contains the configuration information for the specified SPI peripheral.
  * @retval None
  */
void SPI_Init(SPI_TypeDef* SPIx, SPI_InitTypeDef* SPI_InitStruct)
{
 800bd10:	b480      	push	{r7}
 800bd12:	b085      	sub	sp, #20
 800bd14:	af00      	add	r7, sp, #0
 800bd16:	6078      	str	r0, [r7, #4]
 800bd18:	6039      	str	r1, [r7, #0]
  uint16_t tmpreg = 0;
 800bd1a:	2300      	movs	r3, #0
 800bd1c:	81fb      	strh	r3, [r7, #14]
  assert_param(IS_SPI_FIRST_BIT(SPI_InitStruct->SPI_FirstBit));
  assert_param(IS_SPI_CRC_POLYNOMIAL(SPI_InitStruct->SPI_CRCPolynomial));

/*---------------------------- SPIx CR1 Configuration ------------------------*/
  /* Get the SPIx CR1 value */
  tmpreg = SPIx->CR1;
 800bd1e:	687b      	ldr	r3, [r7, #4]
 800bd20:	881b      	ldrh	r3, [r3, #0]
 800bd22:	81fb      	strh	r3, [r7, #14]
  /* Clear BIDIMode, BIDIOE, RxONLY, SSM, SSI, LSBFirst, BR, MSTR, CPOL and CPHA bits */
  tmpreg &= CR1_CLEAR_Mask;
 800bd24:	89fb      	ldrh	r3, [r7, #14]
 800bd26:	f403 5341 	and.w	r3, r3, #12352	@ 0x3040
 800bd2a:	81fb      	strh	r3, [r7, #14]
  /* Set SSM, SSI and MSTR bits according to SPI_Mode and SPI_NSS values */
  /* Set LSBFirst bit according to SPI_FirstBit value */
  /* Set BR bits according to SPI_BaudRatePrescaler value */
  /* Set CPOL bit according to SPI_CPOL value */
  /* Set CPHA bit according to SPI_CPHA value */
  tmpreg |= (uint16_t)((uint32_t)SPI_InitStruct->SPI_Direction | SPI_InitStruct->SPI_Mode |
 800bd2c:	683b      	ldr	r3, [r7, #0]
 800bd2e:	881a      	ldrh	r2, [r3, #0]
 800bd30:	683b      	ldr	r3, [r7, #0]
 800bd32:	885b      	ldrh	r3, [r3, #2]
 800bd34:	4313      	orrs	r3, r2
 800bd36:	b29a      	uxth	r2, r3
                  SPI_InitStruct->SPI_DataSize | SPI_InitStruct->SPI_CPOL |  
 800bd38:	683b      	ldr	r3, [r7, #0]
 800bd3a:	889b      	ldrh	r3, [r3, #4]
  tmpreg |= (uint16_t)((uint32_t)SPI_InitStruct->SPI_Direction | SPI_InitStruct->SPI_Mode |
 800bd3c:	4313      	orrs	r3, r2
 800bd3e:	b29a      	uxth	r2, r3
                  SPI_InitStruct->SPI_DataSize | SPI_InitStruct->SPI_CPOL |  
 800bd40:	683b      	ldr	r3, [r7, #0]
 800bd42:	88db      	ldrh	r3, [r3, #6]
  tmpreg |= (uint16_t)((uint32_t)SPI_InitStruct->SPI_Direction | SPI_InitStruct->SPI_Mode |
 800bd44:	4313      	orrs	r3, r2
 800bd46:	b29a      	uxth	r2, r3
                  SPI_InitStruct->SPI_CPHA | SPI_InitStruct->SPI_NSS |  
 800bd48:	683b      	ldr	r3, [r7, #0]
 800bd4a:	891b      	ldrh	r3, [r3, #8]
  tmpreg |= (uint16_t)((uint32_t)SPI_InitStruct->SPI_Direction | SPI_InitStruct->SPI_Mode |
 800bd4c:	4313      	orrs	r3, r2
 800bd4e:	b29a      	uxth	r2, r3
                  SPI_InitStruct->SPI_CPHA | SPI_InitStruct->SPI_NSS |  
 800bd50:	683b      	ldr	r3, [r7, #0]
 800bd52:	895b      	ldrh	r3, [r3, #10]
  tmpreg |= (uint16_t)((uint32_t)SPI_InitStruct->SPI_Direction | SPI_InitStruct->SPI_Mode |
 800bd54:	4313      	orrs	r3, r2
 800bd56:	b29a      	uxth	r2, r3
                  SPI_InitStruct->SPI_BaudRatePrescaler | SPI_InitStruct->SPI_FirstBit);
 800bd58:	683b      	ldr	r3, [r7, #0]
 800bd5a:	899b      	ldrh	r3, [r3, #12]
  tmpreg |= (uint16_t)((uint32_t)SPI_InitStruct->SPI_Direction | SPI_InitStruct->SPI_Mode |
 800bd5c:	4313      	orrs	r3, r2
 800bd5e:	b29a      	uxth	r2, r3
                  SPI_InitStruct->SPI_BaudRatePrescaler | SPI_InitStruct->SPI_FirstBit);
 800bd60:	683b      	ldr	r3, [r7, #0]
 800bd62:	89db      	ldrh	r3, [r3, #14]
  tmpreg |= (uint16_t)((uint32_t)SPI_InitStruct->SPI_Direction | SPI_InitStruct->SPI_Mode |
 800bd64:	4313      	orrs	r3, r2
 800bd66:	b29a      	uxth	r2, r3
 800bd68:	89fb      	ldrh	r3, [r7, #14]
 800bd6a:	4313      	orrs	r3, r2
 800bd6c:	81fb      	strh	r3, [r7, #14]
  /* Write to SPIx CR1 */
  SPIx->CR1 = tmpreg;
 800bd6e:	687b      	ldr	r3, [r7, #4]
 800bd70:	89fa      	ldrh	r2, [r7, #14]
 800bd72:	801a      	strh	r2, [r3, #0]
  
  /* Activate the SPI mode (Reset I2SMOD bit in I2SCFGR register) */
  SPIx->I2SCFGR &= SPI_Mode_Select;		
 800bd74:	687b      	ldr	r3, [r7, #4]
 800bd76:	8b9b      	ldrh	r3, [r3, #28]
 800bd78:	b29b      	uxth	r3, r3
 800bd7a:	f423 6300 	bic.w	r3, r3, #2048	@ 0x800
 800bd7e:	b29a      	uxth	r2, r3
 800bd80:	687b      	ldr	r3, [r7, #4]
 800bd82:	839a      	strh	r2, [r3, #28]

/*---------------------------- SPIx CRCPOLY Configuration --------------------*/
  /* Write to SPIx CRCPOLY */
  SPIx->CRCPR = SPI_InitStruct->SPI_CRCPolynomial;
 800bd84:	683b      	ldr	r3, [r7, #0]
 800bd86:	8a1a      	ldrh	r2, [r3, #16]
 800bd88:	687b      	ldr	r3, [r7, #4]
 800bd8a:	821a      	strh	r2, [r3, #16]
}
 800bd8c:	bf00      	nop
 800bd8e:	3714      	adds	r7, #20
 800bd90:	46bd      	mov	sp, r7
 800bd92:	bc80      	pop	{r7}
 800bd94:	4770      	bx	lr

0800bd96 <SPI_I2S_DMACmd>:
  * @param  NewState: new state of the selected SPI/I2S DMA transfer request.
  *   This parameter can be: ENABLE or DISABLE.
  * @retval None
  */
void SPI_I2S_DMACmd(SPI_TypeDef* SPIx, uint16_t SPI_I2S_DMAReq, FunctionalState NewState)
{
 800bd96:	b480      	push	{r7}
 800bd98:	b083      	sub	sp, #12
 800bd9a:	af00      	add	r7, sp, #0
 800bd9c:	6078      	str	r0, [r7, #4]
 800bd9e:	460b      	mov	r3, r1
 800bda0:	807b      	strh	r3, [r7, #2]
 800bda2:	4613      	mov	r3, r2
 800bda4:	707b      	strb	r3, [r7, #1]
  /* Check the parameters */
  assert_param(IS_SPI_ALL_PERIPH(SPIx));
  assert_param(IS_FUNCTIONAL_STATE(NewState));
  assert_param(IS_SPI_I2S_DMAREQ(SPI_I2S_DMAReq));
  if (NewState != DISABLE)
 800bda6:	787b      	ldrb	r3, [r7, #1]
 800bda8:	2b00      	cmp	r3, #0
 800bdaa:	d008      	beq.n	800bdbe <SPI_I2S_DMACmd+0x28>
  {
    /* Enable the selected SPI/I2S DMA requests */
    SPIx->CR2 |= SPI_I2S_DMAReq;
 800bdac:	687b      	ldr	r3, [r7, #4]
 800bdae:	889b      	ldrh	r3, [r3, #4]
 800bdb0:	b29a      	uxth	r2, r3
 800bdb2:	887b      	ldrh	r3, [r7, #2]
 800bdb4:	4313      	orrs	r3, r2
 800bdb6:	b29a      	uxth	r2, r3
 800bdb8:	687b      	ldr	r3, [r7, #4]
 800bdba:	809a      	strh	r2, [r3, #4]
  else
  {
    /* Disable the selected SPI/I2S DMA requests */
    SPIx->CR2 &= (uint16_t)~SPI_I2S_DMAReq;
  }
}
 800bdbc:	e009      	b.n	800bdd2 <SPI_I2S_DMACmd+0x3c>
    SPIx->CR2 &= (uint16_t)~SPI_I2S_DMAReq;
 800bdbe:	687b      	ldr	r3, [r7, #4]
 800bdc0:	889b      	ldrh	r3, [r3, #4]
 800bdc2:	b29a      	uxth	r2, r3
 800bdc4:	887b      	ldrh	r3, [r7, #2]
 800bdc6:	43db      	mvns	r3, r3
 800bdc8:	b29b      	uxth	r3, r3
 800bdca:	4013      	ands	r3, r2
 800bdcc:	b29a      	uxth	r2, r3
 800bdce:	687b      	ldr	r3, [r7, #4]
 800bdd0:	809a      	strh	r2, [r3, #4]
}
 800bdd2:	bf00      	nop
 800bdd4:	370c      	adds	r7, #12
 800bdd6:	46bd      	mov	sp, r7
 800bdd8:	bc80      	pop	{r7}
 800bdda:	4770      	bx	lr

0800bddc <SPI_I2S_ReceiveData>:
  *   - 1, 2 or 3 in SPI mode 
  *   - 2 or 3 in I2S mode
  * @retval The value of the received data.
  */
uint16_t SPI_I2S_ReceiveData(SPI_TypeDef* SPIx)
{
 800bddc:	b480      	push	{r7}
 800bdde:	b083      	sub	sp, #12
 800bde0:	af00      	add	r7, sp, #0
 800bde2:	6078      	str	r0, [r7, #4]
  /* Check the parameters */
  assert_param(IS_SPI_ALL_PERIPH(SPIx));
  
  /* Return the data in the DR register */
  return SPIx->DR;
 800bde4:	687b      	ldr	r3, [r7, #4]
 800bde6:	899b      	ldrh	r3, [r3, #12]
 800bde8:	b29b      	uxth	r3, r3
}
 800bdea:	4618      	mov	r0, r3
 800bdec:	370c      	adds	r7, #12
 800bdee:	46bd      	mov	sp, r7
 800bdf0:	bc80      	pop	{r7}
 800bdf2:	4770      	bx	lr

0800bdf4 <SPI_I2S_GetFlagStatus>:
  *     @arg I2S_FLAG_UDR: Underrun Error flag.
  *     @arg I2S_FLAG_CHSIDE: Channel Side flag.
  * @retval The new state of SPI_I2S_FLAG (SET or RESET).
  */
FlagStatus SPI_I2S_GetFlagStatus(SPI_TypeDef* SPIx, uint16_t SPI_I2S_FLAG)
{
 800bdf4:	b480      	push	{r7}
 800bdf6:	b085      	sub	sp, #20
 800bdf8:	af00      	add	r7, sp, #0
 800bdfa:	6078      	str	r0, [r7, #4]
 800bdfc:	460b      	mov	r3, r1
 800bdfe:	807b      	strh	r3, [r7, #2]
  FlagStatus bitstatus = RESET;
 800be00:	2300      	movs	r3, #0
 800be02:	73fb      	strb	r3, [r7, #15]
  /* Check the parameters */
  assert_param(IS_SPI_ALL_PERIPH(SPIx));
  assert_param(IS_SPI_I2S_GET_FLAG(SPI_I2S_FLAG));
  /* Check the status of the specified SPI/I2S flag */
  if ((SPIx->SR & SPI_I2S_FLAG) != (uint16_t)RESET)
 800be04:	687b      	ldr	r3, [r7, #4]
 800be06:	891b      	ldrh	r3, [r3, #8]
 800be08:	b29a      	uxth	r2, r3
 800be0a:	887b      	ldrh	r3, [r7, #2]
 800be0c:	4013      	ands	r3, r2
 800be0e:	b29b      	uxth	r3, r3
 800be10:	2b00      	cmp	r3, #0
 800be12:	d002      	beq.n	800be1a <SPI_I2S_GetFlagStatus+0x26>
  {
    /* SPI_I2S_FLAG is set */
    bitstatus = SET;
 800be14:	2301      	movs	r3, #1
 800be16:	73fb      	strb	r3, [r7, #15]
 800be18:	e001      	b.n	800be1e <SPI_I2S_GetFlagStatus+0x2a>
  }
  else
  {
    /* SPI_I2S_FLAG is reset */
    bitstatus = RESET;
 800be1a:	2300      	movs	r3, #0
 800be1c:	73fb      	strb	r3, [r7, #15]
  }
  /* Return the SPI_I2S_FLAG status */
  return  bitstatus;
 800be1e:	7bfb      	ldrb	r3, [r7, #15]
}
 800be20:	4618      	mov	r0, r3
 800be22:	3714      	adds	r7, #20
 800be24:	46bd      	mov	sp, r7
 800be26:	bc80      	pop	{r7}
 800be28:	4770      	bx	lr

0800be2a <_getpid>:
void initialise_monitor_handles()
{
}

int _getpid(void)
{
 800be2a:	b480      	push	{r7}
 800be2c:	af00      	add	r7, sp, #0
	return 1;
 800be2e:	2301      	movs	r3, #1
}
 800be30:	4618      	mov	r0, r3
 800be32:	46bd      	mov	sp, r7
 800be34:	bc80      	pop	{r7}
 800be36:	4770      	bx	lr

0800be38 <_kill>:

int _kill(int pid, int sig)
{
 800be38:	b580      	push	{r7, lr}
 800be3a:	b082      	sub	sp, #8
 800be3c:	af00      	add	r7, sp, #0
 800be3e:	6078      	str	r0, [r7, #4]
 800be40:	6039      	str	r1, [r7, #0]
	errno = EINVAL;
 800be42:	f000 f9b1 	bl	800c1a8 <__errno>
 800be46:	4603      	mov	r3, r0
 800be48:	2216      	movs	r2, #22
 800be4a:	601a      	str	r2, [r3, #0]
	return -1;
 800be4c:	f04f 33ff 	mov.w	r3, #4294967295
}
 800be50:	4618      	mov	r0, r3
 800be52:	3708      	adds	r7, #8
 800be54:	46bd      	mov	sp, r7
 800be56:	bd80      	pop	{r7, pc}

0800be58 <_exit>:

void _exit (int status)
{
 800be58:	b580      	push	{r7, lr}
 800be5a:	b082      	sub	sp, #8
 800be5c:	af00      	add	r7, sp, #0
 800be5e:	6078      	str	r0, [r7, #4]
	_kill(status, -1);
 800be60:	f04f 31ff 	mov.w	r1, #4294967295
 800be64:	6878      	ldr	r0, [r7, #4]
 800be66:	f7ff ffe7 	bl	800be38 <_kill>
	while (1) {}		/* Make sure we hang here */
 800be6a:	bf00      	nop
 800be6c:	e7fd      	b.n	800be6a <_exit+0x12>
	...

0800be70 <SystemInit>:
  * @note   This function should be used only after reset.
  * @param  None
  * @retval None
  */
void SystemInit (void)
{
 800be70:	b580      	push	{r7, lr}
 800be72:	af00      	add	r7, sp, #0
  /* Reset the RCC clock configuration to the default reset state(for debug purpose) */
  /* Set HSION bit */
  RCC->CR |= (uint32_t)0x00000001;
 800be74:	4b19      	ldr	r3, [pc, #100]	@ (800bedc <SystemInit+0x6c>)
 800be76:	681b      	ldr	r3, [r3, #0]
 800be78:	4a18      	ldr	r2, [pc, #96]	@ (800bedc <SystemInit+0x6c>)
 800be7a:	f043 0301 	orr.w	r3, r3, #1
 800be7e:	6013      	str	r3, [r2, #0]

  /* Reset SW, HPRE, PPRE1, PPRE2, ADCPRE and MCO bits */
#ifndef STM32F10X_CL
  RCC->CFGR &= (uint32_t)0xF8FF0000;
#else
  RCC->CFGR &= (uint32_t)0xF0FF0000;
 800be80:	4b16      	ldr	r3, [pc, #88]	@ (800bedc <SystemInit+0x6c>)
 800be82:	685a      	ldr	r2, [r3, #4]
 800be84:	4915      	ldr	r1, [pc, #84]	@ (800bedc <SystemInit+0x6c>)
 800be86:	4b16      	ldr	r3, [pc, #88]	@ (800bee0 <SystemInit+0x70>)
 800be88:	4013      	ands	r3, r2
 800be8a:	604b      	str	r3, [r1, #4]
#endif /* STM32F10X_CL */   
  
  /* Reset HSEON, CSSON and PLLON bits */
  RCC->CR &= (uint32_t)0xFEF6FFFF;
 800be8c:	4b13      	ldr	r3, [pc, #76]	@ (800bedc <SystemInit+0x6c>)
 800be8e:	681b      	ldr	r3, [r3, #0]
 800be90:	4a12      	ldr	r2, [pc, #72]	@ (800bedc <SystemInit+0x6c>)
 800be92:	f023 7384 	bic.w	r3, r3, #17301504	@ 0x1080000
 800be96:	f423 3380 	bic.w	r3, r3, #65536	@ 0x10000
 800be9a:	6013      	str	r3, [r2, #0]

  /* Reset HSEBYP bit */
  RCC->CR &= (uint32_t)0xFFFBFFFF;
 800be9c:	4b0f      	ldr	r3, [pc, #60]	@ (800bedc <SystemInit+0x6c>)
 800be9e:	681b      	ldr	r3, [r3, #0]
 800bea0:	4a0e      	ldr	r2, [pc, #56]	@ (800bedc <SystemInit+0x6c>)
 800bea2:	f423 2380 	bic.w	r3, r3, #262144	@ 0x40000
 800bea6:	6013      	str	r3, [r2, #0]

  /* Reset PLLSRC, PLLXTPRE, PLLMUL and USBPRE/OTGFSPRE bits */
  RCC->CFGR &= (uint32_t)0xFF80FFFF;
 800bea8:	4b0c      	ldr	r3, [pc, #48]	@ (800bedc <SystemInit+0x6c>)
 800beaa:	685b      	ldr	r3, [r3, #4]
 800beac:	4a0b      	ldr	r2, [pc, #44]	@ (800bedc <SystemInit+0x6c>)
 800beae:	f423 03fe 	bic.w	r3, r3, #8323072	@ 0x7f0000
 800beb2:	6053      	str	r3, [r2, #4]

#ifdef STM32F10X_CL
  /* Reset PLL2ON and PLL3ON bits */
  RCC->CR &= (uint32_t)0xEBFFFFFF;
 800beb4:	4b09      	ldr	r3, [pc, #36]	@ (800bedc <SystemInit+0x6c>)
 800beb6:	681b      	ldr	r3, [r3, #0]
 800beb8:	4a08      	ldr	r2, [pc, #32]	@ (800bedc <SystemInit+0x6c>)
 800beba:	f023 53a0 	bic.w	r3, r3, #335544320	@ 0x14000000
 800bebe:	6013      	str	r3, [r2, #0]

  /* Disable all interrupts and clear pending bits  */
  RCC->CIR = 0x00FF0000;
 800bec0:	4b06      	ldr	r3, [pc, #24]	@ (800bedc <SystemInit+0x6c>)
 800bec2:	f44f 027f 	mov.w	r2, #16711680	@ 0xff0000
 800bec6:	609a      	str	r2, [r3, #8]

  /* Reset CFGR2 register */
  RCC->CFGR2 = 0x00000000;
 800bec8:	4b04      	ldr	r3, [pc, #16]	@ (800bedc <SystemInit+0x6c>)
 800beca:	2200      	movs	r2, #0
 800becc:	62da      	str	r2, [r3, #44]	@ 0x2c
  #endif /* DATA_IN_ExtSRAM */
#endif 

  /* Configure the System clock frequency, HCLK, PCLK2 and PCLK1 prescalers */
  /* Configure the Flash Latency cycles and enable prefetch buffer */
  SetSysClock();
 800bece:	f000 f80d 	bl	800beec <SetSysClock>

#ifdef VECT_TAB_SRAM
  SCB->VTOR = SRAM_BASE | VECT_TAB_OFFSET; /* Vector Table Relocation in Internal SRAM. */
#else
  SCB->VTOR = FLASH_BASE | VECT_TAB_OFFSET; /* Vector Table Relocation in Internal FLASH. */
 800bed2:	4b04      	ldr	r3, [pc, #16]	@ (800bee4 <SystemInit+0x74>)
 800bed4:	4a04      	ldr	r2, [pc, #16]	@ (800bee8 <SystemInit+0x78>)
 800bed6:	609a      	str	r2, [r3, #8]
#endif 
}
 800bed8:	bf00      	nop
 800beda:	bd80      	pop	{r7, pc}
 800bedc:	40021000 	.word	0x40021000
 800bee0:	f0ff0000 	.word	0xf0ff0000
 800bee4:	e000ed00 	.word	0xe000ed00
 800bee8:	08002000 	.word	0x08002000

0800beec <SetSysClock>:
  * @brief  Configures the System clock frequency, HCLK, PCLK2 and PCLK1 prescalers.
  * @param  None
  * @retval None
  */
static void SetSysClock(void)
{
 800beec:	b480      	push	{r7}
 800beee:	af00      	add	r7, sp, #0
  SetSysClockTo72();
#endif
 
 /* If none of the define above is enabled, the HSI is used as System clock
    source (default after reset) */ 
}
 800bef0:	bf00      	nop
 800bef2:	46bd      	mov	sp, r7
 800bef4:	bc80      	pop	{r7}
 800bef6:	4770      	bx	lr

0800bef8 <_Znwj>:
 800bef8:	2801      	cmp	r0, #1
 800befa:	bf38      	it	cc
 800befc:	2001      	movcc	r0, #1
 800befe:	b510      	push	{r4, lr}
 800bf00:	4604      	mov	r4, r0
 800bf02:	4620      	mov	r0, r4
 800bf04:	f000 f81a 	bl	800bf3c <malloc>
 800bf08:	b100      	cbz	r0, 800bf0c <_Znwj+0x14>
 800bf0a:	bd10      	pop	{r4, pc}
 800bf0c:	f000 f806 	bl	800bf1c <_ZSt15get_new_handlerv>
 800bf10:	b908      	cbnz	r0, 800bf16 <_Znwj+0x1e>
 800bf12:	f000 f80b 	bl	800bf2c <abort>
 800bf16:	4780      	blx	r0
 800bf18:	e7f3      	b.n	800bf02 <_Znwj+0xa>
	...

0800bf1c <_ZSt15get_new_handlerv>:
 800bf1c:	4b02      	ldr	r3, [pc, #8]	@ (800bf28 <_ZSt15get_new_handlerv+0xc>)
 800bf1e:	6818      	ldr	r0, [r3, #0]
 800bf20:	f3bf 8f5b 	dmb	ish
 800bf24:	4770      	bx	lr
 800bf26:	bf00      	nop
 800bf28:	2000b4a0 	.word	0x2000b4a0

0800bf2c <abort>:
 800bf2c:	2006      	movs	r0, #6
 800bf2e:	b508      	push	{r3, lr}
 800bf30:	f000 f90e 	bl	800c150 <raise>
 800bf34:	2001      	movs	r0, #1
 800bf36:	f7ff ff8f 	bl	800be58 <_exit>
	...

0800bf3c <malloc>:
 800bf3c:	4b02      	ldr	r3, [pc, #8]	@ (800bf48 <malloc+0xc>)
 800bf3e:	4601      	mov	r1, r0
 800bf40:	6818      	ldr	r0, [r3, #0]
 800bf42:	f000 b825 	b.w	800bf90 <_malloc_r>
 800bf46:	bf00      	nop
 800bf48:	20000040 	.word	0x20000040

0800bf4c <sbrk_aligned>:
 800bf4c:	b570      	push	{r4, r5, r6, lr}
 800bf4e:	4e0f      	ldr	r6, [pc, #60]	@ (800bf8c <sbrk_aligned+0x40>)
 800bf50:	460c      	mov	r4, r1
 800bf52:	6831      	ldr	r1, [r6, #0]
 800bf54:	4605      	mov	r5, r0
 800bf56:	b911      	cbnz	r1, 800bf5e <sbrk_aligned+0x12>
 800bf58:	f000 f916 	bl	800c188 <_sbrk_r>
 800bf5c:	6030      	str	r0, [r6, #0]
 800bf5e:	4621      	mov	r1, r4
 800bf60:	4628      	mov	r0, r5
 800bf62:	f000 f911 	bl	800c188 <_sbrk_r>
 800bf66:	1c43      	adds	r3, r0, #1
 800bf68:	d103      	bne.n	800bf72 <sbrk_aligned+0x26>
 800bf6a:	f04f 34ff 	mov.w	r4, #4294967295
 800bf6e:	4620      	mov	r0, r4
 800bf70:	bd70      	pop	{r4, r5, r6, pc}
 800bf72:	1cc4      	adds	r4, r0, #3
 800bf74:	f024 0403 	bic.w	r4, r4, #3
 800bf78:	42a0      	cmp	r0, r4
 800bf7a:	d0f8      	beq.n	800bf6e <sbrk_aligned+0x22>
 800bf7c:	1a21      	subs	r1, r4, r0
 800bf7e:	4628      	mov	r0, r5
 800bf80:	f000 f902 	bl	800c188 <_sbrk_r>
 800bf84:	3001      	adds	r0, #1
 800bf86:	d1f2      	bne.n	800bf6e <sbrk_aligned+0x22>
 800bf88:	e7ef      	b.n	800bf6a <sbrk_aligned+0x1e>
 800bf8a:	bf00      	nop
 800bf8c:	2000b4a4 	.word	0x2000b4a4

0800bf90 <_malloc_r>:
 800bf90:	e92d 43f8 	stmdb	sp!, {r3, r4, r5, r6, r7, r8, r9, lr}
 800bf94:	1ccd      	adds	r5, r1, #3
 800bf96:	f025 0503 	bic.w	r5, r5, #3
 800bf9a:	3508      	adds	r5, #8
 800bf9c:	2d0c      	cmp	r5, #12
 800bf9e:	bf38      	it	cc
 800bfa0:	250c      	movcc	r5, #12
 800bfa2:	2d00      	cmp	r5, #0
 800bfa4:	4606      	mov	r6, r0
 800bfa6:	db01      	blt.n	800bfac <_malloc_r+0x1c>
 800bfa8:	42a9      	cmp	r1, r5
 800bfaa:	d904      	bls.n	800bfb6 <_malloc_r+0x26>
 800bfac:	230c      	movs	r3, #12
 800bfae:	6033      	str	r3, [r6, #0]
 800bfb0:	2000      	movs	r0, #0
 800bfb2:	e8bd 83f8 	ldmia.w	sp!, {r3, r4, r5, r6, r7, r8, r9, pc}
 800bfb6:	f8df 80d4 	ldr.w	r8, [pc, #212]	@ 800c08c <_malloc_r+0xfc>
 800bfba:	f000 f869 	bl	800c090 <__malloc_lock>
 800bfbe:	f8d8 3000 	ldr.w	r3, [r8]
 800bfc2:	461c      	mov	r4, r3
 800bfc4:	bb44      	cbnz	r4, 800c018 <_malloc_r+0x88>
 800bfc6:	4629      	mov	r1, r5
 800bfc8:	4630      	mov	r0, r6
 800bfca:	f7ff ffbf 	bl	800bf4c <sbrk_aligned>
 800bfce:	1c43      	adds	r3, r0, #1
 800bfd0:	4604      	mov	r4, r0
 800bfd2:	d158      	bne.n	800c086 <_malloc_r+0xf6>
 800bfd4:	f8d8 4000 	ldr.w	r4, [r8]
 800bfd8:	4627      	mov	r7, r4
 800bfda:	2f00      	cmp	r7, #0
 800bfdc:	d143      	bne.n	800c066 <_malloc_r+0xd6>
 800bfde:	2c00      	cmp	r4, #0
 800bfe0:	d04b      	beq.n	800c07a <_malloc_r+0xea>
 800bfe2:	6823      	ldr	r3, [r4, #0]
 800bfe4:	4639      	mov	r1, r7
 800bfe6:	4630      	mov	r0, r6
 800bfe8:	eb04 0903 	add.w	r9, r4, r3
 800bfec:	f000 f8cc 	bl	800c188 <_sbrk_r>
 800bff0:	4581      	cmp	r9, r0
 800bff2:	d142      	bne.n	800c07a <_malloc_r+0xea>
 800bff4:	6821      	ldr	r1, [r4, #0]
 800bff6:	4630      	mov	r0, r6
 800bff8:	1a6d      	subs	r5, r5, r1
 800bffa:	4629      	mov	r1, r5
 800bffc:	f7ff ffa6 	bl	800bf4c <sbrk_aligned>
 800c000:	3001      	adds	r0, #1
 800c002:	d03a      	beq.n	800c07a <_malloc_r+0xea>
 800c004:	6823      	ldr	r3, [r4, #0]
 800c006:	442b      	add	r3, r5
 800c008:	6023      	str	r3, [r4, #0]
 800c00a:	f8d8 3000 	ldr.w	r3, [r8]
 800c00e:	685a      	ldr	r2, [r3, #4]
 800c010:	bb62      	cbnz	r2, 800c06c <_malloc_r+0xdc>
 800c012:	f8c8 7000 	str.w	r7, [r8]
 800c016:	e00f      	b.n	800c038 <_malloc_r+0xa8>
 800c018:	6822      	ldr	r2, [r4, #0]
 800c01a:	1b52      	subs	r2, r2, r5
 800c01c:	d420      	bmi.n	800c060 <_malloc_r+0xd0>
 800c01e:	2a0b      	cmp	r2, #11
 800c020:	d917      	bls.n	800c052 <_malloc_r+0xc2>
 800c022:	1961      	adds	r1, r4, r5
 800c024:	42a3      	cmp	r3, r4
 800c026:	6025      	str	r5, [r4, #0]
 800c028:	bf18      	it	ne
 800c02a:	6059      	strne	r1, [r3, #4]
 800c02c:	6863      	ldr	r3, [r4, #4]
 800c02e:	bf08      	it	eq
 800c030:	f8c8 1000 	streq.w	r1, [r8]
 800c034:	5162      	str	r2, [r4, r5]
 800c036:	604b      	str	r3, [r1, #4]
 800c038:	4630      	mov	r0, r6
 800c03a:	f000 f82f 	bl	800c09c <__malloc_unlock>
 800c03e:	f104 000b 	add.w	r0, r4, #11
 800c042:	1d23      	adds	r3, r4, #4
 800c044:	f020 0007 	bic.w	r0, r0, #7
 800c048:	1ac2      	subs	r2, r0, r3
 800c04a:	bf1c      	itt	ne
 800c04c:	1a1b      	subne	r3, r3, r0
 800c04e:	50a3      	strne	r3, [r4, r2]
 800c050:	e7af      	b.n	800bfb2 <_malloc_r+0x22>
 800c052:	6862      	ldr	r2, [r4, #4]
 800c054:	42a3      	cmp	r3, r4
 800c056:	bf0c      	ite	eq
 800c058:	f8c8 2000 	streq.w	r2, [r8]
 800c05c:	605a      	strne	r2, [r3, #4]
 800c05e:	e7eb      	b.n	800c038 <_malloc_r+0xa8>
 800c060:	4623      	mov	r3, r4
 800c062:	6864      	ldr	r4, [r4, #4]
 800c064:	e7ae      	b.n	800bfc4 <_malloc_r+0x34>
 800c066:	463c      	mov	r4, r7
 800c068:	687f      	ldr	r7, [r7, #4]
 800c06a:	e7b6      	b.n	800bfda <_malloc_r+0x4a>
 800c06c:	461a      	mov	r2, r3
 800c06e:	685b      	ldr	r3, [r3, #4]
 800c070:	42a3      	cmp	r3, r4
 800c072:	d1fb      	bne.n	800c06c <_malloc_r+0xdc>
 800c074:	2300      	movs	r3, #0
 800c076:	6053      	str	r3, [r2, #4]
 800c078:	e7de      	b.n	800c038 <_malloc_r+0xa8>
 800c07a:	230c      	movs	r3, #12
 800c07c:	4630      	mov	r0, r6
 800c07e:	6033      	str	r3, [r6, #0]
 800c080:	f000 f80c 	bl	800c09c <__malloc_unlock>
 800c084:	e794      	b.n	800bfb0 <_malloc_r+0x20>
 800c086:	6005      	str	r5, [r0, #0]
 800c088:	e7d6      	b.n	800c038 <_malloc_r+0xa8>
 800c08a:	bf00      	nop
 800c08c:	2000b4a8 	.word	0x2000b4a8

0800c090 <__malloc_lock>:
 800c090:	4801      	ldr	r0, [pc, #4]	@ (800c098 <__malloc_lock+0x8>)
 800c092:	f000 b8b3 	b.w	800c1fc <__retarget_lock_acquire_recursive>
 800c096:	bf00      	nop
 800c098:	2000b5e8 	.word	0x2000b5e8

0800c09c <__malloc_unlock>:
 800c09c:	4801      	ldr	r0, [pc, #4]	@ (800c0a4 <__malloc_unlock+0x8>)
 800c09e:	f000 b8ae 	b.w	800c1fe <__retarget_lock_release_recursive>
 800c0a2:	bf00      	nop
 800c0a4:	2000b5e8 	.word	0x2000b5e8

0800c0a8 <memcmp>:
 800c0a8:	b510      	push	{r4, lr}
 800c0aa:	3901      	subs	r1, #1
 800c0ac:	4402      	add	r2, r0
 800c0ae:	4290      	cmp	r0, r2
 800c0b0:	d101      	bne.n	800c0b6 <memcmp+0xe>
 800c0b2:	2000      	movs	r0, #0
 800c0b4:	e005      	b.n	800c0c2 <memcmp+0x1a>
 800c0b6:	7803      	ldrb	r3, [r0, #0]
 800c0b8:	f811 4f01 	ldrb.w	r4, [r1, #1]!
 800c0bc:	42a3      	cmp	r3, r4
 800c0be:	d001      	beq.n	800c0c4 <memcmp+0x1c>
 800c0c0:	1b18      	subs	r0, r3, r4
 800c0c2:	bd10      	pop	{r4, pc}
 800c0c4:	3001      	adds	r0, #1
 800c0c6:	e7f2      	b.n	800c0ae <memcmp+0x6>

0800c0c8 <memset>:
 800c0c8:	4603      	mov	r3, r0
 800c0ca:	4402      	add	r2, r0
 800c0cc:	4293      	cmp	r3, r2
 800c0ce:	d100      	bne.n	800c0d2 <memset+0xa>
 800c0d0:	4770      	bx	lr
 800c0d2:	f803 1b01 	strb.w	r1, [r3], #1
 800c0d6:	e7f9      	b.n	800c0cc <memset+0x4>

0800c0d8 <strncpy>:
 800c0d8:	4603      	mov	r3, r0
 800c0da:	b510      	push	{r4, lr}
 800c0dc:	3901      	subs	r1, #1
 800c0de:	b132      	cbz	r2, 800c0ee <strncpy+0x16>
 800c0e0:	f811 4f01 	ldrb.w	r4, [r1, #1]!
 800c0e4:	3a01      	subs	r2, #1
 800c0e6:	f803 4b01 	strb.w	r4, [r3], #1
 800c0ea:	2c00      	cmp	r4, #0
 800c0ec:	d1f7      	bne.n	800c0de <strncpy+0x6>
 800c0ee:	2100      	movs	r1, #0
 800c0f0:	441a      	add	r2, r3
 800c0f2:	4293      	cmp	r3, r2
 800c0f4:	d100      	bne.n	800c0f8 <strncpy+0x20>
 800c0f6:	bd10      	pop	{r4, pc}
 800c0f8:	f803 1b01 	strb.w	r1, [r3], #1
 800c0fc:	e7f9      	b.n	800c0f2 <strncpy+0x1a>

0800c0fe <_raise_r>:
 800c0fe:	291f      	cmp	r1, #31
 800c100:	b538      	push	{r3, r4, r5, lr}
 800c102:	4605      	mov	r5, r0
 800c104:	460c      	mov	r4, r1
 800c106:	d904      	bls.n	800c112 <_raise_r+0x14>
 800c108:	2316      	movs	r3, #22
 800c10a:	6003      	str	r3, [r0, #0]
 800c10c:	f04f 30ff 	mov.w	r0, #4294967295
 800c110:	bd38      	pop	{r3, r4, r5, pc}
 800c112:	6bc2      	ldr	r2, [r0, #60]	@ 0x3c
 800c114:	b112      	cbz	r2, 800c11c <_raise_r+0x1e>
 800c116:	f852 3021 	ldr.w	r3, [r2, r1, lsl #2]
 800c11a:	b94b      	cbnz	r3, 800c130 <_raise_r+0x32>
 800c11c:	4628      	mov	r0, r5
 800c11e:	f000 f831 	bl	800c184 <_getpid_r>
 800c122:	4622      	mov	r2, r4
 800c124:	4601      	mov	r1, r0
 800c126:	4628      	mov	r0, r5
 800c128:	e8bd 4038 	ldmia.w	sp!, {r3, r4, r5, lr}
 800c12c:	f000 b818 	b.w	800c160 <_kill_r>
 800c130:	2b01      	cmp	r3, #1
 800c132:	d00a      	beq.n	800c14a <_raise_r+0x4c>
 800c134:	1c59      	adds	r1, r3, #1
 800c136:	d103      	bne.n	800c140 <_raise_r+0x42>
 800c138:	2316      	movs	r3, #22
 800c13a:	6003      	str	r3, [r0, #0]
 800c13c:	2001      	movs	r0, #1
 800c13e:	e7e7      	b.n	800c110 <_raise_r+0x12>
 800c140:	2100      	movs	r1, #0
 800c142:	4620      	mov	r0, r4
 800c144:	f842 1024 	str.w	r1, [r2, r4, lsl #2]
 800c148:	4798      	blx	r3
 800c14a:	2000      	movs	r0, #0
 800c14c:	e7e0      	b.n	800c110 <_raise_r+0x12>
	...

0800c150 <raise>:
 800c150:	4b02      	ldr	r3, [pc, #8]	@ (800c15c <raise+0xc>)
 800c152:	4601      	mov	r1, r0
 800c154:	6818      	ldr	r0, [r3, #0]
 800c156:	f7ff bfd2 	b.w	800c0fe <_raise_r>
 800c15a:	bf00      	nop
 800c15c:	20000040 	.word	0x20000040

0800c160 <_kill_r>:
 800c160:	b538      	push	{r3, r4, r5, lr}
 800c162:	2300      	movs	r3, #0
 800c164:	4d06      	ldr	r5, [pc, #24]	@ (800c180 <_kill_r+0x20>)
 800c166:	4604      	mov	r4, r0
 800c168:	4608      	mov	r0, r1
 800c16a:	4611      	mov	r1, r2
 800c16c:	602b      	str	r3, [r5, #0]
 800c16e:	f7ff fe63 	bl	800be38 <_kill>
 800c172:	1c43      	adds	r3, r0, #1
 800c174:	d102      	bne.n	800c17c <_kill_r+0x1c>
 800c176:	682b      	ldr	r3, [r5, #0]
 800c178:	b103      	cbz	r3, 800c17c <_kill_r+0x1c>
 800c17a:	6023      	str	r3, [r4, #0]
 800c17c:	bd38      	pop	{r3, r4, r5, pc}
 800c17e:	bf00      	nop
 800c180:	2000b5e4 	.word	0x2000b5e4

0800c184 <_getpid_r>:
 800c184:	f7ff be51 	b.w	800be2a <_getpid>

0800c188 <_sbrk_r>:
 800c188:	b538      	push	{r3, r4, r5, lr}
 800c18a:	2300      	movs	r3, #0
 800c18c:	4d05      	ldr	r5, [pc, #20]	@ (800c1a4 <_sbrk_r+0x1c>)
 800c18e:	4604      	mov	r4, r0
 800c190:	4608      	mov	r0, r1
 800c192:	602b      	str	r3, [r5, #0]
 800c194:	f000 f842 	bl	800c21c <_sbrk>
 800c198:	1c43      	adds	r3, r0, #1
 800c19a:	d102      	bne.n	800c1a2 <_sbrk_r+0x1a>
 800c19c:	682b      	ldr	r3, [r5, #0]
 800c19e:	b103      	cbz	r3, 800c1a2 <_sbrk_r+0x1a>
 800c1a0:	6023      	str	r3, [r4, #0]
 800c1a2:	bd38      	pop	{r3, r4, r5, pc}
 800c1a4:	2000b5e4 	.word	0x2000b5e4

0800c1a8 <__errno>:
 800c1a8:	4b01      	ldr	r3, [pc, #4]	@ (800c1b0 <__errno+0x8>)
 800c1aa:	6818      	ldr	r0, [r3, #0]
 800c1ac:	4770      	bx	lr
 800c1ae:	bf00      	nop
 800c1b0:	20000040 	.word	0x20000040

0800c1b4 <__libc_init_array>:
 800c1b4:	b570      	push	{r4, r5, r6, lr}
 800c1b6:	2600      	movs	r6, #0
 800c1b8:	4d0c      	ldr	r5, [pc, #48]	@ (800c1ec <__libc_init_array+0x38>)
 800c1ba:	4c0d      	ldr	r4, [pc, #52]	@ (800c1f0 <__libc_init_array+0x3c>)
 800c1bc:	1b64      	subs	r4, r4, r5
 800c1be:	10a4      	asrs	r4, r4, #2
 800c1c0:	42a6      	cmp	r6, r4
 800c1c2:	d109      	bne.n	800c1d8 <__libc_init_array+0x24>
 800c1c4:	f000 f838 	bl	800c238 <_init>
 800c1c8:	2600      	movs	r6, #0
 800c1ca:	4d0a      	ldr	r5, [pc, #40]	@ (800c1f4 <__libc_init_array+0x40>)
 800c1cc:	4c0a      	ldr	r4, [pc, #40]	@ (800c1f8 <__libc_init_array+0x44>)
 800c1ce:	1b64      	subs	r4, r4, r5
 800c1d0:	10a4      	asrs	r4, r4, #2
 800c1d2:	42a6      	cmp	r6, r4
 800c1d4:	d105      	bne.n	800c1e2 <__libc_init_array+0x2e>
 800c1d6:	bd70      	pop	{r4, r5, r6, pc}
 800c1d8:	f855 3b04 	ldr.w	r3, [r5], #4
 800c1dc:	4798      	blx	r3
 800c1de:	3601      	adds	r6, #1
 800c1e0:	e7ee      	b.n	800c1c0 <__libc_init_array+0xc>
 800c1e2:	f855 3b04 	ldr.w	r3, [r5], #4
 800c1e6:	4798      	blx	r3
 800c1e8:	3601      	adds	r6, #1
 800c1ea:	e7f2      	b.n	800c1d2 <__libc_init_array+0x1e>
 800c1ec:	0800c980 	.word	0x0800c980
 800c1f0:	0800c980 	.word	0x0800c980
 800c1f4:	0800c980 	.word	0x0800c980
 800c1f8:	0800c990 	.word	0x0800c990

0800c1fc <__retarget_lock_acquire_recursive>:
 800c1fc:	4770      	bx	lr

0800c1fe <__retarget_lock_release_recursive>:
 800c1fe:	4770      	bx	lr

0800c200 <memcpy>:
 800c200:	440a      	add	r2, r1
 800c202:	4291      	cmp	r1, r2
 800c204:	f100 33ff 	add.w	r3, r0, #4294967295
 800c208:	d100      	bne.n	800c20c <memcpy+0xc>
 800c20a:	4770      	bx	lr
 800c20c:	b510      	push	{r4, lr}
 800c20e:	f811 4b01 	ldrb.w	r4, [r1], #1
 800c212:	4291      	cmp	r1, r2
 800c214:	f803 4f01 	strb.w	r4, [r3, #1]!
 800c218:	d1f9      	bne.n	800c20e <memcpy+0xe>
 800c21a:	bd10      	pop	{r4, pc}

0800c21c <_sbrk>:
 800c21c:	4a04      	ldr	r2, [pc, #16]	@ (800c230 <_sbrk+0x14>)
 800c21e:	4603      	mov	r3, r0
 800c220:	6811      	ldr	r1, [r2, #0]
 800c222:	b909      	cbnz	r1, 800c228 <_sbrk+0xc>
 800c224:	4903      	ldr	r1, [pc, #12]	@ (800c234 <_sbrk+0x18>)
 800c226:	6011      	str	r1, [r2, #0]
 800c228:	6810      	ldr	r0, [r2, #0]
 800c22a:	4403      	add	r3, r0
 800c22c:	6013      	str	r3, [r2, #0]
 800c22e:	4770      	bx	lr
 800c230:	2000b5ec 	.word	0x2000b5ec
 800c234:	2000b5f0 	.word	0x2000b5f0

0800c238 <_init>:
 800c238:	b5f8      	push	{r3, r4, r5, r6, r7, lr}
 800c23a:	bf00      	nop
 800c23c:	bcf8      	pop	{r3, r4, r5, r6, r7}
 800c23e:	bc08      	pop	{r3}
 800c240:	469e      	mov	lr, r3
 800c242:	4770      	bx	lr

0800c244 <_fini>:
 800c244:	b5f8      	push	{r3, r4, r5, r6, r7, lr}
 800c246:	bf00      	nop
 800c248:	bcf8      	pop	{r3, r4, r5, r6, r7}
 800c24a:	bc08      	pop	{r3}
 800c24c:	469e      	mov	lr, r3
 800c24e:	4770      	bx	lr
